GAS LISTING /tmp/cc9aO5g1.s 			page 1


   1              		.file	"main.cpp"
   2              		.option pic
   3              		.option norelax
   4              		.text
   5              	.Ltext0:
   6              		.align	2
   7              		.globl	main
   9              	main:
  10              	.LFB3:
  11              		.file 1 "src/main.cpp"
   1:src/main.cpp  **** #include "../lib/hw.h"
   2:src/main.cpp  **** #include "../lib/console.h"
   3:src/main.cpp  **** #include "../h/MemoryAllocator.hpp"
   4:src/main.cpp  **** 
   5:src/main.cpp  **** int main() {
  12              		.loc 1 5 12
  13              		.cfi_startproc
  14 0000 130101FE 		addi	sp,sp,-32
  15              		.cfi_def_cfa_offset 32
  16 0004 233C1100 		sd	ra,24(sp)
  17 0008 23388100 		sd	s0,16(sp)
  18 000c 23349100 		sd	s1,8(sp)
  19              		.cfi_offset 1, -8
  20              		.cfi_offset 8, -16
  21              		.cfi_offset 9, -24
  22 0010 13040102 		addi	s0,sp,32
  23              		.cfi_def_cfa 8, 0
   6:src/main.cpp  ****     MemoryAllocator::initFreeSegment();
  24              		.loc 1 6 5
  25              		.loc 1 6 37 is_stmt 0
  26 0014 97000000 		call	_ZN15MemoryAllocator15initFreeSegmentEv@plt
  26      E7800000 
  27              	.LVL0:
   7:src/main.cpp  **** 
   8:src/main.cpp  ****     int velicinaZaglavlja = sizeof(Segment); // meni je ovoliko
  28              		.loc 1 8 5 is_stmt 1
   9:src/main.cpp  **** 
  10:src/main.cpp  ****     const size_t maxMemorija = (((size_t)HEAP_END_ADDR - (size_t)HEAP_START_ADDR - velicinaZaglavlj
  29              		.loc 1 10 5
  30              		.loc 1 10 56 is_stmt 0
  31 001c 97070000 		la	a5,HEAP_END_ADDR
  31      83B70700 
  32 0024 03B50700 		ld	a0,0(a5)
  33 0028 97070000 		la	a5,HEAP_START_ADDR
  33      83B70700 
  34 0030 83B70700 		ld	a5,0(a5)
  35 0034 3305F540 		sub	a0,a0,a5
  36              		.loc 1 10 82
  37 0038 130505FF 		addi	a0,a0,-16
  38              		.loc 1 10 102
  39 003c 13556500 		srli	a0,a0,6
  40              		.loc 1 10 118
  41 0040 1305F5FF 		addi	a0,a0,-1
  42              	.LVL1:
  11:src/main.cpp  ****     char* niz = (char*)MemoryAllocator::mem_alloc(maxMemorija); // celokupan prostor
  43              		.loc 1 11 5 is_stmt 1
  44              		.loc 1 11 50 is_stmt 0
GAS LISTING /tmp/cc9aO5g1.s 			page 2


  45 0044 13156500 		slli	a0,a0,6
  46              	.LVL2:
  47 0048 97000000 		call	_ZN15MemoryAllocator9mem_allocEm@plt
  47      E7800000 
  48              	.LVL3:
  49 0050 93040500 		mv	s1,a0
  50              	.LVL4:
  12:src/main.cpp  ****     if(niz == nullptr) {
  51              		.loc 1 12 5 is_stmt 1
  52 0054 63060504 		beqz	a0,.L7
  53              	.L2:
  13:src/main.cpp  ****         __putc('?');
  14:src/main.cpp  ****     }
  15:src/main.cpp  **** 
  16:src/main.cpp  ****     int n = 200;
  54              		.loc 1 16 5
  55              	.LVL5:
  17:src/main.cpp  ****     char* niz2 = (char*)MemoryAllocator::mem_alloc(n*sizeof(char));
  56              		.loc 1 17 5
  57              		.loc 1 17 51 is_stmt 0
  58 0058 1305800C 		li	a0,200
  59 005c 97000000 		call	_ZN15MemoryAllocator9mem_allocEm@plt
  59      E7800000 
  60              	.LVL6:
  18:src/main.cpp  ****     if(niz2 == nullptr) {
  61              		.loc 1 18 5 is_stmt 1
  62 0064 63060504 		beqz	a0,.L8
  63              	.LVL7:
  64              	.L3:
  19:src/main.cpp  ****         __putc('k');
  20:src/main.cpp  ****     }
  21:src/main.cpp  **** 
  22:src/main.cpp  ****     int status = MemoryAllocator::mem_free(niz);
  65              		.loc 1 22 5
  66              		.loc 1 22 43 is_stmt 0
  67 0068 13850400 		mv	a0,s1
  68 006c 97000000 		call	_ZN15MemoryAllocator8mem_freeEPv@plt
  68      E7800000 
  69              	.LVL8:
  23:src/main.cpp  ****     if(status) {
  70              		.loc 1 23 5 is_stmt 1
  71 0074 63160504 		bnez	a0,.L9
  72              	.LVL9:
  73              	.L4:
  24:src/main.cpp  ****         __putc('?');
  25:src/main.cpp  ****     }
  26:src/main.cpp  ****     niz2 = (char*)MemoryAllocator::mem_alloc(n*sizeof(char));
  74              		.loc 1 26 5
  75              		.loc 1 26 45 is_stmt 0
  76 0078 1305800C 		li	a0,200
  77 007c 97000000 		call	_ZN15MemoryAllocator9mem_allocEm@plt
  77      E7800000 
  78              	.LVL10:
  27:src/main.cpp  ****     if(niz2 == nullptr) {
  79              		.loc 1 27 5 is_stmt 1
  80 0084 63060504 		beqz	a0,.L10
  81              	.LVL11:
GAS LISTING /tmp/cc9aO5g1.s 			page 3


  82              	.L5:
  28:src/main.cpp  ****         __putc('?');
  29:src/main.cpp  ****     }
  30:src/main.cpp  **** 
  31:src/main.cpp  ****     return 0;
  83              		.loc 1 31 5
  32:src/main.cpp  **** }...
  84              		.loc 1 32 1 is_stmt 0
  85 0088 13050000 		li	a0,0
  86 008c 83308101 		ld	ra,24(sp)
  87              		.cfi_remember_state
  88              		.cfi_restore 1
  89 0090 03340101 		ld	s0,16(sp)
  90              		.cfi_restore 8
  91              		.cfi_def_cfa 2, 32
  92 0094 83348100 		ld	s1,8(sp)
  93              		.cfi_restore 9
  94              	.LVL12:
  95 0098 13010102 		addi	sp,sp,32
  96              		.cfi_def_cfa_offset 0
  97 009c 67800000 		jr	ra
  98              	.LVL13:
  99              	.L7:
 100              		.cfi_restore_state
  13:src/main.cpp  ****         __putc('?');
 101              		.loc 1 13 9 is_stmt 1
  13:src/main.cpp  ****         __putc('?');
 102              		.loc 1 13 15 is_stmt 0
 103 00a0 1305F003 		li	a0,63
 104 00a4 97000000 		call	__putc@plt
 104      E7800000 
 105              	.LVL14:
 106 00ac 6FF0DFFA 		j	.L2
 107              	.LVL15:
 108              	.L8:
  19:src/main.cpp  ****         __putc('k');
 109              		.loc 1 19 9 is_stmt 1
  19:src/main.cpp  ****         __putc('k');
 110              		.loc 1 19 15 is_stmt 0
 111 00b0 1305B006 		li	a0,107
 112              	.LVL16:
 113 00b4 97000000 		call	__putc@plt
 113      E7800000 
 114              	.LVL17:
 115 00bc 6FF0DFFA 		j	.L3
 116              	.LVL18:
 117              	.L9:
  24:src/main.cpp  ****         __putc('?');
 118              		.loc 1 24 9 is_stmt 1
  24:src/main.cpp  ****         __putc('?');
 119              		.loc 1 24 15 is_stmt 0
 120 00c0 1305F003 		li	a0,63
 121              	.LVL19:
 122 00c4 97000000 		call	__putc@plt
 122      E7800000 
 123              	.LVL20:
 124 00cc 6FF0DFFA 		j	.L4
GAS LISTING /tmp/cc9aO5g1.s 			page 4


 125              	.LVL21:
 126              	.L10:
  28:src/main.cpp  ****         __putc('?');
 127              		.loc 1 28 9 is_stmt 1
  28:src/main.cpp  ****         __putc('?');
 128              		.loc 1 28 15 is_stmt 0
 129 00d0 1305F003 		li	a0,63
 130              	.LVL22:
 131 00d4 97000000 		call	__putc@plt
 131      E7800000 
 132              	.LVL23:
 133 00dc 6FF0DFFA 		j	.L5
 134              		.cfi_endproc
 135              	.LFE3:
 137              	.Letext0:
 138              		.file 2 "src/../lib/hw.h"
 139              		.file 3 "src/../h/MemoryAllocator.hpp"
 140              		.file 4 "src/../lib/console.h"
GAS LISTING /tmp/cc9aO5g1.s 			page 5


DEFINED SYMBOLS
                            *ABS*:0000000000000000 main.cpp
     /tmp/cc9aO5g1.s:9      .text:0000000000000000 main
     /tmp/cc9aO5g1.s:13     .text:0000000000000000 .L0 
     /tmp/cc9aO5g1.s:14     .text:0000000000000000 .L0 
     /tmp/cc9aO5g1.s:15     .text:0000000000000004 .L0 
     /tmp/cc9aO5g1.s:19     .text:0000000000000010 .L0 
     /tmp/cc9aO5g1.s:20     .text:0000000000000010 .L0 
     /tmp/cc9aO5g1.s:21     .text:0000000000000010 .L0 
     /tmp/cc9aO5g1.s:23     .text:0000000000000014 .L0 
     /tmp/cc9aO5g1.s:25     .text:0000000000000014 .L0 
     /tmp/cc9aO5g1.s:26     .text:0000000000000014 .L0 
     /tmp/cc9aO5g1.s:29     .text:000000000000001c .L0 
     /tmp/cc9aO5g1.s:30     .text:000000000000001c .L0 
     /tmp/cc9aO5g1.s:31     .text:000000000000001c .L0 
     /tmp/cc9aO5g1.s:37     .text:0000000000000038 .L0 
     /tmp/cc9aO5g1.s:39     .text:000000000000003c .L0 
     /tmp/cc9aO5g1.s:41     .text:0000000000000040 .L0 
     /tmp/cc9aO5g1.s:44     .text:0000000000000044 .L0 
     /tmp/cc9aO5g1.s:45     .text:0000000000000044 .L0 
     /tmp/cc9aO5g1.s:52     .text:0000000000000054 .L0 
     /tmp/cc9aO5g1.s:56     .text:0000000000000058 .L0 
     /tmp/cc9aO5g1.s:57     .text:0000000000000058 .L0 
     /tmp/cc9aO5g1.s:58     .text:0000000000000058 .L0 
     /tmp/cc9aO5g1.s:62     .text:0000000000000064 .L0 
     /tmp/cc9aO5g1.s:66     .text:0000000000000068 .L0 
     /tmp/cc9aO5g1.s:67     .text:0000000000000068 .L0 
     /tmp/cc9aO5g1.s:71     .text:0000000000000074 .L0 
     /tmp/cc9aO5g1.s:75     .text:0000000000000078 .L0 
     /tmp/cc9aO5g1.s:76     .text:0000000000000078 .L0 
     /tmp/cc9aO5g1.s:80     .text:0000000000000084 .L0 
     /tmp/cc9aO5g1.s:84     .text:0000000000000088 .L0 
     /tmp/cc9aO5g1.s:85     .text:0000000000000088 .L0 
     /tmp/cc9aO5g1.s:87     .text:0000000000000090 .L0 
     /tmp/cc9aO5g1.s:88     .text:0000000000000090 .L0 
     /tmp/cc9aO5g1.s:90     .text:0000000000000094 .L0 
     /tmp/cc9aO5g1.s:91     .text:0000000000000094 .L0 
     /tmp/cc9aO5g1.s:93     .text:0000000000000098 .L0 
     /tmp/cc9aO5g1.s:96     .text:000000000000009c .L0 
     /tmp/cc9aO5g1.s:100    .text:00000000000000a0 .L0 
     /tmp/cc9aO5g1.s:102    .text:00000000000000a0 .L0 
     /tmp/cc9aO5g1.s:103    .text:00000000000000a0 .L0 
     /tmp/cc9aO5g1.s:110    .text:00000000000000b0 .L0 
     /tmp/cc9aO5g1.s:111    .text:00000000000000b0 .L0 
     /tmp/cc9aO5g1.s:119    .text:00000000000000c0 .L0 
     /tmp/cc9aO5g1.s:120    .text:00000000000000c0 .L0 
     /tmp/cc9aO5g1.s:128    .text:00000000000000d0 .L0 
     /tmp/cc9aO5g1.s:129    .text:00000000000000d0 .L0 
     /tmp/cc9aO5g1.s:134    .text:00000000000000e0 .L0 
     /tmp/cc9aO5g1.s:141    .text:00000000000000e0 .L0 
     /tmp/cc9aO5g1.s:31     .text:000000000000001c .L0 
     /tmp/cc9aO5g1.s:33     .text:0000000000000028 .L0 
     /tmp/cc9aO5g1.s:99     .text:00000000000000a0 .L7
     /tmp/cc9aO5g1.s:108    .text:00000000000000b0 .L8
     /tmp/cc9aO5g1.s:117    .text:00000000000000c0 .L9
     /tmp/cc9aO5g1.s:126    .text:00000000000000d0 .L10
     /tmp/cc9aO5g1.s:53     .text:0000000000000058 .L2
GAS LISTING /tmp/cc9aO5g1.s 			page 6


     /tmp/cc9aO5g1.s:64     .text:0000000000000068 .L3
     /tmp/cc9aO5g1.s:73     .text:0000000000000078 .L4
     /tmp/cc9aO5g1.s:82     .text:0000000000000088 .L5
     /tmp/cc9aO5g1.s:552    .debug_abbrev:0000000000000000 .Ldebug_abbrev0
     /tmp/cc9aO5g1.s:1117   .debug_str:0000000000000143 .LASF38
     /tmp/cc9aO5g1.s:1123   .debug_str:0000000000000225 .LASF39
     /tmp/cc9aO5g1.s:1149   .debug_str:0000000000000324 .LASF40
     /tmp/cc9aO5g1.s:5      .text:0000000000000000 .Ltext0
     /tmp/cc9aO5g1.s:137    .text:00000000000000e0 .Letext0
     /tmp/cc9aO5g1.s:1075   .debug_line:0000000000000000 .Ldebug_line0
     /tmp/cc9aO5g1.s:1125   .debug_str:0000000000000232 .LASF0
     /tmp/cc9aO5g1.s:1113   .debug_str:0000000000000124 .LASF1
     /tmp/cc9aO5g1.s:1105   .debug_str:00000000000000e0 .LASF2
     /tmp/cc9aO5g1.s:1091   .debug_str:0000000000000051 .LASF4
     /tmp/cc9aO5g1.s:1111   .debug_str:0000000000000112 .LASF3
     /tmp/cc9aO5g1.s:1083   .debug_str:0000000000000028 .LASF5
     /tmp/cc9aO5g1.s:1077   .debug_str:0000000000000000 .LASF6
     /tmp/cc9aO5g1.s:1099   .debug_str:000000000000009d .LASF7
     /tmp/cc9aO5g1.s:1131   .debug_str:0000000000000256 .LASF8
     /tmp/cc9aO5g1.s:1089   .debug_str:0000000000000043 .LASF9
     /tmp/cc9aO5g1.s:1167   .debug_str:00000000000003cb .LASF10
     /tmp/cc9aO5g1.s:1101   .debug_str:00000000000000b0 .LASF11
     /tmp/cc9aO5g1.s:1159   .debug_str:00000000000003a7 .LASF12
     /tmp/cc9aO5g1.s:1139   .debug_str:0000000000000296 .LASF13
     /tmp/cc9aO5g1.s:1115   .debug_str:0000000000000137 .LASF14
     /tmp/cc9aO5g1.s:1095   .debug_str:0000000000000080 .LASF15
     /tmp/cc9aO5g1.s:1135   .debug_str:000000000000026e .LASF16
     /tmp/cc9aO5g1.s:1133   .debug_str:0000000000000266 .LASF41
     /tmp/cc9aO5g1.s:1085   .debug_str:000000000000002f .LASF17
     /tmp/cc9aO5g1.s:1163   .debug_str:00000000000003c1 .LASF18
     /tmp/cc9aO5g1.s:1081   .debug_str:0000000000000018 .LASF23
     /tmp/cc9aO5g1.s:1161   .debug_str:00000000000003b7 .LASF19
     /tmp/cc9aO5g1.s:1153   .debug_str:0000000000000370 .LASF21
     /tmp/cc9aO5g1.s:1141   .debug_str:00000000000002a6 .LASF20
     /tmp/cc9aO5g1.s:1103   .debug_str:00000000000000bf .LASF22
     /tmp/cc9aO5g1.s:1127   .debug_str:000000000000023f .LASF42
     /tmp/cc9aO5g1.s:1093   .debug_str:0000000000000058 .LASF43
     /tmp/cc9aO5g1.s:1121   .debug_str:000000000000020c .LASF24
     /tmp/cc9aO5g1.s:1157   .debug_str:000000000000039d .LASF25
     /tmp/cc9aO5g1.s:1151   .debug_str:0000000000000347 .LASF27
     /tmp/cc9aO5g1.s:1087   .debug_str:0000000000000034 .LASF26
     /tmp/cc9aO5g1.s:1145   .debug_str:00000000000002e2 .LASF28
     /tmp/cc9aO5g1.s:1147   .debug_str:0000000000000315 .LASF29
     /tmp/cc9aO5g1.s:1143   .debug_str:00000000000002af .LASF30
     /tmp/cc9aO5g1.s:1137   .debug_str:0000000000000284 .LASF31
     /tmp/cc9aO5g1.s:1107   .debug_str:00000000000000ee .LASF32
     /tmp/cc9aO5g1.s:1119   .debug_str:0000000000000207 .LASF44
     /tmp/cc9aO5g1.s:10     .text:0000000000000000 .LFB3
     /tmp/cc9aO5g1.s:135    .text:00000000000000e0 .LFE3
     /tmp/cc9aO5g1.s:1109   .debug_str:0000000000000100 .LASF33
     /tmp/cc9aO5g1.s:1155   .debug_str:0000000000000391 .LASF34
     /tmp/cc9aO5g1.s:991    .debug_loc:0000000000000000 .LLST0
     /tmp/cc9aO5g1.s:1006   .debug_loc:000000000000003a .LLST1
     /tmp/cc9aO5g1.s:1017   .debug_loc:0000000000000070 .LLST2
     /tmp/cc9aO5g1.s:1165   .debug_str:00000000000003c6 .LASF35
     /tmp/cc9aO5g1.s:1032   .debug_loc:00000000000000aa .LLST3
     /tmp/cc9aO5g1.s:1097   .debug_str:0000000000000096 .LASF36
GAS LISTING /tmp/cc9aO5g1.s 			page 7


     /tmp/cc9aO5g1.s:1051   .debug_loc:0000000000000106 .LLST4
     /tmp/cc9aO5g1.s:27     .text:000000000000001c .LVL0
     /tmp/cc9aO5g1.s:48     .text:0000000000000050 .LVL3
     /tmp/cc9aO5g1.s:60     .text:0000000000000064 .LVL6
     /tmp/cc9aO5g1.s:69     .text:0000000000000074 .LVL8
     /tmp/cc9aO5g1.s:78     .text:0000000000000084 .LVL10
     /tmp/cc9aO5g1.s:105    .text:00000000000000ac .LVL14
     /tmp/cc9aO5g1.s:114    .text:00000000000000bc .LVL17
     /tmp/cc9aO5g1.s:123    .text:00000000000000cc .LVL20
     /tmp/cc9aO5g1.s:132    .text:00000000000000dc .LVL23
     /tmp/cc9aO5g1.s:1079   .debug_str:0000000000000013 .LASF37
     /tmp/cc9aO5g1.s:1129   .debug_str:000000000000024f .LASF45
     /tmp/cc9aO5g1.s:42     .text:0000000000000044 .LVL1
     /tmp/cc9aO5g1.s:46     .text:0000000000000048 .LVL2
     /tmp/cc9aO5g1.s:50     .text:0000000000000054 .LVL4
     /tmp/cc9aO5g1.s:94     .text:0000000000000098 .LVL12
     /tmp/cc9aO5g1.s:98     .text:00000000000000a0 .LVL13
     /tmp/cc9aO5g1.s:55     .text:0000000000000058 .LVL5
     /tmp/cc9aO5g1.s:107    .text:00000000000000b0 .LVL15
     /tmp/cc9aO5g1.s:63     .text:0000000000000068 .LVL7
     /tmp/cc9aO5g1.s:81     .text:0000000000000088 .LVL11
     /tmp/cc9aO5g1.s:112    .text:00000000000000b4 .LVL16
     /tmp/cc9aO5g1.s:125    .text:00000000000000d0 .LVL21
     /tmp/cc9aO5g1.s:130    .text:00000000000000d4 .LVL22
     /tmp/cc9aO5g1.s:72     .text:0000000000000078 .LVL9
     /tmp/cc9aO5g1.s:116    .text:00000000000000c0 .LVL18
     /tmp/cc9aO5g1.s:121    .text:00000000000000c4 .LVL19
     /tmp/cc9aO5g1.s:142    .debug_info:0000000000000000 .Ldebug_info0

UNDEFINED SYMBOLS
_ZN15MemoryAllocator15initFreeSegmentEv
HEAP_END_ADDR
HEAP_START_ADDR
_ZN15MemoryAllocator9mem_allocEm
_ZN15MemoryAllocator8mem_freeEPv
__putc
