GAS LISTING /tmp/cc9aO5g1.s 			page 1


   1              		.file	"main.cpp"
   2              		.option pic
   3              		.option norelax
   4              		.text
   5              	.Ltext0:
   6              		.align	2
   7              		.globl	main
   9              	main:
  10              	.LFB3:
  11              		.file 1 "src/main.cpp"
   1:src/main.cpp  **** #include "../lib/hw.h"
   2:src/main.cpp  **** #include "../lib/console.h"
   3:src/main.cpp  **** #include "../h/MemoryAllocator.hpp"
   4:src/main.cpp  **** 
   5:src/main.cpp  **** int main() {
  12              		.loc 1 5 12
  13              		.cfi_startproc
  14 0000 130101FE 		addi	sp,sp,-32
  15              		.cfi_def_cfa_offset 32
  16 0004 233C1100 		sd	ra,24(sp)
  17 0008 23388100 		sd	s0,16(sp)
  18 000c 23349100 		sd	s1,8(sp)
  19              		.cfi_offset 1, -8
  20              		.cfi_offset 8, -16
  21              		.cfi_offset 9, -24
  22 0010 13040102 		addi	s0,sp,32
  23              		.cfi_def_cfa 8, 0
   6:src/main.cpp  ****     MemoryAllocator::initFreeSegment();
  24              		.loc 1 6 5
  25              		.loc 1 6 37 is_stmt 0
  26 0014 97000000 		call	_ZN15MemoryAllocator15initFreeSegmentEv@plt
  26      E7800000 
  27              	.LVL0:
   7:src/main.cpp  **** 
   8:src/main.cpp  ****     int velicinaZaglavlja = sizeof(Segment); // meni je ovoliko
  28              		.loc 1 8 5 is_stmt 1
   9:src/main.cpp  **** 
  10:src/main.cpp  ****     const size_t maxMemorija = (((size_t)HEAP_END_ADDR - (size_t)HEAP_START_ADDR - velicinaZaglavlj
  29              		.loc 1 10 5
  30              		.loc 1 10 56 is_stmt 0
  31 001c 97070000 		la	a5,HEAP_END_ADDR
  31      83B70700 
  32 0024 03B50700 		ld	a0,0(a5)
  33 0028 97070000 		la	a5,HEAP_START_ADDR
  33      83B70700 
  34 0030 83B70700 		ld	a5,0(a5)
  35 0034 3305F540 		sub	a0,a0,a5
  36              		.loc 1 10 82
  37 0038 130505FF 		addi	a0,a0,-16
  38              		.loc 1 10 102
  39 003c 13556500 		srli	a0,a0,6
  40              		.loc 1 10 118
  41 0040 1305F5FF 		addi	a0,a0,-1
  42              	.LVL1:
  11:src/main.cpp  ****     char* niz = (char*)MemoryAllocator::mem_alloc(maxMemorija); // celokupan prostor
  43              		.loc 1 11 5 is_stmt 1
  44              		.loc 1 11 50 is_stmt 0
GAS LISTING /tmp/cc9aO5g1.s 			page 2


  45 0044 13156500 		slli	a0,a0,6
  46              	.LVL2:
  47 0048 97000000 		call	_ZN15MemoryAllocator9mem_allocEm@plt
  47      E7800000 
  48              	.LVL3:
  49 0050 93040500 		mv	s1,a0
  50              	.LVL4:
  12:src/main.cpp  ****     if(niz == nullptr) {
  51              		.loc 1 12 5 is_stmt 1
  52 0054 63060504 		beqz	a0,.L7
  53              	.L2:
  13:src/main.cpp  ****         __putc('?');
  14:src/main.cpp  ****     }
  15:src/main.cpp  **** 
  16:src/main.cpp  ****     int n = 200;
  54              		.loc 1 16 5
  55              	.LVL5:
  17:src/main.cpp  ****     char* niz2 = (char*)MemoryAllocator::mem_alloc(n*sizeof(char));
  56              		.loc 1 17 5
  57              		.loc 1 17 51 is_stmt 0
  58 0058 1305800C 		li	a0,200
  59 005c 97000000 		call	_ZN15MemoryAllocator9mem_allocEm@plt
  59      E7800000 
  60              	.LVL6:
  18:src/main.cpp  ****     if(niz2 == nullptr) {
  61              		.loc 1 18 5 is_stmt 1
  62 0064 63060504 		beqz	a0,.L8
  63              	.LVL7:
  64              	.L3:
  19:src/main.cpp  ****         __putc('k');
  20:src/main.cpp  ****     }
  21:src/main.cpp  **** 
  22:src/main.cpp  ****     int status = MemoryAllocator::mem_free(niz);
  65              		.loc 1 22 5
  66              		.loc 1 22 43 is_stmt 0
  67 0068 13850400 		mv	a0,s1
  68 006c 97000000 		call	_ZN15MemoryAllocator8mem_freeEPv@plt
  68      E7800000 
  69              	.LVL8:
  23:src/main.cpp  ****     if(status) {
  70              		.loc 1 23 5 is_stmt 1
  71 0074 63160504 		bnez	a0,.L9
  72              	.LVL9:
  73              	.L4:
  24:src/main.cpp  ****         __putc('?');
  25:src/main.cpp  ****     }
  26:src/main.cpp  ****     niz2 = (char*)MemoryAllocator::mem_alloc(n*sizeof(char));
  74              		.loc 1 26 5
  75              		.loc 1 26 45 is_stmt 0
  76 0078 1305800C 		li	a0,200
  77 007c 97000000 		call	_ZN15MemoryAllocator9mem_allocEm@plt
  77      E7800000 
  78              	.LVL10:
  27:src/main.cpp  ****     if(niz2 == nullptr) {
  79              		.loc 1 27 5 is_stmt 1
  80 0084 63060504 		beqz	a0,.L10
  81              	.LVL11:
GAS LISTING /tmp/cc9aO5g1.s 			page 3


  82              	.L5:
  28:src/main.cpp  ****         __putc('?');
  29:src/main.cpp  ****     }
  30:src/main.cpp  **** 
  31:src/main.cpp  ****     return 0;
  83              		.loc 1 31 5
  32:src/main.cpp  **** }...
  84              		.loc 1 32 1 is_stmt 0
  85 0088 13050000 		li	a0,0
  86 008c 83308101 		ld	ra,24(sp)
  87              		.cfi_remember_state
  88              		.cfi_restore 1
  89 0090 03340101 		ld	s0,16(sp)
  90              		.cfi_restore 8
  91              		.cfi_def_cfa 2, 32
  92 0094 83348100 		ld	s1,8(sp)
  93              		.cfi_restore 9
  94              	.LVL12:
  95 0098 13010102 		addi	sp,sp,32
  96              		.cfi_def_cfa_offset 0
  97 009c 67800000 		jr	ra
  98              	.LVL13:
  99              	.L7:
 100              		.cfi_restore_state
  13:src/main.cpp  ****         __putc('?');
 101              		.loc 1 13 9 is_stmt 1
  13:src/main.cpp  ****         __putc('?');
 102              		.loc 1 13 15 is_stmt 0
 103 00a0 1305F003 		li	a0,63
 104 00a4 97000000 		call	__putc@plt
 104      E7800000 
 105              	.LVL14:
 106 00ac 6FF0DFFA 		j	.L2
 107              	.LVL15:
 108              	.L8:
  19:src/main.cpp  ****         __putc('k');
 109              		.loc 1 19 9 is_stmt 1
  19:src/main.cpp  ****         __putc('k');
 110              		.loc 1 19 15 is_stmt 0
 111 00b0 1305B006 		li	a0,107
 112              	.LVL16:
 113 00b4 97000000 		call	__putc@plt
 113      E7800000 
 114              	.LVL17:
 115 00bc 6FF0DFFA 		j	.L3
 116              	.LVL18:
 117              	.L9:
  24:src/main.cpp  ****         __putc('?');
 118              		.loc 1 24 9 is_stmt 1
  24:src/main.cpp  ****         __putc('?');
 119              		.loc 1 24 15 is_stmt 0
 120 00c0 1305F003 		li	a0,63
 121              	.LVL19:
 122 00c4 97000000 		call	__putc@plt
 122      E7800000 
 123              	.LVL20:
 124 00cc 6FF0DFFA 		j	.L4
GAS LISTING /tmp/cc9aO5g1.s 			page 4


 125              	.LVL21:
 126              	.L10:
  28:src/main.cpp  ****         __putc('?');
 127              		.loc 1 28 9 is_stmt 1
  28:src/main.cpp  ****         __putc('?');
 128              		.loc 1 28 15 is_stmt 0
 129 00d0 1305F003 		li	a0,63
 130              	.LVL22:
 131 00d4 97000000 		call	__putc@plt
 131      E7800000 
 132              	.LVL23:
 133 00dc 6FF0DFFA 		j	.L5
 134              		.cfi_endproc
 135              	.LFE3:
 137              	.Letext0:
 138              		.file 2 "src/../lib/hw.h"
 139              		.file 3 "src/../h/MemoryAllocator.hpp"
 140              		.file 4 "src/../lib/console.h"
GAS LISTING /tmp/cc9aO5g1.s 			page 5

