GAS LISTING /tmp/ccIpUWB3.s 			page 1


   1              		.file	"main.cpp"
   2              		.option pic
   3              		.option norelax
   4              		.text
   5              	.Ltext0:
   6              		.section	.rodata.str1.8,"aMS",@progbits,1
   7              		.align	3
   8              	.LC0:
   9 0000 50726F63 		.string	"Proces zavrsen\n"
   9      6573207A 
   9      61767273 
   9      656E0A00 
  10              		.text
  11              		.align	2
  12              		.globl	main
  14              	main:
  15              	.LFB54:
  16              		.file 1 "src/main.cpp"
   1:src/main.cpp  **** #include "../lib/hw.h"
   2:src/main.cpp  **** #include "../h/tcb.hpp"
   3:src/main.cpp  **** #include "../h/workers.hpp"
   4:src/main.cpp  **** #include "../h/printing.hpp"
   5:src/main.cpp  **** #include "../h/riscv.hpp"
   6:src/main.cpp  **** #include "../lib/console.h"
   7:src/main.cpp  **** 
   8:src/main.cpp  **** extern void userMain();
   9:src/main.cpp  **** 
  10:src/main.cpp  **** int main() {
  17              		.loc 1 10 12
  18              		.cfi_startproc
  19 0000 130101FD 		addi	sp,sp,-48
  20              		.cfi_def_cfa_offset 48
  21 0004 23341102 		sd	ra,40(sp)
  22 0008 23308102 		sd	s0,32(sp)
  23 000c 233C9100 		sd	s1,24(sp)
  24 0010 23382101 		sd	s2,16(sp)
  25              		.cfi_offset 1, -8
  26              		.cfi_offset 8, -16
  27              		.cfi_offset 9, -24
  28              		.cfi_offset 18, -32
  29 0014 13040103 		addi	s0,sp,48
  30              		.cfi_def_cfa 8, 0
  11:src/main.cpp  ****     MemoryAllocator::initFreeSegment();
  31              		.loc 1 11 5
  32              		.loc 1 11 37 is_stmt 0
  33 0018 97000000 		call	_ZN15MemoryAllocator15initFreeSegmentEv@plt
  33      E7800000 
  34              	.LVL0:
  12:src/main.cpp  **** 
  13:src/main.cpp  ****     Riscv::w_stvec((uint64) &Riscv::supervisorTrap);
  35              		.loc 1 13 5 is_stmt 1
  36              		.loc 1 13 19 is_stmt 0
  37 0020 97070000 		la	a5,_ZN5Riscv14supervisorTrapEv
  37      83B70700 
  38              	.LVL1:
  39              	.LBB14:
  40              	.LBB15:
GAS LISTING /tmp/ccIpUWB3.s 			page 2


  41              		.file 2 "src/../h/riscv.hpp"
   1:src/../h/riscv.hpp **** #ifndef RISCV_H
   2:src/../h/riscv.hpp **** #define RISCV_H
   3:src/../h/riscv.hpp **** 
   4:src/../h/riscv.hpp **** #include "../lib/hw.h"
   5:src/../h/riscv.hpp **** 
   6:src/../h/riscv.hpp **** class Riscv {
   7:src/../h/riscv.hpp **** public:
   8:src/../h/riscv.hpp ****     static int ERROR;
   9:src/../h/riscv.hpp **** 
  10:src/../h/riscv.hpp ****     // Stavljanje/skidanje registara x3,...,x31 na stek/sa steka
  11:src/../h/riscv.hpp ****     static void pushRegisters();
  12:src/../h/riscv.hpp ****     static void popRegisters();
  13:src/../h/riscv.hpp **** 
  14:src/../h/riscv.hpp ****     // Uzimanje vrednosti sstatus.spp i sstatus.spie bita (nije inline funkcija)
  15:src/../h/riscv.hpp ****     static void popSppSpie();
  16:src/../h/riscv.hpp **** 
  17:src/../h/riscv.hpp ****     // Citanje vrednosti registra scause
  18:src/../h/riscv.hpp ****     static uint64 r_scause();
  19:src/../h/riscv.hpp **** 
  20:src/../h/riscv.hpp ****     // Upisivanje u registar scause
  21:src/../h/riscv.hpp ****     static void w_scause(uint64 scause);
  22:src/../h/riscv.hpp **** 
  23:src/../h/riscv.hpp ****     // Citanje registra sepc
  24:src/../h/riscv.hpp ****     static uint64 r_sepc();
  25:src/../h/riscv.hpp **** 
  26:src/../h/riscv.hpp ****     // Upisivanje u registar sepc
  27:src/../h/riscv.hpp ****     static void w_sepc(uint64 sepc);
  28:src/../h/riscv.hpp **** 
  29:src/../h/riscv.hpp ****     // Citanje registra stvec
  30:src/../h/riscv.hpp ****     static uint64 r_stvec();
  31:src/../h/riscv.hpp **** 
  32:src/../h/riscv.hpp ****     // Upisivanje u registar stvec
  33:src/../h/riscv.hpp ****     static void w_stvec(uint64 stvec);
  34:src/../h/riscv.hpp **** 
  35:src/../h/riscv.hpp ****     // Citanje registra stval
  36:src/../h/riscv.hpp ****     static uint64 r_stval();
  37:src/../h/riscv.hpp **** 
  38:src/../h/riscv.hpp ****     // Upisivanje u registar stval
  39:src/../h/riscv.hpp ****     static void w_stval(uint64 stval);
  40:src/../h/riscv.hpp **** 
  41:src/../h/riscv.hpp ****     enum BitMaskSip {
  42:src/../h/riscv.hpp ****         SIP_SSIP = (1 << 1),
  43:src/../h/riscv.hpp ****         SIP_STIP = (1 << 5),
  44:src/../h/riscv.hpp ****         SIP_SEIP = (1 << 9)
  45:src/../h/riscv.hpp ****     };
  46:src/../h/riscv.hpp **** 
  47:src/../h/riscv.hpp ****     // Postavi masku za registar sip
  48:src/../h/riscv.hpp ****     static void ms_sip(uint64 mask);
  49:src/../h/riscv.hpp **** 
  50:src/../h/riscv.hpp ****     // Obrisi masku iz registra sip
  51:src/../h/riscv.hpp ****     static void mc_sip(uint64 mask);
  52:src/../h/riscv.hpp **** 
  53:src/../h/riscv.hpp ****     // Citanje registra sip
  54:src/../h/riscv.hpp ****     static uint64 r_sip();
  55:src/../h/riscv.hpp **** 
  56:src/../h/riscv.hpp ****     // Upisivanje u registar sip
GAS LISTING /tmp/ccIpUWB3.s 			page 3


  57:src/../h/riscv.hpp ****     static void w_sip(uint64 sip);
  58:src/../h/riscv.hpp **** 
  59:src/../h/riscv.hpp ****     enum BitMaskSstatus {
  60:src/../h/riscv.hpp ****         SSTATUS_SIE = (1 << 1),
  61:src/../h/riscv.hpp ****         SSTATUS_SPIE = (1 << 5),
  62:src/../h/riscv.hpp ****         SSTATUS_SPP = (1 << 8),
  63:src/../h/riscv.hpp ****     };
  64:src/../h/riscv.hpp **** 
  65:src/../h/riscv.hpp ****     // Postavi masku za registar sstatus
  66:src/../h/riscv.hpp ****     static void ms_sstatus(uint64 mask);
  67:src/../h/riscv.hpp **** 
  68:src/../h/riscv.hpp ****     // Obrisi masku iz registra sstatus
  69:src/../h/riscv.hpp ****     static void mc_sstatus(uint64 mask);
  70:src/../h/riscv.hpp **** 
  71:src/../h/riscv.hpp ****     // Citanje registra sstatus
  72:src/../h/riscv.hpp ****     static uint64 r_sstatus();
  73:src/../h/riscv.hpp **** 
  74:src/../h/riscv.hpp ****     // Upisivanje u registar sstatus
  75:src/../h/riscv.hpp ****     static void w_sstatus(uint64 sstatus);
  76:src/../h/riscv.hpp **** 
  77:src/../h/riscv.hpp ****     // Supervizorska prekidna rutina
  78:src/../h/riscv.hpp ****     static void supervisorTrap();
  79:src/../h/riscv.hpp **** 
  80:src/../h/riscv.hpp ****     // Citanje registra a0
  81:src/../h/riscv.hpp ****     static uint64 r_a0();
  82:src/../h/riscv.hpp **** 
  83:src/../h/riscv.hpp ****     // Upisivanje u registar a0
  84:src/../h/riscv.hpp ****     static void w_a0(uint64 value);
  85:src/../h/riscv.hpp **** 
  86:src/../h/riscv.hpp ****     static void exitEmulator();
  87:src/../h/riscv.hpp **** 
  88:src/../h/riscv.hpp **** private:
  89:src/../h/riscv.hpp ****     // Rukovalac prekidnom rutinom
  90:src/../h/riscv.hpp ****     static void handleSupervisorTrap();
  91:src/../h/riscv.hpp **** };
  92:src/../h/riscv.hpp **** 
  93:src/../h/riscv.hpp **** inline uint64 Riscv::r_scause() {
  94:src/../h/riscv.hpp ****     uint64 volatile scause;
  95:src/../h/riscv.hpp ****     __asm__ volatile("csrr %0, scause" : "=r"(scause));
  96:src/../h/riscv.hpp ****     return scause;
  97:src/../h/riscv.hpp **** }
  98:src/../h/riscv.hpp **** 
  99:src/../h/riscv.hpp **** inline void Riscv::w_scause(uint64 scause) {
 100:src/../h/riscv.hpp ****     __asm__ volatile("csrw scause, %0" : : "r"(scause));
 101:src/../h/riscv.hpp **** }
 102:src/../h/riscv.hpp **** 
 103:src/../h/riscv.hpp **** inline uint64 Riscv::r_sepc() {
 104:src/../h/riscv.hpp ****     uint64 volatile sepc;
 105:src/../h/riscv.hpp ****     __asm__ volatile("csrr %0, sepc" : "=r"(sepc));
 106:src/../h/riscv.hpp ****     return sepc;
 107:src/../h/riscv.hpp **** }
 108:src/../h/riscv.hpp **** 
 109:src/../h/riscv.hpp **** inline void Riscv::w_sepc(uint64 sepc) {
 110:src/../h/riscv.hpp ****     __asm__ volatile("csrw sepc, %0" : : "r"(sepc));
 111:src/../h/riscv.hpp **** }
 112:src/../h/riscv.hpp **** 
 113:src/../h/riscv.hpp **** inline uint64 Riscv::r_stvec() {
GAS LISTING /tmp/ccIpUWB3.s 			page 4


 114:src/../h/riscv.hpp ****     uint64 volatile stvec;
 115:src/../h/riscv.hpp ****     __asm__ volatile("csrr %0, stvec" : "=r"(stvec));
 116:src/../h/riscv.hpp ****     return stvec;
 117:src/../h/riscv.hpp **** }
 118:src/../h/riscv.hpp **** 
 119:src/../h/riscv.hpp **** inline void Riscv::w_stvec(uint64 stvec) {
 120:src/../h/riscv.hpp ****     __asm__ volatile("csrw stvec, %0" : : "r"(stvec));
  42              		.loc 2 120 5 is_stmt 1
  43              		.loc 2 120 54 is_stmt 0
  44              	#APP
  45              	# 120 "src/../h/riscv.hpp" 1
 121              	}
  46              		csrw stvec, a5
  47              	# 0 "" 2
  48              	.LVL2:
  49              	#NO_APP
  50              	.LBE15:
  51              	.LBE14:
  14:src/main.cpp  ****     Riscv::ms_sstatus(Riscv::SSTATUS_SIE);
  52              		.loc 1 14 5 is_stmt 1
  53              	.LBB16:
  54              	.LBB17:
 122:src/../h/riscv.hpp **** 
 123:src/../h/riscv.hpp **** inline uint64 Riscv::r_stval() {
 124:src/../h/riscv.hpp ****     uint64 volatile stval;
 125:src/../h/riscv.hpp ****     __asm__ volatile("csrr %0, stval" : "=r"(stval));
 126:src/../h/riscv.hpp ****     return stval;
 127:src/../h/riscv.hpp **** }
 128:src/../h/riscv.hpp **** 
 129:src/../h/riscv.hpp **** inline void Riscv::w_stval(uint64 stval) {
 130:src/../h/riscv.hpp ****     __asm__ volatile("csrw stval, %0" : : "r"(stval));
 131:src/../h/riscv.hpp **** }
 132:src/../h/riscv.hpp **** 
 133:src/../h/riscv.hpp **** inline void Riscv::ms_sip(uint64 mask) {
 134:src/../h/riscv.hpp ****     __asm__ volatile("csrs sip, %0" : : "r"(mask));
 135:src/../h/riscv.hpp **** }
 136:src/../h/riscv.hpp **** 
 137:src/../h/riscv.hpp **** inline void Riscv::mc_sip(uint64 mask) {
 138:src/../h/riscv.hpp ****     __asm__ volatile("csrc sip, %0" : : "r"(mask));
 139:src/../h/riscv.hpp **** }
 140:src/../h/riscv.hpp **** 
 141:src/../h/riscv.hpp **** inline uint64 Riscv::r_sip() {
 142:src/../h/riscv.hpp ****     uint64 volatile sip;
 143:src/../h/riscv.hpp ****     __asm__ volatile("csrr %0, sip" : "=r"(sip));
 144:src/../h/riscv.hpp ****     return sip;
 145:src/../h/riscv.hpp **** }
 146:src/../h/riscv.hpp **** 
 147:src/../h/riscv.hpp **** inline void Riscv::w_sip(uint64 sip) {
 148:src/../h/riscv.hpp ****     __asm__ volatile("csrc sip, %0" : : "r"(sip));
 149:src/../h/riscv.hpp **** }
 150:src/../h/riscv.hpp **** 
 151:src/../h/riscv.hpp **** inline void Riscv::ms_sstatus(uint64 mask) {
 152:src/../h/riscv.hpp ****     __asm__ volatile("csrs sstatus, %0" : : "r"(mask));
  55              		.loc 2 152 5
  56              		.loc 2 152 55 is_stmt 0
  57 002c 93072000 		li	a5,2
  58              	#APP
GAS LISTING /tmp/ccIpUWB3.s 			page 5


  59              	# 152 "src/../h/riscv.hpp" 1
 153              	}
  60              		csrs sstatus, a5
  61              	# 0 "" 2
  62              	.LVL3:
  63              	#NO_APP
  64              	.LBE17:
  65              	.LBE16:
  15:src/main.cpp  **** 
  16:src/main.cpp  ****     thread_t threads[2];
  66              		.loc 1 16 5 is_stmt 1
  17:src/main.cpp  ****     threads[0] = TCB::createThread(nullptr, nullptr);
  67              		.loc 1 17 5
  68              		.loc 1 17 35 is_stmt 0
  69 0034 93050000 		li	a1,0
  70 0038 13050000 		li	a0,0
  71 003c 97000000 		call	_ZN3TCB12createThreadEPFvPvES0_@plt
  71      E7800000 
  72              	.LVL4:
  73              		.loc 1 17 16
  74 0044 2338A4FC 		sd	a0,-48(s0)
  18:src/main.cpp  ****     TCB::running = threads[0];
  75              		.loc 1 18 5 is_stmt 1
  76              		.loc 1 18 18 is_stmt 0
  77 0048 97070000 		la	a5,_ZN3TCB7runningE
  77      83B70700 
  78 0050 23B0A700 		sd	a0,0(a5)
  19:src/main.cpp  ****     thread_create(&threads[1], reinterpret_cast<void (*) (void *)>(userMain), nullptr);
  79              		.loc 1 19 5 is_stmt 1
  80              		.loc 1 19 18 is_stmt 0
  81 0054 13060000 		li	a2,0
  82 0058 97050000 		la	a1,_Z8userMainv
  82      83B50500 
  83 0060 130584FD 		addi	a0,s0,-40
  84 0064 97000000 		call	_Z13thread_createPP3TCBPFvPvES2_@plt
  84      E7800000 
  85              	.LVL5:
  86              	.L3:
  20:src/main.cpp  **** 
  21:src/main.cpp  ****     while(!(threads[1]->isFinished())) thread_dispatch();
  87              		.loc 1 21 5 is_stmt 1
  88              		.loc 1 21 11
  89              		.loc 1 21 22 is_stmt 0
  90 006c 833784FD 		ld	a5,-40(s0)
  91              	.LVL6:
  92              	.LBB18:
  93              	.LBB19:
  94              		.file 3 "src/../h/tcb.hpp"
   1:src/../h/tcb.hpp **** #ifndef TCB_H
   2:src/../h/tcb.hpp **** #define TCB_H
   3:src/../h/tcb.hpp **** 
   4:src/../h/tcb.hpp **** #include "riscv.hpp"
   5:src/../h/tcb.hpp **** #include "../lib/hw.h"
   6:src/../h/tcb.hpp **** #include "../h/scheduler.hpp"
   7:src/../h/tcb.hpp **** #include "../h/mySemaphore.hpp"
   8:src/../h/tcb.hpp **** 
   9:src/../h/tcb.hpp **** class TCB {
GAS LISTING /tmp/ccIpUWB3.s 			page 6


  10:src/../h/tcb.hpp **** public:
  11:src/../h/tcb.hpp ****     ~TCB(){ delete[] stack; }
  12:src/../h/tcb.hpp **** 
  13:src/../h/tcb.hpp ****     bool isFinished() const { return finished; }
  95              		.loc 3 13 31 is_stmt 1
  96              		.loc 3 13 38 is_stmt 0
  97 0070 83C71704 		lbu	a5,65(a5)
  98              	.LVL7:
  99              	.LBE19:
 100              	.LBE18:
 101              		.loc 1 21 11
 102 0074 63980700 		bnez	a5,.L7
 103              		.loc 1 21 40 is_stmt 1 discriminator 1
 104              		.loc 1 21 55 is_stmt 0 discriminator 1
 105 0078 97000000 		call	_Z15thread_dispatchv@plt
 105      E7800000 
 106              	.LVL8:
 107 0080 6FF0DFFE 		j	.L3
 108              	.L7:
 109              	.LBB20:
  22:src/main.cpp  **** 
  23:src/main.cpp  ****     for(auto &thread : threads) {
 110              		.loc 1 23 24
 111 0084 930404FD 		addi	s1,s0,-48
 112 0088 6F004001 		j	.L2
 113              	.LVL9:
 114              	.L6:
  24:src/main.cpp  ****         delete thread;
 115              		.loc 1 24 16
 116 008c 13050900 		mv	a0,s2
 117 0090 97000000 		call	_ZdlPv@plt
 117      E7800000 
 118              	.LVL10:
 119              	.L5:
  23:src/main.cpp  ****         delete thread;
 120              		.loc 1 23 5 is_stmt 1 discriminator 3
 121 0098 93848400 		addi	s1,s1,8
 122              	.LVL11:
 123              	.L2:
  23:src/main.cpp  ****         delete thread;
 124              		.loc 1 23 24 discriminator 1
 125 009c 930704FE 		addi	a5,s0,-32
 126 00a0 6380F402 		beq	s1,a5,.L4
 127              	.LVL12:
 128              		.loc 1 24 9 discriminator 2
 129              		.loc 1 24 16 is_stmt 0 discriminator 2
 130 00a4 03B90400 		ld	s2,0(s1)
 131              		.loc 1 24 22 discriminator 2
 132 00a8 E30809FE 		beqz	s2,.L5
 133              	.LVL13:
 134              	.LBB21:
 135              	.LBB22:
  11:src/../h/tcb.hpp **** 
 136              		.loc 3 11 13 is_stmt 1
  11:src/../h/tcb.hpp **** 
 137              		.loc 3 11 22 is_stmt 0
 138 00ac 03350901 		ld	a0,16(s2)
GAS LISTING /tmp/ccIpUWB3.s 			page 7


  11:src/../h/tcb.hpp **** 
 139              		.loc 3 11 27
 140 00b0 E30E05FC 		beqz	a0,.L6
  11:src/../h/tcb.hpp **** 
 141              		.loc 3 11 22
 142 00b4 97000000 		call	_ZdaPv@plt
 142      E7800000 
 143              	.LVL14:
 144 00bc 6FF01FFD 		j	.L6
 145              	.LVL15:
 146              	.L4:
 147              	.LBE22:
 148              	.LBE21:
 149              	.LBE20:
  25:src/main.cpp  ****     }
  26:src/main.cpp  **** 
  27:src/main.cpp  ****     Scheduler::deleteThreadQueue();
 150              		.loc 1 27 5 is_stmt 1
 151              		.loc 1 27 33 is_stmt 0
 152 00c0 97000000 		call	_ZN9Scheduler17deleteThreadQueueEv@plt
 152      E7800000 
 153              	.LVL16:
  28:src/main.cpp  **** 
  29:src/main.cpp  ****     printString("Proces zavrsen\n");
 154              		.loc 1 29 5 is_stmt 1
 155              		.loc 1 29 16 is_stmt 0
 156 00c8 17050000 		lla	a0,.LC0
 156      13050500 
 157 00d0 97000000 		call	_Z11printStringPKc@plt
 157      E7800000 
 158              	.LVL17:
  30:src/main.cpp  **** 
  31:src/main.cpp  ****     Riscv::exitEmulator();
 159              		.loc 1 31 5 is_stmt 1
 160              	.LBB23:
 161              	.LBB24:
 154:src/../h/riscv.hpp **** 
 155:src/../h/riscv.hpp **** inline void Riscv::mc_sstatus(uint64 mask) {
 156:src/../h/riscv.hpp ****     __asm__ volatile("csrc sstatus, %0" : : "r"(mask));
 157:src/../h/riscv.hpp **** }
 158:src/../h/riscv.hpp **** 
 159:src/../h/riscv.hpp **** inline uint64 Riscv::r_sstatus() {
 160:src/../h/riscv.hpp ****     uint64 volatile sstatus;
 161:src/../h/riscv.hpp ****     __asm__ volatile("csrr %0, sstatus" : "=r"(sstatus));
 162:src/../h/riscv.hpp ****     return sstatus;
 163:src/../h/riscv.hpp **** }
 164:src/../h/riscv.hpp **** 
 165:src/../h/riscv.hpp **** inline void Riscv::w_sstatus(uint64 sstatus) {
 166:src/../h/riscv.hpp ****     __asm__ volatile("csrc sstatus, %0" : : "r"(sstatus));
 167:src/../h/riscv.hpp **** }
 168:src/../h/riscv.hpp **** 
 169:src/../h/riscv.hpp **** inline uint64 Riscv::r_a0() {
 170:src/../h/riscv.hpp ****     uint64 volatile a0;
 171:src/../h/riscv.hpp ****     __asm__ volatile("mv %0, a0" : "=r"(a0));
 172:src/../h/riscv.hpp ****     return a0;
 173:src/../h/riscv.hpp **** }
 174:src/../h/riscv.hpp **** 
GAS LISTING /tmp/ccIpUWB3.s 			page 8


 175:src/../h/riscv.hpp **** inline void Riscv::w_a0(uint64 value) {
 176:src/../h/riscv.hpp ****     __asm__ volatile("mv a0, %0" : : "r"(value));
 177:src/../h/riscv.hpp **** }
 178:src/../h/riscv.hpp **** 
 179:src/../h/riscv.hpp **** inline void Riscv::exitEmulator() {
 180:src/../h/riscv.hpp ****     __asm__ volatile("li t0, 0x5555");
 162              		.loc 2 180 5
 163              		.loc 2 180 38 is_stmt 0
 164              	#APP
 165              	# 180 "src/../h/riscv.hpp" 1
 181              	    __asm__ volatile("li t1, 0x100000");
 166              		li t0, 0x5555
 167              	# 0 "" 2
 168              		.loc 2 181 5 is_stmt 1
 169              		.loc 2 181 40 is_stmt 0
 170              	# 181 "src/../h/riscv.hpp" 1
 182              	    __asm__ volatile("sw t0, 0(t1)");
 171              		li t1, 0x100000
 172              	# 0 "" 2
 173              		.loc 2 182 5 is_stmt 1
 174              		.loc 2 182 37 is_stmt 0
 175              	# 182 "src/../h/riscv.hpp" 1
 183              	}
 176              		sw t0, 0(t1)
 177              	# 0 "" 2
 178              	#NO_APP
 179              	.LBE24:
 180              	.LBE23:
  32:src/main.cpp  **** 
  33:src/main.cpp  ****     return 0;
 181              		.loc 1 33 5 is_stmt 1
  34:src/main.cpp  **** }...
 182              		.loc 1 34 1 is_stmt 0
 183 00e8 13050000 		li	a0,0
 184 00ec 83308102 		ld	ra,40(sp)
 185              		.cfi_restore 1
 186 00f0 03340102 		ld	s0,32(sp)
 187              		.cfi_restore 8
 188              		.cfi_def_cfa 2, 48
 189 00f4 83348101 		ld	s1,24(sp)
 190              		.cfi_restore 9
 191              	.LVL18:
 192 00f8 03390101 		ld	s2,16(sp)
 193              		.cfi_restore 18
 194 00fc 13010103 		addi	sp,sp,48
 195              		.cfi_def_cfa_offset 0
 196 0100 67800000 		jr	ra
 197              		.cfi_endproc
 198              	.LFE54:
 200              	.Letext0:
 201              		.file 4 "src/../lib/hw.h"
 202              		.file 5 "src/../h/../h/MemoryAllocator.hpp"
 203              		.file 6 "src/../h/../h/scheduler.hpp"
 204              		.file 7 "src/../h/../h/list.hpp"
 205              		.file 8 "src/../h/syscall_c.hpp"
 206              		.file 9 "src/../h/printing.hpp"
GAS LISTING /tmp/ccIpUWB3.s 			page 9


DEFINED SYMBOLS
                            *ABS*:0000000000000000 main.cpp
     /tmp/ccIpUWB3.s:14     .text:0000000000000000 main
     /tmp/ccIpUWB3.s:18     .text:0000000000000000 .L0 
     /tmp/ccIpUWB3.s:19     .text:0000000000000000 .L0 
     /tmp/ccIpUWB3.s:20     .text:0000000000000004 .L0 
     /tmp/ccIpUWB3.s:25     .text:0000000000000014 .L0 
     /tmp/ccIpUWB3.s:26     .text:0000000000000014 .L0 
     /tmp/ccIpUWB3.s:27     .text:0000000000000014 .L0 
     /tmp/ccIpUWB3.s:28     .text:0000000000000014 .L0 
     /tmp/ccIpUWB3.s:30     .text:0000000000000018 .L0 
     /tmp/ccIpUWB3.s:32     .text:0000000000000018 .L0 
     /tmp/ccIpUWB3.s:33     .text:0000000000000018 .L0 
     /tmp/ccIpUWB3.s:36     .text:0000000000000020 .L0 
     /tmp/ccIpUWB3.s:37     .text:0000000000000020 .L0 
     /tmp/ccIpUWB3.s:43     .text:0000000000000028 .L0 
  src/../h/riscv.hpp:120    .text:0000000000000028 .L0 
     /tmp/ccIpUWB3.s:55     .text:000000000000002c .L0 
     /tmp/ccIpUWB3.s:56     .text:000000000000002c .L0 
     /tmp/ccIpUWB3.s:57     .text:000000000000002c .L0 
     /tmp/ccIpUWB3.s:67     .text:0000000000000034 .L0 
     /tmp/ccIpUWB3.s:68     .text:0000000000000034 .L0 
     /tmp/ccIpUWB3.s:69     .text:0000000000000034 .L0 
     /tmp/ccIpUWB3.s:74     .text:0000000000000044 .L0 
     /tmp/ccIpUWB3.s:76     .text:0000000000000048 .L0 
     /tmp/ccIpUWB3.s:77     .text:0000000000000048 .L0 
     /tmp/ccIpUWB3.s:80     .text:0000000000000054 .L0 
     /tmp/ccIpUWB3.s:81     .text:0000000000000054 .L0 
     /tmp/ccIpUWB3.s:88     .text:000000000000006c .L0 
     /tmp/ccIpUWB3.s:89     .text:000000000000006c .L0 
     /tmp/ccIpUWB3.s:90     .text:000000000000006c .L0 
     /tmp/ccIpUWB3.s:96     .text:0000000000000070 .L0 
     /tmp/ccIpUWB3.s:97     .text:0000000000000070 .L0 
     /tmp/ccIpUWB3.s:102    .text:0000000000000074 .L0 
     /tmp/ccIpUWB3.s:104    .text:0000000000000078 .L0 
     /tmp/ccIpUWB3.s:105    .text:0000000000000078 .L0 
     /tmp/ccIpUWB3.s:111    .text:0000000000000084 .L0 
     /tmp/ccIpUWB3.s:116    .text:000000000000008c .L0 
     /tmp/ccIpUWB3.s:121    .text:0000000000000098 .L0 
     /tmp/ccIpUWB3.s:125    .text:000000000000009c .L0 
     /tmp/ccIpUWB3.s:129    .text:00000000000000a4 .L0 
     /tmp/ccIpUWB3.s:130    .text:00000000000000a4 .L0 
     /tmp/ccIpUWB3.s:132    .text:00000000000000a8 .L0 
     /tmp/ccIpUWB3.s:137    .text:00000000000000ac .L0 
     /tmp/ccIpUWB3.s:138    .text:00000000000000ac .L0 
     /tmp/ccIpUWB3.s:140    .text:00000000000000b0 .L0 
     /tmp/ccIpUWB3.s:142    .text:00000000000000b4 .L0 
     /tmp/ccIpUWB3.s:151    .text:00000000000000c0 .L0 
     /tmp/ccIpUWB3.s:152    .text:00000000000000c0 .L0 
     /tmp/ccIpUWB3.s:155    .text:00000000000000c8 .L0 
     /tmp/ccIpUWB3.s:156    .text:00000000000000c8 .L0 
     /tmp/ccIpUWB3.s:162    .text:00000000000000d8 .L0 
     /tmp/ccIpUWB3.s:163    .text:00000000000000d8 .L0 
  src/../h/riscv.hpp:180    .text:00000000000000d8 .L0 
     /tmp/ccIpUWB3.s:169    .text:00000000000000e0 .L0 
  src/../h/riscv.hpp:181    .text:00000000000000e0 .L0 
     /tmp/ccIpUWB3.s:174    .text:00000000000000e4 .L0 
GAS LISTING /tmp/ccIpUWB3.s 			page 10


  src/../h/riscv.hpp:182    .text:00000000000000e4 .L0 
     /tmp/ccIpUWB3.s:182    .text:00000000000000e8 .L0 
     /tmp/ccIpUWB3.s:183    .text:00000000000000e8 .L0 
     /tmp/ccIpUWB3.s:185    .text:00000000000000f0 .L0 
     /tmp/ccIpUWB3.s:187    .text:00000000000000f4 .L0 
     /tmp/ccIpUWB3.s:188    .text:00000000000000f4 .L0 
     /tmp/ccIpUWB3.s:190    .text:00000000000000f8 .L0 
     /tmp/ccIpUWB3.s:193    .text:00000000000000fc .L0 
     /tmp/ccIpUWB3.s:195    .text:0000000000000100 .L0 
     /tmp/ccIpUWB3.s:197    .text:0000000000000104 .L0 
     /tmp/ccIpUWB3.s:207    .text:0000000000000104 .L0 
     /tmp/ccIpUWB3.s:37     .text:0000000000000020 .L0 
     /tmp/ccIpUWB3.s:77     .text:0000000000000048 .L0 
     /tmp/ccIpUWB3.s:82     .text:0000000000000058 .L0 
     /tmp/ccIpUWB3.s:8      .rodata.str1.8:0000000000000000 .LC0
     /tmp/ccIpUWB3.s:156    .text:00000000000000c8 .L0 
     /tmp/ccIpUWB3.s:108    .text:0000000000000084 .L7
     /tmp/ccIpUWB3.s:86     .text:000000000000006c .L3
     /tmp/ccIpUWB3.s:123    .text:000000000000009c .L2
     /tmp/ccIpUWB3.s:146    .text:00000000000000c0 .L4
     /tmp/ccIpUWB3.s:119    .text:0000000000000098 .L5
     /tmp/ccIpUWB3.s:114    .text:000000000000008c .L6
     /tmp/ccIpUWB3.s:1589   .debug_abbrev:0000000000000000 .Ldebug_abbrev0
     /tmp/ccIpUWB3.s:2970   .debug_str:00000000000009a7 .LASF178
     /tmp/ccIpUWB3.s:2750   .debug_str:0000000000000325 .LASF179
     /tmp/ccIpUWB3.s:2742   .debug_str:00000000000002c9 .LASF180
     /tmp/ccIpUWB3.s:5      .text:0000000000000000 .Ltext0
     /tmp/ccIpUWB3.s:200    .text:0000000000000104 .Letext0
     /tmp/ccIpUWB3.s:2658   .debug_line:0000000000000000 .Ldebug_line0
     /tmp/ccIpUWB3.s:2778   .debug_str:0000000000000423 .LASF0
     /tmp/ccIpUWB3.s:2806   .debug_str:00000000000004f7 .LASF1
     /tmp/ccIpUWB3.s:2912   .debug_str:000000000000080c .LASF2
     /tmp/ccIpUWB3.s:2920   .debug_str:000000000000086f .LASF4
     /tmp/ccIpUWB3.s:2788   .debug_str:0000000000000461 .LASF3
     /tmp/ccIpUWB3.s:2674   .debug_str:0000000000000078 .LASF5
     /tmp/ccIpUWB3.s:2878   .debug_str:00000000000006f8 .LASF6
     /tmp/ccIpUWB3.s:2796   .debug_str:00000000000004b7 .LASF7
     /tmp/ccIpUWB3.s:2758   .debug_str:0000000000000346 .LASF8
     /tmp/ccIpUWB3.s:2764   .debug_str:0000000000000393 .LASF9
     /tmp/ccIpUWB3.s:2698   .debug_str:000000000000014d .LASF10
     /tmp/ccIpUWB3.s:2748   .debug_str:0000000000000316 .LASF11
     /tmp/ccIpUWB3.s:2714   .debug_str:00000000000001e7 .LASF12
     /tmp/ccIpUWB3.s:2696   .debug_str:000000000000013d .LASF13
     /tmp/ccIpUWB3.s:2952   .debug_str:0000000000000936 .LASF14
     /tmp/ccIpUWB3.s:2732   .debug_str:0000000000000265 .LASF15
     /tmp/ccIpUWB3.s:2940   .debug_str:00000000000008e4 .LASF16
     /tmp/ccIpUWB3.s:3010   .debug_str:0000000000000baa .LASF68
     /tmp/ccIpUWB3.s:3000   .debug_str:0000000000000b65 .LASF181
     /tmp/ccIpUWB3.s:2822   .debug_str:0000000000000554 .LASF17
     /tmp/ccIpUWB3.s:2968   .debug_str:000000000000099a .LASF18
     /tmp/ccIpUWB3.s:2720   .debug_str:000000000000020c .LASF19
     /tmp/ccIpUWB3.s:2856   .debug_str:000000000000065e .LASF86
     /tmp/ccIpUWB3.s:2928   .debug_str:0000000000000895 .LASF20
     /tmp/ccIpUWB3.s:2740   .debug_str:00000000000002ae .LASF22
     /tmp/ccIpUWB3.s:2780   .debug_str:0000000000000430 .LASF21
     /tmp/ccIpUWB3.s:3022   .debug_str:0000000000000be1 .LASF23
     /tmp/ccIpUWB3.s:2768   .debug_str:00000000000003c9 .LASF24
GAS LISTING /tmp/ccIpUWB3.s 			page 11


     /tmp/ccIpUWB3.s:2776   .debug_str:000000000000040b .LASF25
     /tmp/ccIpUWB3.s:2990   .debug_str:0000000000000b03 .LASF26
     /tmp/ccIpUWB3.s:2984   .debug_str:0000000000000ac8 .LASF28
     /tmp/ccIpUWB3.s:2908   .debug_str:00000000000007f8 .LASF30
     /tmp/ccIpUWB3.s:2862   .debug_str:000000000000067f .LASF32
     /tmp/ccIpUWB3.s:2890   .debug_str:0000000000000778 .LASF27
     /tmp/ccIpUWB3.s:2892   .debug_str:000000000000077f .LASF29
     /tmp/ccIpUWB3.s:2854   .debug_str:0000000000000657 .LASF31
     /tmp/ccIpUWB3.s:2798   .debug_str:00000000000004ca .LASF33
     /tmp/ccIpUWB3.s:3026   .debug_str:0000000000000c05 .LASF34
     /tmp/ccIpUWB3.s:2976   .debug_str:0000000000000a84 .LASF35
     /tmp/ccIpUWB3.s:2848   .debug_str:0000000000000621 .LASF36
     /tmp/ccIpUWB3.s:2860   .debug_str:000000000000066b .LASF37
     /tmp/ccIpUWB3.s:2814   .debug_str:0000000000000536 .LASF38
     /tmp/ccIpUWB3.s:2894   .debug_str:0000000000000792 .LASF39
     /tmp/ccIpUWB3.s:3040   .debug_str:0000000000000c88 .LASF40
     /tmp/ccIpUWB3.s:2784   .debug_str:0000000000000443 .LASF41
     /tmp/ccIpUWB3.s:2948   .debug_str:000000000000091e .LASF42
     /tmp/ccIpUWB3.s:2924   .debug_str:000000000000087b .LASF43
     /tmp/ccIpUWB3.s:2926   .debug_str:000000000000088e .LASF44
     /tmp/ccIpUWB3.s:2702   .debug_str:0000000000000161 .LASF45
     /tmp/ccIpUWB3.s:2728   .debug_str:0000000000000245 .LASF46
     /tmp/ccIpUWB3.s:2772   .debug_str:00000000000003ec .LASF47
     /tmp/ccIpUWB3.s:2782   .debug_str:000000000000043d .LASF48
     /tmp/ccIpUWB3.s:2722   .debug_str:0000000000000218 .LASF49
     /tmp/ccIpUWB3.s:2676   .debug_str:000000000000007f .LASF50
     /tmp/ccIpUWB3.s:2916   .debug_str:0000000000000824 .LASF51
     /tmp/ccIpUWB3.s:2910   .debug_str:0000000000000801 .LASF52
     /tmp/ccIpUWB3.s:3038   .debug_str:0000000000000c70 .LASF53
     /tmp/ccIpUWB3.s:3012   .debug_str:0000000000000bb0 .LASF54
     /tmp/ccIpUWB3.s:3028   .debug_str:0000000000000c0d .LASF55
     /tmp/ccIpUWB3.s:3006   .debug_str:0000000000000b82 .LASF56
     /tmp/ccIpUWB3.s:2834   .debug_str:000000000000059c .LASF57
     /tmp/ccIpUWB3.s:2988   .debug_str:0000000000000af4 .LASF58
     /tmp/ccIpUWB3.s:2762   .debug_str:0000000000000377 .LASF59
     /tmp/ccIpUWB3.s:3018   .debug_str:0000000000000bca .LASF60
     /tmp/ccIpUWB3.s:2868   .debug_str:00000000000006a0 .LASF61
     /tmp/ccIpUWB3.s:2790   .debug_str:0000000000000473 .LASF62
     /tmp/ccIpUWB3.s:2950   .debug_str:0000000000000925 .LASF63
     /tmp/ccIpUWB3.s:2670   .debug_str:0000000000000061 .LASF64
     /tmp/ccIpUWB3.s:2730   .debug_str:000000000000024b .LASF65
     /tmp/ccIpUWB3.s:2882   .debug_str:0000000000000715 .LASF150
     /tmp/ccIpUWB3.s:2792   .debug_str:0000000000000478 .LASF152
     /tmp/ccIpUWB3.s:2738   .debug_str:00000000000002a6 .LASF108
     /tmp/ccIpUWB3.s:2700   .debug_str:000000000000015c .LASF66
     /tmp/ccIpUWB3.s:2804   .debug_str:00000000000004f2 .LASF67
     /tmp/ccIpUWB3.s:2872   .debug_str:00000000000006d4 .LASF69
     /tmp/ccIpUWB3.s:2836   .debug_str:00000000000005b2 .LASF70
     /tmp/ccIpUWB3.s:2678   .debug_str:000000000000008a .LASF72
     /tmp/ccIpUWB3.s:2954   .debug_str:0000000000000942 .LASF71
     /tmp/ccIpUWB3.s:2838   .debug_str:00000000000005bc .LASF73
     /tmp/ccIpUWB3.s:2682   .debug_str:00000000000000c0 .LASF74
     /tmp/ccIpUWB3.s:2766   .debug_str:00000000000003a1 .LASF75
     /tmp/ccIpUWB3.s:2684   .debug_str:00000000000000d0 .LASF76
     /tmp/ccIpUWB3.s:2786   .debug_str:0000000000000457 .LASF77
     /tmp/ccIpUWB3.s:2852   .debug_str:000000000000062e .LASF78
     /tmp/ccIpUWB3.s:2736   .debug_str:0000000000000297 .LASF79
GAS LISTING /tmp/ccIpUWB3.s 			page 12


     /tmp/ccIpUWB3.s:2884   .debug_str:000000000000072a .LASF80
     /tmp/ccIpUWB3.s:2824   .debug_str:0000000000000560 .LASF81
     /tmp/ccIpUWB3.s:2918   .debug_str:000000000000083c .LASF82
     /tmp/ccIpUWB3.s:2726   .debug_str:0000000000000233 .LASF83
     /tmp/ccIpUWB3.s:2842   .debug_str:00000000000005e2 .LASF84
     /tmp/ccIpUWB3.s:2756   .debug_str:000000000000033c .LASF85
     /tmp/ccIpUWB3.s:2936   .debug_str:00000000000008ca .LASF87
     /tmp/ccIpUWB3.s:2992   .debug_str:0000000000000b0c .LASF88
     /tmp/ccIpUWB3.s:2870   .debug_str:00000000000006b1 .LASF89
     /tmp/ccIpUWB3.s:3032   .debug_str:0000000000000c2f .LASF182
     /tmp/ccIpUWB3.s:2770   .debug_str:00000000000003d4 .LASF183
     /tmp/ccIpUWB3.s:2880   .debug_str:000000000000070b .LASF90
     /tmp/ccIpUWB3.s:2840   .debug_str:00000000000005dd .LASF91
     /tmp/ccIpUWB3.s:2942   .debug_str:00000000000008fa .LASF92
     /tmp/ccIpUWB3.s:2746   .debug_str:00000000000002ff .LASF98
     /tmp/ccIpUWB3.s:2914   .debug_str:000000000000081a .LASF184
     /tmp/ccIpUWB3.s:2902   .debug_str:00000000000007ca .LASF185
     /tmp/ccIpUWB3.s:2800   .debug_str:00000000000004dd .LASF93
     /tmp/ccIpUWB3.s:2692   .debug_str:000000000000010b .LASF94
     /tmp/ccIpUWB3.s:2820   .debug_str:000000000000054c .LASF95
     /tmp/ccIpUWB3.s:2734   .debug_str:000000000000027b .LASF96
     /tmp/ccIpUWB3.s:2874   .debug_str:00000000000006e4 .LASF97
     /tmp/ccIpUWB3.s:3008   .debug_str:0000000000000b8c .LASF99
     /tmp/ccIpUWB3.s:2932   .debug_str:00000000000008b4 .LASF100
     /tmp/ccIpUWB3.s:2794   .debug_str:000000000000049a .LASF101
     /tmp/ccIpUWB3.s:3042   .debug_str:0000000000000c90 .LASF102
     /tmp/ccIpUWB3.s:3036   .debug_str:0000000000000c55 .LASF103
     /tmp/ccIpUWB3.s:2896   .debug_str:00000000000007a6 .LASF104
     /tmp/ccIpUWB3.s:2666   .debug_str:000000000000001f .LASF105
     /tmp/ccIpUWB3.s:3014   .debug_str:0000000000000bba .LASF186
     /tmp/ccIpUWB3.s:2946   .debug_str:0000000000000919 .LASF106
     /tmp/ccIpUWB3.s:2850   .debug_str:0000000000000629 .LASF107
     /tmp/ccIpUWB3.s:2704   .debug_str:0000000000000174 .LASF109
     /tmp/ccIpUWB3.s:2974   .debug_str:0000000000000a7f .LASF110
     /tmp/ccIpUWB3.s:3016   .debug_str:0000000000000bc2 .LASF111
     /tmp/ccIpUWB3.s:2922   .debug_str:0000000000000876 .LASF112
     /tmp/ccIpUWB3.s:2978   .debug_str:0000000000000a98 .LASF113
     /tmp/ccIpUWB3.s:2956   .debug_str:000000000000094b .LASF114
     /tmp/ccIpUWB3.s:2844   .debug_str:00000000000005f4 .LASF115
     /tmp/ccIpUWB3.s:2688   .debug_str:00000000000000f1 .LASF116
     /tmp/ccIpUWB3.s:2986   .debug_str:0000000000000add .LASF117
     /tmp/ccIpUWB3.s:3024   .debug_str:0000000000000bfb .LASF118
     /tmp/ccIpUWB3.s:2694   .debug_str:0000000000000128 .LASF119
     /tmp/ccIpUWB3.s:2958   .debug_str:0000000000000956 .LASF120
     /tmp/ccIpUWB3.s:2710   .debug_str:00000000000001be .LASF121
     /tmp/ccIpUWB3.s:2686   .debug_str:00000000000000e9 .LASF122
     /tmp/ccIpUWB3.s:2888   .debug_str:0000000000000765 .LASF123
     /tmp/ccIpUWB3.s:2876   .debug_str:00000000000006f0 .LASF124
     /tmp/ccIpUWB3.s:3034   .debug_str:0000000000000c43 .LASF125
     /tmp/ccIpUWB3.s:2934   .debug_str:00000000000008bf .LASF126
     /tmp/ccIpUWB3.s:2832   .debug_str:0000000000000585 .LASF127
     /tmp/ccIpUWB3.s:2830   .debug_str:000000000000057a .LASF128
     /tmp/ccIpUWB3.s:2846   .debug_str:000000000000060b .LASF129
     /tmp/ccIpUWB3.s:2718   .debug_str:0000000000000205 .LASF130
     /tmp/ccIpUWB3.s:3020   .debug_str:0000000000000bcf .LASF131
     /tmp/ccIpUWB3.s:2810   .debug_str:0000000000000510 .LASF132
     /tmp/ccIpUWB3.s:2996   .debug_str:0000000000000b2c .LASF133
GAS LISTING /tmp/ccIpUWB3.s 			page 13


     /tmp/ccIpUWB3.s:2774   .debug_str:00000000000003fe .LASF134
     /tmp/ccIpUWB3.s:2998   .debug_str:0000000000000b45 .LASF135
     /tmp/ccIpUWB3.s:2866   .debug_str:000000000000069b .LASF187
     /tmp/ccIpUWB3.s:2980   .debug_str:0000000000000aa4 .LASF136
     /tmp/ccIpUWB3.s:2708   .debug_str:000000000000018f .LASF137
     /tmp/ccIpUWB3.s:2962   .debug_str:000000000000096d .LASF138
     /tmp/ccIpUWB3.s:2964   .debug_str:0000000000000979 .LASF139
     /tmp/ccIpUWB3.s:2808   .debug_str:000000000000050a .LASF140
     /tmp/ccIpUWB3.s:2906   .debug_str:00000000000007e8 .LASF141
     /tmp/ccIpUWB3.s:2966   .debug_str:0000000000000992 .LASF142
     /tmp/ccIpUWB3.s:2972   .debug_str:0000000000000a6b .LASF188
     /tmp/ccIpUWB3.s:2662   .debug_str:000000000000000a .LASF143
     /tmp/ccIpUWB3.s:2828   .debug_str:0000000000000574 .LASF144
     /tmp/ccIpUWB3.s:2982   .debug_str:0000000000000ac0 .LASF145
     /tmp/ccIpUWB3.s:2900   .debug_str:00000000000007bf .LASF146
     /tmp/ccIpUWB3.s:2754   .debug_str:0000000000000337 .LASF147
     /tmp/ccIpUWB3.s:2938   .debug_str:00000000000008db .LASF148
     /tmp/ccIpUWB3.s:2886   .debug_str:000000000000075d .LASF149
     /tmp/ccIpUWB3.s:2690   .debug_str:00000000000000fd .LASF151
     /tmp/ccIpUWB3.s:2812   .debug_str:000000000000051d .LASF153
     /tmp/ccIpUWB3.s:2716   .debug_str:00000000000001f7 .LASF154
     /tmp/ccIpUWB3.s:2668   .debug_str:0000000000000039 .LASF189
     /tmp/ccIpUWB3.s:2724   .debug_str:000000000000022a .LASF155
     /tmp/ccIpUWB3.s:2706   .debug_str:000000000000017c .LASF156
     /tmp/ccIpUWB3.s:2930   .debug_str:00000000000008a3 .LASF157
     /tmp/ccIpUWB3.s:2826   .debug_str:000000000000056f .LASF158
     /tmp/ccIpUWB3.s:3004   .debug_str:0000000000000b79 .LASF159
     /tmp/ccIpUWB3.s:15     .text:0000000000000000 .LFB54
     /tmp/ccIpUWB3.s:198    .text:0000000000000104 .LFE54
     /tmp/ccIpUWB3.s:2818   .debug_str:0000000000000544 .LASF160
     /tmp/ccIpUWB3.s:109    .text:0000000000000084 .LBB20
     /tmp/ccIpUWB3.s:149    .text:00000000000000c0 .LBE20
     /tmp/ccIpUWB3.s:2904   .debug_str:00000000000007e1 .LASF161
     /tmp/ccIpUWB3.s:2605   .debug_loc:0000000000000000 .LLST2
     /tmp/ccIpUWB3.s:2944   .debug_str:000000000000090d .LASF162
     /tmp/ccIpUWB3.s:2960   .debug_str:0000000000000961 .LASF190
     /tmp/ccIpUWB3.s:2616   .debug_loc:0000000000000036 .LLST3
     /tmp/ccIpUWB3.s:2660   .debug_str:0000000000000000 .LASF163
     /tmp/ccIpUWB3.s:134    .text:00000000000000ac .LBB21
     /tmp/ccIpUWB3.s:148    .text:00000000000000c0 .LBE21
     /tmp/ccIpUWB3.s:2623   .debug_loc:0000000000000059 .LLST4
     /tmp/ccIpUWB3.s:143    .text:00000000000000bc .LVL14
     /tmp/ccIpUWB3.s:118    .text:0000000000000098 .LVL10
     /tmp/ccIpUWB3.s:39     .text:0000000000000028 .LBB14
     /tmp/ccIpUWB3.s:51     .text:000000000000002c .LBE14
     /tmp/ccIpUWB3.s:53     .text:000000000000002c .LBB16
     /tmp/ccIpUWB3.s:65     .text:0000000000000034 .LBE16
     /tmp/ccIpUWB3.s:2630   .debug_loc:000000000000007c .LLST0
     /tmp/ccIpUWB3.s:92     .text:0000000000000070 .LBB18
     /tmp/ccIpUWB3.s:100    .text:0000000000000074 .LBE18
     /tmp/ccIpUWB3.s:2638   .debug_loc:00000000000000a0 .LLST1
     /tmp/ccIpUWB3.s:160    .text:00000000000000d8 .LBB23
     /tmp/ccIpUWB3.s:180    .text:00000000000000e8 .LBE23
     /tmp/ccIpUWB3.s:34     .text:0000000000000020 .LVL0
     /tmp/ccIpUWB3.s:72     .text:0000000000000044 .LVL4
     /tmp/ccIpUWB3.s:85     .text:000000000000006c .LVL5
     /tmp/ccIpUWB3.s:106    .text:0000000000000080 .LVL8
GAS LISTING /tmp/ccIpUWB3.s 			page 14


     /tmp/ccIpUWB3.s:153    .text:00000000000000c8 .LVL16
     /tmp/ccIpUWB3.s:158    .text:00000000000000d8 .LVL17
     /tmp/ccIpUWB3.s:2752   .debug_str:0000000000000332 .LASF164
     /tmp/ccIpUWB3.s:2672   .debug_str:000000000000006e .LASF165
     /tmp/ccIpUWB3.s:2802   .debug_str:00000000000004e6 .LASF191
     /tmp/ccIpUWB3.s:3002   .debug_str:0000000000000b74 .LASF166
     /tmp/ccIpUWB3.s:2816   .debug_str:000000000000053e .LASF167
     /tmp/ccIpUWB3.s:2858   .debug_str:0000000000000664 .LASF168
     /tmp/ccIpUWB3.s:2744   .debug_str:00000000000002ec .LASF170
     /tmp/ccIpUWB3.s:2864   .debug_str:0000000000000694 .LASF169
     /tmp/ccIpUWB3.s:2664   .debug_str:000000000000000f .LASF171
     /tmp/ccIpUWB3.s:2760   .debug_str:0000000000000356 .LASF172
     /tmp/ccIpUWB3.s:2994   .debug_str:0000000000000b1e .LASF174
     /tmp/ccIpUWB3.s:2680   .debug_str:00000000000000ab .LASF173
     /tmp/ccIpUWB3.s:2898   .debug_str:00000000000007af .LASF175
     /tmp/ccIpUWB3.s:2712   .debug_str:00000000000001d4 .LASF176
     /tmp/ccIpUWB3.s:3030   .debug_str:0000000000000c23 .LASF177
     /tmp/ccIpUWB3.s:113    .text:000000000000008c .LVL9
     /tmp/ccIpUWB3.s:122    .text:000000000000009c .LVL11
     /tmp/ccIpUWB3.s:127    .text:00000000000000a4 .LVL12
     /tmp/ccIpUWB3.s:145    .text:00000000000000c0 .LVL15
     /tmp/ccIpUWB3.s:191    .text:00000000000000f8 .LVL18
     /tmp/ccIpUWB3.s:133    .text:00000000000000ac .LVL13
     /tmp/ccIpUWB3.s:48     .text:000000000000002c .LVL2
     /tmp/ccIpUWB3.s:62     .text:0000000000000034 .LVL3
     /tmp/ccIpUWB3.s:91     .text:0000000000000070 .LVL6
     /tmp/ccIpUWB3.s:98     .text:0000000000000074 .LVL7
     /tmp/ccIpUWB3.s:208    .debug_info:0000000000000000 .Ldebug_info0

UNDEFINED SYMBOLS
_ZN15MemoryAllocator15initFreeSegmentEv
_ZN5Riscv14supervisorTrapEv
_ZN3TCB12createThreadEPFvPvES0_
_ZN3TCB7runningE
_Z8userMainv
_Z13thread_createPP3TCBPFvPvES2_
_Z15thread_dispatchv
_ZdlPv
_ZdaPv
_ZN9Scheduler17deleteThreadQueueEv
_Z11printStringPKc
