GAS LISTING /tmp/cccgz3Q5.s 			page 1


   1              		.file	"main.cpp"
   2              		.option pic
   3              		.option norelax
   4              		.text
   5              	.Ltext0:
   6              		.section	.rodata.str1.8,"aMS",@progbits,1
   7              		.align	3
   8              	.LC0:
   9 0000 436F726F 		.string	"Coroutine A created\n"
   9      7574696E 
   9      65204120 
   9      63726561 
   9      7465640A 
  10 0015 000000   		.align	3
  11              	.LC1:
  12 0018 436F726F 		.string	"Coroutine B created\n"
  12      7574696E 
  12      65204220 
  12      63726561 
  12      7465640A 
  13 002d 000000   		.align	3
  14              	.LC2:
  15 0030 46696E69 		.string	"Finished\n"
  15      73686564 
  15      0A00
  16              		.text
  17              		.align	2
  18              		.globl	main
  20              	main:
  21              	.LFB23:
  22              		.file 1 "src/main.cpp"
   1:src/main.cpp  **** #include "../lib/hw.h"
   2:src/main.cpp  **** #include "../lib/console.h"
   3:src/main.cpp  **** #include "../h/tcb.hpp"
   4:src/main.cpp  **** #include "../h/workers.hpp"
   5:src/main.cpp  **** #include "../h/printing.hpp"
   6:src/main.cpp  **** 
   7:src/main.cpp  **** int main() {
  23              		.loc 1 7 12
  24              		.cfi_startproc
  25 0000 130101FC 		addi	sp,sp,-64
  26              		.cfi_def_cfa_offset 64
  27 0004 233C1102 		sd	ra,56(sp)
  28 0008 23388102 		sd	s0,48(sp)
  29 000c 23349102 		sd	s1,40(sp)
  30 0010 23302103 		sd	s2,32(sp)
  31              		.cfi_offset 1, -8
  32              		.cfi_offset 8, -16
  33              		.cfi_offset 9, -24
  34              		.cfi_offset 18, -32
  35 0014 13040104 		addi	s0,sp,64
  36              		.cfi_def_cfa 8, 0
   8:src/main.cpp  ****     MemoryAllocator::initFreeSegment();
  37              		.loc 1 8 5
  38              		.loc 1 8 37 is_stmt 0
  39 0018 97000000 		call	_ZN15MemoryAllocator15initFreeSegmentEv@plt
  39      E7800000 
GAS LISTING /tmp/cccgz3Q5.s 			page 2


  40              	.LVL0:
   9:src/main.cpp  **** 
  10:src/main.cpp  ****     TCB* threads[3];
  41              		.loc 1 10 5 is_stmt 1
  11:src/main.cpp  **** 
  12:src/main.cpp  ****     threads[0] = TCB::createThread(nullptr);
  42              		.loc 1 12 5
  43              		.loc 1 12 35 is_stmt 0
  44 0020 13050000 		li	a0,0
  45 0024 97000000 		call	_ZN3TCB12createThreadEPFvvE@plt
  45      E7800000 
  46              	.LVL1:
  47              		.loc 1 12 16
  48 002c 2334A4FC 		sd	a0,-56(s0)
  13:src/main.cpp  ****     TCB::running = threads[0];
  49              		.loc 1 13 5 is_stmt 1
  50              		.loc 1 13 18 is_stmt 0
  51 0030 97070000 		la	a5,_ZN3TCB7runningE
  51      83B70700 
  52 0038 23B0A700 		sd	a0,0(a5)
  14:src/main.cpp  **** 
  15:src/main.cpp  ****     threads[1] = TCB::createThread(workerBodyA);
  53              		.loc 1 15 5 is_stmt 1
  54              		.loc 1 15 35 is_stmt 0
  55 003c 17050000 		la	a0,_Z11workerBodyAv
  55      03350500 
  56 0044 97000000 		call	_ZN3TCB12createThreadEPFvvE@plt
  56      E7800000 
  57              	.LVL2:
  58              		.loc 1 15 16
  59 004c 2338A4FC 		sd	a0,-48(s0)
  16:src/main.cpp  ****     printString("Coroutine A created\n");
  60              		.loc 1 16 5 is_stmt 1
  61              		.loc 1 16 16 is_stmt 0
  62 0050 17050000 		lla	a0,.LC0
  62      13050500 
  63 0058 97000000 		call	_Z11printStringPKc@plt
  63      E7800000 
  64              	.LVL3:
  17:src/main.cpp  ****     threads[2] = TCB::createThread(workerBodyB);
  65              		.loc 1 17 5 is_stmt 1
  66              		.loc 1 17 35 is_stmt 0
  67 0060 17050000 		la	a0,_Z11workerBodyBv
  67      03350500 
  68 0068 97000000 		call	_ZN3TCB12createThreadEPFvvE@plt
  68      E7800000 
  69              	.LVL4:
  70              		.loc 1 17 16
  71 0070 233CA4FC 		sd	a0,-40(s0)
  18:src/main.cpp  ****     printString("Coroutine B created\n");
  72              		.loc 1 18 5 is_stmt 1
  73              		.loc 1 18 16 is_stmt 0
  74 0074 17050000 		lla	a0,.LC1
  74      13050500 
  75 007c 97000000 		call	_Z11printStringPKc@plt
  75      E7800000 
  76              	.LVL5:
GAS LISTING /tmp/cccgz3Q5.s 			page 3


  77 0084 6F00C000 		j	.L4
  78              	.L2:
  19:src/main.cpp  **** 
  20:src/main.cpp  ****     while(!(threads[1]->isFinished() && threads[2]->isFinished())) TCB::yield();
  79              		.loc 1 20 68 is_stmt 1 discriminator 3
  80              		.loc 1 20 78 is_stmt 0 discriminator 3
  81 0088 97000000 		call	_ZN3TCB5yieldEv@plt
  81      E7800000 
  82              	.LVL6:
  83              	.L4:
  84              		.loc 1 20 5 is_stmt 1
  85              		.loc 1 20 11
  86              		.loc 1 20 22 is_stmt 0
  87 0090 833704FD 		ld	a5,-48(s0)
  88              	.LVL7:
  89              	.LBB10:
  90              	.LBB11:
  91              		.file 2 "src/../h/tcb.hpp"
   1:src/../h/tcb.hpp **** #ifndef TCB_H
   2:src/../h/tcb.hpp **** #define TCB_H
   3:src/../h/tcb.hpp **** 
   4:src/../h/tcb.hpp **** #include "../lib/hw.h"
   5:src/../h/tcb.hpp **** #include "../h/scheduler.hpp"
   6:src/../h/tcb.hpp **** 
   7:src/../h/tcb.hpp **** class TCB {
   8:src/../h/tcb.hpp **** public:
   9:src/../h/tcb.hpp ****     ~TCB(){ delete[] stack; }
  10:src/../h/tcb.hpp **** 
  11:src/../h/tcb.hpp ****     bool isFinished() const { return finished; }
  92              		.loc 2 11 31 is_stmt 1
  93              		.loc 2 11 38 is_stmt 0
  94 0094 83C70702 		lbu	a5,32(a5)
  95              	.LVL8:
  96              	.LBE11:
  97              	.LBE10:
  98              		.loc 1 20 11
  99 0098 E38807FE 		beqz	a5,.L2
 100              		.loc 1 20 50 discriminator 2
 101 009c 833784FD 		ld	a5,-40(s0)
 102              	.LVL9:
 103              	.LBB12:
 104              	.LBB13:
 105              		.loc 2 11 31 is_stmt 1 discriminator 2
 106              		.loc 2 11 38 is_stmt 0 discriminator 2
 107 00a0 83C70702 		lbu	a5,32(a5)
 108              	.LVL10:
 109              	.LBE13:
 110              	.LBE12:
 111              		.loc 1 20 11 discriminator 2
 112 00a4 E38207FE 		beqz	a5,.L2
 113 00a8 930484FC 		addi	s1,s0,-56
 114 00ac 6F004001 		j	.L3
 115              	.LVL11:
 116              	.L7:
 117              	.LBB14:
  21:src/main.cpp  **** 
  22:src/main.cpp  ****     for(auto &thread : threads) {
GAS LISTING /tmp/cccgz3Q5.s 			page 4


  23:src/main.cpp  ****         delete thread;
 118              		.loc 1 23 16
 119 00b0 13050900 		mv	a0,s2
 120 00b4 97000000 		call	_ZdlPv@plt
 120      E7800000 
 121              	.LVL12:
 122              	.L6:
  22:src/main.cpp  ****         delete thread;
 123              		.loc 1 22 5 is_stmt 1 discriminator 3
 124 00bc 93848400 		addi	s1,s1,8
 125              	.LVL13:
 126              	.L3:
  22:src/main.cpp  ****         delete thread;
 127              		.loc 1 22 24 discriminator 1
 128 00c0 930704FE 		addi	a5,s0,-32
 129 00c4 6380F402 		beq	s1,a5,.L5
 130              	.LVL14:
 131              		.loc 1 23 9 discriminator 2
 132              		.loc 1 23 16 is_stmt 0 discriminator 2
 133 00c8 03B90400 		ld	s2,0(s1)
 134              		.loc 1 23 22 discriminator 2
 135 00cc E30809FE 		beqz	s2,.L6
 136              	.LVL15:
 137              	.LBB15:
 138              	.LBB16:
   9:src/../h/tcb.hpp **** 
 139              		.loc 2 9 13 is_stmt 1
   9:src/../h/tcb.hpp **** 
 140              		.loc 2 9 22 is_stmt 0
 141 00d0 03358900 		ld	a0,8(s2)
   9:src/../h/tcb.hpp **** 
 142              		.loc 2 9 27
 143 00d4 E30E05FC 		beqz	a0,.L7
   9:src/../h/tcb.hpp **** 
 144              		.loc 2 9 22
 145 00d8 97000000 		call	_ZdaPv@plt
 145      E7800000 
 146              	.LVL16:
 147 00e0 6FF01FFD 		j	.L7
 148              	.LVL17:
 149              	.L5:
 150              	.LBE16:
 151              	.LBE15:
 152              	.LBE14:
  24:src/main.cpp  ****     }
  25:src/main.cpp  **** 
  26:src/main.cpp  ****     Scheduler::deleteThreadQueue();
 153              		.loc 1 26 5 is_stmt 1
 154              		.loc 1 26 33 is_stmt 0
 155 00e4 97000000 		call	_ZN9Scheduler17deleteThreadQueueEv@plt
 155      E7800000 
 156              	.LVL18:
  27:src/main.cpp  **** 
  28:src/main.cpp  ****     printString("Finished\n");
 157              		.loc 1 28 5 is_stmt 1
 158              		.loc 1 28 16 is_stmt 0
 159 00ec 17050000 		lla	a0,.LC2
GAS LISTING /tmp/cccgz3Q5.s 			page 5


 159      13050500 
 160 00f4 97000000 		call	_Z11printStringPKc@plt
 160      E7800000 
 161              	.LVL19:
  29:src/main.cpp  **** 
  30:src/main.cpp  ****     return 0;
 162              		.loc 1 30 5 is_stmt 1
  31:src/main.cpp  **** }...
 163              		.loc 1 31 1 is_stmt 0
 164 00fc 13050000 		li	a0,0
 165 0100 83308103 		ld	ra,56(sp)
 166              		.cfi_restore 1
 167 0104 03340103 		ld	s0,48(sp)
 168              		.cfi_restore 8
 169              		.cfi_def_cfa 2, 64
 170 0108 83348102 		ld	s1,40(sp)
 171              		.cfi_restore 9
 172              	.LVL20:
 173 010c 03390102 		ld	s2,32(sp)
 174              		.cfi_restore 18
 175 0110 13010104 		addi	sp,sp,64
 176              		.cfi_def_cfa_offset 0
 177 0114 67800000 		jr	ra
 178              		.cfi_endproc
 179              	.LFE23:
 181              	.Letext0:
 182              		.file 3 "src/../lib/hw.h"
 183              		.file 4 "src/../h/../h/MemoryAllocator.hpp"
 184              		.file 5 "src/../h/../h/scheduler.hpp"
 185              		.file 6 "src/../h/syscall_c.hpp"
 186              		.file 7 "src/../h/printing.hpp"
GAS LISTING /tmp/cccgz3Q5.s 			page 6


DEFINED SYMBOLS
                            *ABS*:0000000000000000 main.cpp
     /tmp/cccgz3Q5.s:20     .text:0000000000000000 main
     /tmp/cccgz3Q5.s:24     .text:0000000000000000 .L0 
     /tmp/cccgz3Q5.s:25     .text:0000000000000000 .L0 
     /tmp/cccgz3Q5.s:26     .text:0000000000000004 .L0 
     /tmp/cccgz3Q5.s:31     .text:0000000000000014 .L0 
     /tmp/cccgz3Q5.s:32     .text:0000000000000014 .L0 
     /tmp/cccgz3Q5.s:33     .text:0000000000000014 .L0 
     /tmp/cccgz3Q5.s:34     .text:0000000000000014 .L0 
     /tmp/cccgz3Q5.s:36     .text:0000000000000018 .L0 
     /tmp/cccgz3Q5.s:38     .text:0000000000000018 .L0 
     /tmp/cccgz3Q5.s:39     .text:0000000000000018 .L0 
     /tmp/cccgz3Q5.s:42     .text:0000000000000020 .L0 
     /tmp/cccgz3Q5.s:43     .text:0000000000000020 .L0 
     /tmp/cccgz3Q5.s:44     .text:0000000000000020 .L0 
     /tmp/cccgz3Q5.s:48     .text:000000000000002c .L0 
     /tmp/cccgz3Q5.s:50     .text:0000000000000030 .L0 
     /tmp/cccgz3Q5.s:51     .text:0000000000000030 .L0 
     /tmp/cccgz3Q5.s:54     .text:000000000000003c .L0 
     /tmp/cccgz3Q5.s:55     .text:000000000000003c .L0 
     /tmp/cccgz3Q5.s:59     .text:000000000000004c .L0 
     /tmp/cccgz3Q5.s:61     .text:0000000000000050 .L0 
     /tmp/cccgz3Q5.s:62     .text:0000000000000050 .L0 
     /tmp/cccgz3Q5.s:66     .text:0000000000000060 .L0 
     /tmp/cccgz3Q5.s:67     .text:0000000000000060 .L0 
     /tmp/cccgz3Q5.s:71     .text:0000000000000070 .L0 
     /tmp/cccgz3Q5.s:73     .text:0000000000000074 .L0 
     /tmp/cccgz3Q5.s:74     .text:0000000000000074 .L0 
     /tmp/cccgz3Q5.s:80     .text:0000000000000088 .L0 
     /tmp/cccgz3Q5.s:81     .text:0000000000000088 .L0 
     /tmp/cccgz3Q5.s:85     .text:0000000000000090 .L0 
     /tmp/cccgz3Q5.s:86     .text:0000000000000090 .L0 
     /tmp/cccgz3Q5.s:87     .text:0000000000000090 .L0 
     /tmp/cccgz3Q5.s:93     .text:0000000000000094 .L0 
     /tmp/cccgz3Q5.s:94     .text:0000000000000094 .L0 
     /tmp/cccgz3Q5.s:99     .text:0000000000000098 .L0 
     /tmp/cccgz3Q5.s:101    .text:000000000000009c .L0 
     /tmp/cccgz3Q5.s:106    .text:00000000000000a0 .L0 
     /tmp/cccgz3Q5.s:107    .text:00000000000000a0 .L0 
     /tmp/cccgz3Q5.s:112    .text:00000000000000a4 .L0 
     /tmp/cccgz3Q5.s:119    .text:00000000000000b0 .L0 
     /tmp/cccgz3Q5.s:124    .text:00000000000000bc .L0 
     /tmp/cccgz3Q5.s:128    .text:00000000000000c0 .L0 
     /tmp/cccgz3Q5.s:132    .text:00000000000000c8 .L0 
     /tmp/cccgz3Q5.s:133    .text:00000000000000c8 .L0 
     /tmp/cccgz3Q5.s:135    .text:00000000000000cc .L0 
     /tmp/cccgz3Q5.s:140    .text:00000000000000d0 .L0 
     /tmp/cccgz3Q5.s:141    .text:00000000000000d0 .L0 
     /tmp/cccgz3Q5.s:143    .text:00000000000000d4 .L0 
     /tmp/cccgz3Q5.s:145    .text:00000000000000d8 .L0 
     /tmp/cccgz3Q5.s:154    .text:00000000000000e4 .L0 
     /tmp/cccgz3Q5.s:155    .text:00000000000000e4 .L0 
     /tmp/cccgz3Q5.s:158    .text:00000000000000ec .L0 
     /tmp/cccgz3Q5.s:159    .text:00000000000000ec .L0 
     /tmp/cccgz3Q5.s:163    .text:00000000000000fc .L0 
     /tmp/cccgz3Q5.s:164    .text:00000000000000fc .L0 
GAS LISTING /tmp/cccgz3Q5.s 			page 7


     /tmp/cccgz3Q5.s:166    .text:0000000000000104 .L0 
     /tmp/cccgz3Q5.s:168    .text:0000000000000108 .L0 
     /tmp/cccgz3Q5.s:169    .text:0000000000000108 .L0 
     /tmp/cccgz3Q5.s:171    .text:000000000000010c .L0 
     /tmp/cccgz3Q5.s:174    .text:0000000000000110 .L0 
     /tmp/cccgz3Q5.s:176    .text:0000000000000114 .L0 
     /tmp/cccgz3Q5.s:178    .text:0000000000000118 .L0 
     /tmp/cccgz3Q5.s:187    .text:0000000000000118 .L0 
     /tmp/cccgz3Q5.s:51     .text:0000000000000030 .L0 
     /tmp/cccgz3Q5.s:55     .text:000000000000003c .L0 
     /tmp/cccgz3Q5.s:8      .rodata.str1.8:0000000000000000 .LC0
     /tmp/cccgz3Q5.s:62     .text:0000000000000050 .L0 
     /tmp/cccgz3Q5.s:67     .text:0000000000000060 .L0 
     /tmp/cccgz3Q5.s:11     .rodata.str1.8:0000000000000018 .LC1
     /tmp/cccgz3Q5.s:74     .text:0000000000000074 .L0 
     /tmp/cccgz3Q5.s:14     .rodata.str1.8:0000000000000030 .LC2
     /tmp/cccgz3Q5.s:159    .text:00000000000000ec .L0 
     /tmp/cccgz3Q5.s:83     .text:0000000000000090 .L4
     /tmp/cccgz3Q5.s:78     .text:0000000000000088 .L2
     /tmp/cccgz3Q5.s:126    .text:00000000000000c0 .L3
     /tmp/cccgz3Q5.s:149    .text:00000000000000e4 .L5
     /tmp/cccgz3Q5.s:122    .text:00000000000000bc .L6
     /tmp/cccgz3Q5.s:116    .text:00000000000000b0 .L7
     /tmp/cccgz3Q5.s:895    .debug_abbrev:0000000000000000 .Ldebug_abbrev0
     /tmp/cccgz3Q5.s:1854   .debug_str:0000000000000267 .LASF68
     /tmp/cccgz3Q5.s:1864   .debug_str:0000000000000366 .LASF69
     /tmp/cccgz3Q5.s:1906   .debug_str:00000000000004dc .LASF70
     /tmp/cccgz3Q5.s:5      .text:0000000000000000 .Ltext0
     /tmp/cccgz3Q5.s:181    .text:0000000000000118 .Letext0
     /tmp/cccgz3Q5.s:1770   .debug_line:0000000000000000 .Ldebug_line0
     /tmp/cccgz3Q5.s:1866   .debug_str:0000000000000373 .LASF0
     /tmp/cccgz3Q5.s:1840   .debug_str:00000000000001f9 .LASF1
     /tmp/cccgz3Q5.s:1830   .debug_str:00000000000001b6 .LASF2
     /tmp/cccgz3Q5.s:1798   .debug_str:000000000000009b .LASF4
     /tmp/cccgz3Q5.s:1838   .debug_str:00000000000001e7 .LASF3
     /tmp/cccgz3Q5.s:1780   .debug_str:0000000000000038 .LASF5
     /tmp/cccgz3Q5.s:1774   .debug_str:0000000000000009 .LASF6
     /tmp/cccgz3Q5.s:1820   .debug_str:0000000000000151 .LASF7
     /tmp/cccgz3Q5.s:1878   .debug_str:00000000000003c5 .LASF8
     /tmp/cccgz3Q5.s:1796   .debug_str:000000000000008d .LASF9
     /tmp/cccgz3Q5.s:1938   .debug_str:00000000000005e4 .LASF10
     /tmp/cccgz3Q5.s:1824   .debug_str:000000000000016f .LASF11
     /tmp/cccgz3Q5.s:1926   .debug_str:000000000000059f .LASF12
     /tmp/cccgz3Q5.s:1890   .debug_str:000000000000041a .LASF13
     /tmp/cccgz3Q5.s:1846   .debug_str:000000000000021c .LASF14
     /tmp/cccgz3Q5.s:1810   .debug_str:00000000000000f9 .LASF15
     /tmp/cccgz3Q5.s:1884   .debug_str:00000000000003ea .LASF16
     /tmp/cccgz3Q5.s:1882   .debug_str:00000000000003e2 .LASF38
     /tmp/cccgz3Q5.s:1782   .debug_str:000000000000003f .LASF17
     /tmp/cccgz3Q5.s:1934   .debug_str:00000000000005d3 .LASF18
     /tmp/cccgz3Q5.s:1778   .debug_str:0000000000000028 .LASF23
     /tmp/cccgz3Q5.s:1932   .debug_str:00000000000005c9 .LASF19
     /tmp/cccgz3Q5.s:1918   .debug_str:000000000000055a .LASF21
     /tmp/cccgz3Q5.s:1892   .debug_str:000000000000042a .LASF20
     /tmp/cccgz3Q5.s:1828   .debug_str:0000000000000195 .LASF22
     /tmp/cccgz3Q5.s:1872   .debug_str:0000000000000398 .LASF34
     /tmp/cccgz3Q5.s:1808   .debug_str:00000000000000d1 .LASF36
GAS LISTING /tmp/cccgz3Q5.s 			page 8


     /tmp/cccgz3Q5.s:1856   .debug_str:000000000000032b .LASF24
     /tmp/cccgz3Q5.s:1924   .debug_str:0000000000000595 .LASF25
     /tmp/cccgz3Q5.s:1914   .debug_str:0000000000000527 .LASF27
     /tmp/cccgz3Q5.s:1790   .debug_str:000000000000005e .LASF26
     /tmp/cccgz3Q5.s:1896   .debug_str:0000000000000466 .LASF28
     /tmp/cccgz3Q5.s:1900   .debug_str:00000000000004b5 .LASF29
     /tmp/cccgz3Q5.s:1894   .debug_str:0000000000000433 .LASF30
     /tmp/cccgz3Q5.s:1888   .debug_str:0000000000000408 .LASF31
     /tmp/cccgz3Q5.s:1836   .debug_str:00000000000001d5 .LASF32
     /tmp/cccgz3Q5.s:1818   .debug_str:0000000000000147 .LASF33
     /tmp/cccgz3Q5.s:1874   .debug_str:00000000000003a8 .LASF48
     /tmp/cccgz3Q5.s:1860   .debug_str:000000000000034e .LASF35
     /tmp/cccgz3Q5.s:1848   .debug_str:0000000000000228 .LASF37
     /tmp/cccgz3Q5.s:1794   .debug_str:0000000000000079 .LASF71
     /tmp/cccgz3Q5.s:1806   .debug_str:00000000000000b9 .LASF72
     /tmp/cccgz3Q5.s:1920   .debug_str:000000000000057b .LASF73
     /tmp/cccgz3Q5.s:1812   .debug_str:000000000000010f .LASF39
     /tmp/cccgz3Q5.s:1786   .debug_str:0000000000000052 .LASF40
     /tmp/cccgz3Q5.s:1876   .debug_str:00000000000003b9 .LASF41
     /tmp/cccgz3Q5.s:1822   .debug_str:0000000000000164 .LASF56
     /tmp/cccgz3Q5.s:1850   .debug_str:000000000000024b .LASF74
     /tmp/cccgz3Q5.s:1792   .debug_str:000000000000006d .LASF42
     /tmp/cccgz3Q5.s:1826   .debug_str:000000000000017e .LASF43
     /tmp/cccgz3Q5.s:1880   .debug_str:00000000000003d5 .LASF44
     /tmp/cccgz3Q5.s:1898   .debug_str:0000000000000499 .LASF45
     /tmp/cccgz3Q5.s:1800   .debug_str:00000000000000a2 .LASF75
     /tmp/cccgz3Q5.s:1862   .debug_str:0000000000000360 .LASF46
     /tmp/cccgz3Q5.s:1908   .debug_str:00000000000004ff .LASF47
     /tmp/cccgz3Q5.s:1868   .debug_str:0000000000000380 .LASF49
     /tmp/cccgz3Q5.s:1922   .debug_str:0000000000000585 .LASF76
     /tmp/cccgz3Q5.s:1852   .debug_str:0000000000000262 .LASF50
     /tmp/cccgz3Q5.s:1802   .debug_str:00000000000000a7 .LASF51
     /tmp/cccgz3Q5.s:1886   .debug_str:0000000000000400 .LASF52
     /tmp/cccgz3Q5.s:1844   .debug_str:0000000000000213 .LASF53
     /tmp/cccgz3Q5.s:1784   .debug_str:0000000000000044 .LASF54
     /tmp/cccgz3Q5.s:1814   .debug_str:0000000000000117 .LASF77
     /tmp/cccgz3Q5.s:1772   .debug_str:0000000000000000 .LASF78
     /tmp/cccgz3Q5.s:1904   .debug_str:00000000000004c9 .LASF79
     /tmp/cccgz3Q5.s:1902   .debug_str:00000000000004c4 .LASF55
     /tmp/cccgz3Q5.s:1912   .debug_str:0000000000000522 .LASF57
     /tmp/cccgz3Q5.s:21     .text:0000000000000000 .LFB23
     /tmp/cccgz3Q5.s:179    .text:0000000000000118 .LFE23
     /tmp/cccgz3Q5.s:1816   .debug_str:000000000000013f .LASF58
     /tmp/cccgz3Q5.s:117    .text:00000000000000b0 .LBB14
     /tmp/cccgz3Q5.s:152    .text:00000000000000e4 .LBE14
     /tmp/cccgz3Q5.s:1842   .debug_str:000000000000020c .LASF59
     /tmp/cccgz3Q5.s:1718   .debug_loc:0000000000000000 .LLST2
     /tmp/cccgz3Q5.s:1776   .debug_str:000000000000001c .LASF60
     /tmp/cccgz3Q5.s:1804   .debug_str:00000000000000ad .LASF80
     /tmp/cccgz3Q5.s:1729   .debug_loc:0000000000000036 .LLST3
     /tmp/cccgz3Q5.s:1858   .debug_str:0000000000000344 .LASF61
     /tmp/cccgz3Q5.s:137    .text:00000000000000d0 .LBB15
     /tmp/cccgz3Q5.s:151    .text:00000000000000e4 .LBE15
     /tmp/cccgz3Q5.s:1736   .debug_loc:0000000000000059 .LLST4
     /tmp/cccgz3Q5.s:146    .text:00000000000000e0 .LVL16
     /tmp/cccgz3Q5.s:121    .text:00000000000000bc .LVL12
     /tmp/cccgz3Q5.s:89     .text:0000000000000094 .LBB10
GAS LISTING /tmp/cccgz3Q5.s 			page 9


     /tmp/cccgz3Q5.s:97     .text:0000000000000098 .LBE10
     /tmp/cccgz3Q5.s:1743   .debug_loc:000000000000007c .LLST0
     /tmp/cccgz3Q5.s:103    .text:00000000000000a0 .LBB12
     /tmp/cccgz3Q5.s:110    .text:00000000000000a4 .LBE12
     /tmp/cccgz3Q5.s:1750   .debug_loc:000000000000009f .LLST1
     /tmp/cccgz3Q5.s:40     .text:0000000000000020 .LVL0
     /tmp/cccgz3Q5.s:46     .text:000000000000002c .LVL1
     /tmp/cccgz3Q5.s:57     .text:000000000000004c .LVL2
     /tmp/cccgz3Q5.s:64     .text:0000000000000060 .LVL3
     /tmp/cccgz3Q5.s:69     .text:0000000000000070 .LVL4
     /tmp/cccgz3Q5.s:76     .text:0000000000000084 .LVL5
     /tmp/cccgz3Q5.s:82     .text:0000000000000090 .LVL6
     /tmp/cccgz3Q5.s:156    .text:00000000000000ec .LVL18
     /tmp/cccgz3Q5.s:161    .text:00000000000000fc .LVL19
     /tmp/cccgz3Q5.s:1832   .debug_str:00000000000001c4 .LASF62
     /tmp/cccgz3Q5.s:1916   .debug_str:0000000000000550 .LASF63
     /tmp/cccgz3Q5.s:1834   .debug_str:00000000000001c9 .LASF81
     /tmp/cccgz3Q5.s:1788   .debug_str:0000000000000057 .LASF64
     /tmp/cccgz3Q5.s:1910   .debug_str:000000000000050f .LASF66
     /tmp/cccgz3Q5.s:1928   .debug_str:00000000000005af .LASF65
     /tmp/cccgz3Q5.s:1870   .debug_str:0000000000000388 .LASF67
     /tmp/cccgz3Q5.s:1930   .debug_str:00000000000005b6 .LASF82
     /tmp/cccgz3Q5.s:1936   .debug_str:00000000000005d8 .LASF83
     /tmp/cccgz3Q5.s:115    .text:00000000000000b0 .LVL11
     /tmp/cccgz3Q5.s:125    .text:00000000000000c0 .LVL13
     /tmp/cccgz3Q5.s:130    .text:00000000000000c8 .LVL14
     /tmp/cccgz3Q5.s:148    .text:00000000000000e4 .LVL17
     /tmp/cccgz3Q5.s:172    .text:000000000000010c .LVL20
     /tmp/cccgz3Q5.s:136    .text:00000000000000d0 .LVL15
     /tmp/cccgz3Q5.s:88     .text:0000000000000094 .LVL7
     /tmp/cccgz3Q5.s:95     .text:0000000000000098 .LVL8
     /tmp/cccgz3Q5.s:102    .text:00000000000000a0 .LVL9
     /tmp/cccgz3Q5.s:108    .text:00000000000000a4 .LVL10
     /tmp/cccgz3Q5.s:188    .debug_info:0000000000000000 .Ldebug_info0

UNDEFINED SYMBOLS
_ZN15MemoryAllocator15initFreeSegmentEv
_ZN3TCB12createThreadEPFvvE
_ZN3TCB7runningE
_Z11workerBodyAv
_Z11printStringPKc
_Z11workerBodyBv
_ZN3TCB5yieldEv
_ZdlPv
_ZdaPv
_ZN9Scheduler17deleteThreadQueueEv
