GAS LISTING /tmp/ccjsO3RB.s 			page 1


   1              		.file	"mySemaphore.cpp"
   2              		.option pic
   3              		.option norelax
   4              		.text
   5              	.Ltext0:
   6              		.align	2
   7              		.globl	_ZN11MySemaphore15createSemaphoreEi
   9              	_ZN11MySemaphore15createSemaphoreEi:
  10              	.LFB56:
  11              		.file 1 "src/mySemaphore.cpp"
   1:src/mySemaphore.cpp **** #include "../h/mySemaphore.hpp"
   2:src/mySemaphore.cpp **** #include "../h/syscall_c.hpp"
   3:src/mySemaphore.cpp **** 
   4:src/mySemaphore.cpp **** int MySemaphore::wait() {
   5:src/mySemaphore.cpp ****     if(this->closed) return -1;
   6:src/mySemaphore.cpp ****     if(--this->value < 0) {
   7:src/mySemaphore.cpp ****         block();
   8:src/mySemaphore.cpp ****         TCB::dispatch();
   9:src/mySemaphore.cpp ****         if(this->closed) return -1;
  10:src/mySemaphore.cpp ****     }
  11:src/mySemaphore.cpp **** 
  12:src/mySemaphore.cpp ****     return 0;
  13:src/mySemaphore.cpp **** }
  14:src/mySemaphore.cpp **** 
  15:src/mySemaphore.cpp **** int MySemaphore::signal() {
  16:src/mySemaphore.cpp ****     if(this->closed) return -1;
  17:src/mySemaphore.cpp ****     if(++this->value <= 0) {
  18:src/mySemaphore.cpp ****         unblock();
  19:src/mySemaphore.cpp ****     }
  20:src/mySemaphore.cpp **** 
  21:src/mySemaphore.cpp ****     return 0;
  22:src/mySemaphore.cpp **** }
  23:src/mySemaphore.cpp **** 
  24:src/mySemaphore.cpp **** MySemaphore * MySemaphore::createSemaphore(int init) {
  12              		.loc 1 24 54
  13              		.cfi_startproc
  14              	.LVL0:
  15 0000 130101FE 		addi	sp,sp,-32
  16              		.cfi_def_cfa_offset 32
  17 0004 233C1100 		sd	ra,24(sp)
  18 0008 23388100 		sd	s0,16(sp)
  19 000c 23349100 		sd	s1,8(sp)
  20              		.cfi_offset 1, -8
  21              		.cfi_offset 8, -16
  22              		.cfi_offset 9, -24
  23 0010 13040102 		addi	s0,sp,32
  24              		.cfi_def_cfa 8, 0
  25 0014 93040500 		mv	s1,a0
  25:src/mySemaphore.cpp ****     return new MySemaphore(init);
  26              		.loc 1 25 5
  27              		.loc 1 25 32 is_stmt 0
  28 0018 13058001 		li	a0,24
  29              	.LVL1:
  30 001c 97000000 		call	_Znwm@plt
  30      E7800000 
  31              	.LVL2:
  32              	.LBB43:
GAS LISTING /tmp/ccjsO3RB.s 			page 2


  33              	.LBB44:
  34              	.LBB45:
  35              	.LBB46:
  36              		.file 2 "src/../h/list.hpp"
   1:src/../h/list.hpp **** #ifndef LIST_H
   2:src/../h/list.hpp **** #define LIST_H
   3:src/../h/list.hpp **** 
   4:src/../h/list.hpp **** #include "MemoryAllocator.hpp"
   5:src/../h/list.hpp **** 
   6:src/../h/list.hpp **** template <typename T> class List {
   7:src/../h/list.hpp **** public:
   8:src/../h/list.hpp ****     List() : head(0), tail(0) {}
  37              		.loc 2 8 29
  38 0024 23340500 		sd	zero,8(a0)
  39 0028 23380500 		sd	zero,16(a0)
  40              	.LVL3:
  41              	.LBE46:
  42              	.LBE45:
  43              		.file 3 "src/../h/mySemaphore.hpp"
   1:src/../h/mySemaphore.hpp **** #ifndef MYSEMAPHORE_H
   2:src/../h/mySemaphore.hpp **** #define MYSEMAPHORE_H
   3:src/../h/mySemaphore.hpp **** 
   4:src/../h/mySemaphore.hpp **** #include "list.hpp"
   5:src/../h/mySemaphore.hpp **** #include "tcb.hpp"
   6:src/../h/mySemaphore.hpp **** 
   7:src/../h/mySemaphore.hpp **** class MySemaphore {
   8:src/../h/mySemaphore.hpp **** public:
   9:src/../h/mySemaphore.hpp ****     explicit MySemaphore(int init = 1) {
  10:src/../h/mySemaphore.hpp ****         this->value = init;
  44              		.loc 3 10 9 is_stmt 1
  45              		.loc 3 10 21 is_stmt 0
  46 002c 23229500 		sw	s1,4(a0)
  11:src/../h/mySemaphore.hpp ****         this->closed = false;
  47              		.loc 3 11 9 is_stmt 1
  48              		.loc 3 11 22 is_stmt 0
  49 0030 23000500 		sb	zero,0(a0)
  50              	.LVL4:
  51              	.LBE44:
  52              	.LBE43:
  26:src/mySemaphore.cpp **** }
  53              		.loc 1 26 1
  54 0034 83308101 		ld	ra,24(sp)
  55              		.cfi_restore 1
  56 0038 03340101 		ld	s0,16(sp)
  57              		.cfi_restore 8
  58              		.cfi_def_cfa 2, 32
  59 003c 83348100 		ld	s1,8(sp)
  60              		.cfi_restore 9
  61 0040 13010102 		addi	sp,sp,32
  62              		.cfi_def_cfa_offset 0
  63 0044 67800000 		jr	ra
  64              		.cfi_endproc
  65              	.LFE56:
  67              		.align	2
  68              		.globl	_ZN11MySemaphore5closeEv
  70              	_ZN11MySemaphore5closeEv:
  71              	.LFB57:
GAS LISTING /tmp/ccjsO3RB.s 			page 3


  27:src/mySemaphore.cpp **** 
  28:src/mySemaphore.cpp **** int MySemaphore::close() {
  72              		.loc 1 28 26 is_stmt 1
  73              		.cfi_startproc
  74              	.LVL5:
  29:src/mySemaphore.cpp ****     if(closed) return -1;
  75              		.loc 1 29 5
  76              		.loc 1 29 8 is_stmt 0
  77 0048 83470500 		lbu	a5,0(a0)
  78              		.loc 1 29 5
  79 004c 63940706 		bnez	a5,.L7
  28:src/mySemaphore.cpp ****     if(closed) return -1;
  80              		.loc 1 28 26
  81 0050 130101FE 		addi	sp,sp,-32
  82              		.cfi_def_cfa_offset 32
  83 0054 233C1100 		sd	ra,24(sp)
  84 0058 23388100 		sd	s0,16(sp)
  85 005c 23349100 		sd	s1,8(sp)
  86 0060 23302101 		sd	s2,0(sp)
  87              		.cfi_offset 1, -8
  88              		.cfi_offset 8, -16
  89              		.cfi_offset 9, -24
  90              		.cfi_offset 18, -32
  91 0064 13040102 		addi	s0,sp,32
  92              		.cfi_def_cfa 8, 0
  93 0068 13090500 		mv	s2,a0
  30:src/mySemaphore.cpp ****     closed = true;
  94              		.loc 1 30 5 is_stmt 1
  95              		.loc 1 30 12 is_stmt 0
  96 006c 93071000 		li	a5,1
  97 0070 2300F500 		sb	a5,0(a0)
  98 0074 6F008002 		j	.L6
  99              	.LVL6:
 100              	.L14:
 101              	.LBB47:
 102              	.LBB48:
 103              	.LBB49:
   9:src/../h/list.hpp **** 
  10:src/../h/list.hpp ****     List(const List<T> &) = delete;
  11:src/../h/list.hpp ****     List<T> &operator=(const List<T> &) = delete;
  12:src/../h/list.hpp **** 
  13:src/../h/list.hpp ****     void addFirst(T* item) {
  14:src/../h/list.hpp ****         Element* element = new Element(item, head);
  15:src/../h/list.hpp ****         head = element;
  16:src/../h/list.hpp ****         if(!tail) tail = element;
  17:src/../h/list.hpp ****     }
  18:src/../h/list.hpp **** 
  19:src/../h/list.hpp ****     void addLast(T* item) {
  20:src/../h/list.hpp ****         Element* element = new Element(item, nullptr);
  21:src/../h/list.hpp ****         if(tail) {
  22:src/../h/list.hpp ****             tail->next = element;
  23:src/../h/list.hpp ****             tail = element;
  24:src/../h/list.hpp ****         } else head = tail = element;
  25:src/../h/list.hpp ****     }
  26:src/../h/list.hpp **** 
  27:src/../h/list.hpp ****     T* removeFirst() {
  28:src/../h/list.hpp ****         if(!head) return nullptr;
GAS LISTING /tmp/ccjsO3RB.s 			page 4


  29:src/../h/list.hpp ****         Element* element = head;
  30:src/../h/list.hpp ****         head = head->next;
  31:src/../h/list.hpp ****         if(!head) tail = nullptr;
 104              		.loc 2 31 19
 105 0078 23380900 		sd	zero,16(s2)
 106              	.L5:
  32:src/../h/list.hpp **** 
  33:src/../h/list.hpp ****         T* result = element->item;
 107              		.loc 2 33 12
 108 007c 83340500 		ld	s1,0(a0)
 109              	.LVL7:
 110              	.LBB50:
 111              	.LBB51:
  34:src/../h/list.hpp ****         delete element;
  35:src/../h/list.hpp ****         return result;
  36:src/../h/list.hpp ****     }
  37:src/../h/list.hpp **** 
  38:src/../h/list.hpp ****     T* removeLast() {
  39:src/../h/list.hpp ****         if(!tail) return nullptr;
  40:src/../h/list.hpp **** 
  41:src/../h/list.hpp ****         Element* prev = nullptr;
  42:src/../h/list.hpp ****         for(Element* curr = head; curr != tail; prev = curr, curr = curr->next) {}
  43:src/../h/list.hpp **** 
  44:src/../h/list.hpp ****         Element* element = tail;
  45:src/../h/list.hpp ****         if(prev) prev->next = nullptr;
  46:src/../h/list.hpp ****         else head = nullptr;
  47:src/../h/list.hpp ****         tail = prev;
  48:src/../h/list.hpp **** 
  49:src/../h/list.hpp ****         T* result = element->item;
  50:src/../h/list.hpp ****         delete element;
  51:src/../h/list.hpp ****         return result;
  52:src/../h/list.hpp ****     }
  53:src/../h/list.hpp **** 
  54:src/../h/list.hpp ****     T* peekFirst() {
  55:src/../h/list.hpp ****         if(!head) return nullptr;
  56:src/../h/list.hpp ****         return head->item;
  57:src/../h/list.hpp ****     }
  58:src/../h/list.hpp **** 
  59:src/../h/list.hpp ****     T* peekLast() {
  60:src/../h/list.hpp ****         if(!tail) return nullptr;
  61:src/../h/list.hpp ****         return tail->item;
  62:src/../h/list.hpp ****     }
  63:src/../h/list.hpp **** 
  64:src/../h/list.hpp **** private:
  65:src/../h/list.hpp ****     struct Element {
  66:src/../h/list.hpp ****         T* item;
  67:src/../h/list.hpp ****         Element* next;
  68:src/../h/list.hpp **** 
  69:src/../h/list.hpp ****         Element(T* item, Element* next) : item(item), next(next) {}
  70:src/../h/list.hpp **** 
  71:src/../h/list.hpp ****         void* operator new(size_t size){
  72:src/../h/list.hpp ****             return MemoryAllocator::mem_alloc(size);
  73:src/../h/list.hpp ****         }
  74:src/../h/list.hpp **** 
  75:src/../h/list.hpp ****         void* operator new[](size_t size){
  76:src/../h/list.hpp ****             return MemoryAllocator::mem_alloc(size);
  77:src/../h/list.hpp ****         }
GAS LISTING /tmp/ccjsO3RB.s 			page 5


  78:src/../h/list.hpp **** 
  79:src/../h/list.hpp ****         void operator delete(void* ptr){
  80:src/../h/list.hpp ****             MemoryAllocator::mem_free(ptr);
 112              		.loc 2 80 38
 113 0080 97000000 		call	_ZN15MemoryAllocator8mem_freeEPv@plt
 113      E7800000 
 114              	.LVL8:
 115              	.LBE51:
 116              	.LBE50:
 117              	.LBE49:
 118              	.LBE48:
  31:src/mySemaphore.cpp **** 
  32:src/mySemaphore.cpp ****     while(TCB* tcb = this->blocked.removeFirst()) {
 119              		.loc 1 32 48
 120 0088 63880404 		beqz	s1,.L9
  33:src/mySemaphore.cpp ****         tcb->setBlocked(false);
 121              		.loc 1 33 9 is_stmt 1
 122              	.LVL9:
 123              	.LBB53:
 124              	.LBB54:
 125              		.file 4 "src/../h/tcb.hpp"
   1:src/../h/tcb.hpp **** #ifndef TCB_H
   2:src/../h/tcb.hpp **** #define TCB_H
   3:src/../h/tcb.hpp **** 
   4:src/../h/tcb.hpp **** #include "riscv.hpp"
   5:src/../h/tcb.hpp **** #include "../lib/hw.h"
   6:src/../h/tcb.hpp **** #include "../h/scheduler.hpp"
   7:src/../h/tcb.hpp **** #include "../h/mySemaphore.hpp"
   8:src/../h/tcb.hpp **** 
   9:src/../h/tcb.hpp **** class TCB {
  10:src/../h/tcb.hpp **** public:
  11:src/../h/tcb.hpp ****     ~TCB(){ delete[] stack; }
  12:src/../h/tcb.hpp **** 
  13:src/../h/tcb.hpp ****     bool isFinished() const { return finished; }
  14:src/../h/tcb.hpp **** 
  15:src/../h/tcb.hpp ****     void setFinished(bool finished) { this->finished = finished; }
  16:src/../h/tcb.hpp **** 
  17:src/../h/tcb.hpp ****     bool isBlocked() const { return blocked; }
  18:src/../h/tcb.hpp **** 
  19:src/../h/tcb.hpp ****     void setBlocked(bool blocked) { this->blocked = blocked; }
 126              		.loc 4 19 37
 127              		.loc 4 19 51 is_stmt 0
 128 008c 23810404 		sb	zero,66(s1)
 129              	.LVL10:
 130              	.LBE54:
 131              	.LBE53:
  34:src/mySemaphore.cpp ****         Scheduler::put(tcb);
 132              		.loc 1 34 9 is_stmt 1
 133              		.loc 1 34 23 is_stmt 0
 134 0090 13850400 		mv	a0,s1
 135 0094 97000000 		call	_ZN9Scheduler3putEP3TCB@plt
 135      E7800000 
 136              	.LVL11:
 137              	.LBE47:
  32:src/mySemaphore.cpp ****         tcb->setBlocked(false);
 138              		.loc 1 32 5 is_stmt 1
 139              	.L6:
GAS LISTING /tmp/ccjsO3RB.s 			page 6


  32:src/mySemaphore.cpp ****         tcb->setBlocked(false);
 140              		.loc 1 32 5
 141              	.LBB56:
 142              	.LBB55:
 143              	.LBB52:
  28:src/../h/list.hpp ****         Element* element = head;
 144              		.loc 2 28 13 is_stmt 0
 145 009c 03358900 		ld	a0,8(s2)
  28:src/../h/list.hpp ****         Element* element = head;
 146              		.loc 2 28 9
 147 00a0 630E0500 		beqz	a0,.L8
 148              	.LVL12:
  30:src/../h/list.hpp ****         if(!head) tail = nullptr;
 149              		.loc 2 30 22
 150 00a4 83378500 		ld	a5,8(a0)
  30:src/../h/list.hpp ****         if(!head) tail = nullptr;
 151              		.loc 2 30 9
 152 00a8 2334F900 		sd	a5,8(s2)
  31:src/../h/list.hpp **** 
 153              		.loc 2 31 9
 154 00ac E39807FC 		bnez	a5,.L5
 155 00b0 6FF09FFC 		j	.L14
 156              	.LVL13:
 157              	.L7:
 158              		.cfi_def_cfa_register 2
 159              		.cfi_restore 1
 160              		.cfi_restore 8
 161              		.cfi_restore 9
 162              		.cfi_restore 18
 163              	.LBE52:
 164              	.LBE55:
 165              	.LBE56:
  29:src/mySemaphore.cpp ****     closed = true;
 166              		.loc 1 29 24
 167 00b4 1305F0FF 		li	a0,-1
 168              	.LVL14:
  35:src/mySemaphore.cpp ****     }
  36:src/mySemaphore.cpp ****     return 0;
  37:src/mySemaphore.cpp **** }
 169              		.loc 1 37 1
 170 00b8 67800000 		ret
 171              	.LVL15:
 172              	.L8:
 173              		.cfi_def_cfa_register 8
 174              		.cfi_offset 1, -8
 175              		.cfi_offset 8, -16
 176              		.cfi_offset 9, -24
 177              		.cfi_offset 18, -32
  36:src/mySemaphore.cpp **** }
 178              		.loc 1 36 12
 179 00bc 13050000 		li	a0,0
 180              	.LVL16:
 181              	.L4:
 182              		.loc 1 37 1
 183 00c0 83308101 		ld	ra,24(sp)
 184              		.cfi_remember_state
 185              		.cfi_restore 1
GAS LISTING /tmp/ccjsO3RB.s 			page 7


 186 00c4 03340101 		ld	s0,16(sp)
 187              		.cfi_restore 8
 188              		.cfi_def_cfa 2, 32
 189 00c8 83348100 		ld	s1,8(sp)
 190              		.cfi_restore 9
 191 00cc 03390100 		ld	s2,0(sp)
 192              		.cfi_restore 18
 193              	.LVL17:
 194 00d0 13010102 		addi	sp,sp,32
 195              		.cfi_def_cfa_offset 0
 196 00d4 67800000 		jr	ra
 197              	.LVL18:
 198              	.L9:
 199              		.cfi_restore_state
  36:src/mySemaphore.cpp **** }
 200              		.loc 1 36 12
 201 00d8 13050000 		li	a0,0
 202 00dc 6FF05FFE 		j	.L4
 203              		.cfi_endproc
 204              	.LFE57:
 206              		.align	2
 207              		.globl	_ZN11MySemaphore7trywaitEv
 209              	_ZN11MySemaphore7trywaitEv:
 210              	.LFB58:
  38:src/mySemaphore.cpp **** 
  39:src/mySemaphore.cpp **** int MySemaphore::trywait() {
 211              		.loc 1 39 28 is_stmt 1
 212              		.cfi_startproc
 213              	.LVL19:
 214 00e0 130101FF 		addi	sp,sp,-16
 215              		.cfi_def_cfa_offset 16
 216 00e4 23348100 		sd	s0,8(sp)
 217              		.cfi_offset 8, -8
 218 00e8 13040101 		addi	s0,sp,16
 219              		.cfi_def_cfa 8, 0
  40:src/mySemaphore.cpp ****     if(this->closed) return -1;
 220              		.loc 1 40 5
 221              		.loc 1 40 14 is_stmt 0
 222 00ec 83470500 		lbu	a5,0(a0)
 223              		.loc 1 40 5
 224 00f0 639E0700 		bnez	a5,.L17
  41:src/mySemaphore.cpp ****     if((int)this->value - 1 < 0) {
 225              		.loc 1 41 5 is_stmt 1
 226              		.loc 1 41 19 is_stmt 0
 227 00f4 83274500 		lw	a5,4(a0)
 228              		.loc 1 41 5
 229 00f8 635EF000 		blez	a5,.L18
  42:src/mySemaphore.cpp ****         return 0;
  43:src/mySemaphore.cpp ****     }
  44:src/mySemaphore.cpp ****     return 1;
 230              		.loc 1 44 12
 231 00fc 13051000 		li	a0,1
 232              	.LVL20:
 233              	.L16:
  45:src/mySemaphore.cpp **** }
 234              		.loc 1 45 1
 235 0100 03348100 		ld	s0,8(sp)
GAS LISTING /tmp/ccjsO3RB.s 			page 8


 236              		.cfi_remember_state
 237              		.cfi_restore 8
 238              		.cfi_def_cfa 2, 16
 239 0104 13010101 		addi	sp,sp,16
 240              		.cfi_def_cfa_offset 0
 241 0108 67800000 		jr	ra
 242              	.LVL21:
 243              	.L17:
 244              		.cfi_restore_state
  40:src/mySemaphore.cpp ****     if((int)this->value - 1 < 0) {
 245              		.loc 1 40 30
 246 010c 1305F0FF 		li	a0,-1
 247              	.LVL22:
 248 0110 6FF01FFF 		j	.L16
 249              	.LVL23:
 250              	.L18:
  42:src/mySemaphore.cpp ****         return 0;
 251              		.loc 1 42 16
 252 0114 13050000 		li	a0,0
 253              	.LVL24:
 254 0118 6FF09FFE 		j	.L16
 255              		.cfi_endproc
 256              	.LFE58:
 258              		.align	2
 259              		.globl	_ZN11MySemaphore5blockEv
 261              	_ZN11MySemaphore5blockEv:
 262              	.LFB59:
  46:src/mySemaphore.cpp **** 
  47:src/mySemaphore.cpp **** void MySemaphore::block() {
 263              		.loc 1 47 27 is_stmt 1
 264              		.cfi_startproc
 265              	.LVL25:
 266 011c 130101FE 		addi	sp,sp,-32
 267              		.cfi_def_cfa_offset 32
 268 0120 233C1100 		sd	ra,24(sp)
 269 0124 23388100 		sd	s0,16(sp)
 270 0128 23349100 		sd	s1,8(sp)
 271 012c 23302101 		sd	s2,0(sp)
 272              		.cfi_offset 1, -8
 273              		.cfi_offset 8, -16
 274              		.cfi_offset 9, -24
 275              		.cfi_offset 18, -32
 276 0130 13040102 		addi	s0,sp,32
 277              		.cfi_def_cfa 8, 0
 278 0134 93040500 		mv	s1,a0
  48:src/mySemaphore.cpp ****     this->blocked.addLast(TCB::running);
 279              		.loc 1 48 5
 280              		.loc 1 48 26 is_stmt 0
 281 0138 97070000 		la	a5,_ZN3TCB7runningE
 281      83B70700 
 282 0140 03B90700 		ld	s2,0(a5)
 283              	.LVL26:
 284              	.LBB57:
 285              	.LBB58:
 286              	.LBB59:
 287              	.LBB60:
  72:src/../h/list.hpp ****         }
GAS LISTING /tmp/ccjsO3RB.s 			page 9


 288              		.loc 2 72 46
 289 0144 13050001 		li	a0,16
 290              	.LVL27:
 291 0148 97000000 		call	_ZN15MemoryAllocator9mem_allocEm@plt
 291      E7800000 
 292              	.LVL28:
 293              	.LBE60:
 294              	.LBE59:
 295              	.LBB61:
 296              	.LBB62:
  69:src/../h/list.hpp **** 
 297              		.loc 2 69 64
 298 0150 23302501 		sd	s2,0(a0)
 299 0154 23340500 		sd	zero,8(a0)
 300              	.LVL29:
 301              	.LBE62:
 302              	.LBE61:
  21:src/../h/list.hpp ****             tail->next = element;
 303              		.loc 2 21 12
 304 0158 83B70401 		ld	a5,16(s1)
  21:src/../h/list.hpp ****             tail->next = element;
 305              		.loc 2 21 9
 306 015c 638C0702 		beqz	a5,.L21
  22:src/../h/list.hpp ****             tail = element;
 307              		.loc 2 22 13
 308 0160 23B4A700 		sd	a0,8(a5)
  23:src/../h/list.hpp ****         } else head = tail = element;
 309              		.loc 2 23 13
 310 0164 23B8A400 		sd	a0,16(s1)
 311              	.L22:
 312              	.LVL30:
 313              	.LBE58:
 314              	.LBE57:
  49:src/mySemaphore.cpp ****     TCB::running->setBlocked(true);
 315              		.loc 1 49 5 is_stmt 1
 316              		.loc 1 49 29 is_stmt 0
 317 0168 97070000 		la	a5,_ZN3TCB7runningE
 317      83B70700 
 318 0170 83B70700 		ld	a5,0(a5)
 319              	.LVL31:
 320              	.LBB64:
 321              	.LBB65:
 322              		.loc 4 19 37 is_stmt 1
 323              		.loc 4 19 51 is_stmt 0
 324 0174 13071000 		li	a4,1
 325 0178 2381E704 		sb	a4,66(a5)
 326              	.LVL32:
 327              	.LBE65:
 328              	.LBE64:
  50:src/mySemaphore.cpp **** }
 329              		.loc 1 50 1
 330 017c 83308101 		ld	ra,24(sp)
 331              		.cfi_remember_state
 332              		.cfi_restore 1
 333 0180 03340101 		ld	s0,16(sp)
 334              		.cfi_restore 8
 335              		.cfi_def_cfa 2, 32
GAS LISTING /tmp/ccjsO3RB.s 			page 10


 336 0184 83348100 		ld	s1,8(sp)
 337              		.cfi_restore 9
 338              	.LVL33:
 339 0188 03390100 		ld	s2,0(sp)
 340              		.cfi_restore 18
 341 018c 13010102 		addi	sp,sp,32
 342              		.cfi_def_cfa_offset 0
 343 0190 67800000 		jr	ra
 344              	.LVL34:
 345              	.L21:
 346              		.cfi_restore_state
 347              	.LBB66:
 348              	.LBB63:
  24:src/../h/list.hpp ****     }
 349              		.loc 2 24 16
 350 0194 23B8A400 		sd	a0,16(s1)
 351 0198 23B4A400 		sd	a0,8(s1)
 352 019c 6FF0DFFC 		j	.L22
 353              	.LBE63:
 354              	.LBE66:
 355              		.cfi_endproc
 356              	.LFE59:
 358              		.align	2
 359              		.globl	_ZN11MySemaphore4waitEv
 361              	_ZN11MySemaphore4waitEv:
 362              	.LFB54:
   4:src/mySemaphore.cpp ****     if(this->closed) return -1;
 363              		.loc 1 4 25 is_stmt 1
 364              		.cfi_startproc
 365              	.LVL35:
   5:src/mySemaphore.cpp ****     if(--this->value < 0) {
 366              		.loc 1 5 5
   5:src/mySemaphore.cpp ****     if(--this->value < 0) {
 367              		.loc 1 5 14 is_stmt 0
 368 01a0 83470500 		lbu	a5,0(a0)
   5:src/mySemaphore.cpp ****     if(--this->value < 0) {
 369              		.loc 1 5 5
 370 01a4 63940706 		bnez	a5,.L26
   4:src/mySemaphore.cpp ****     if(this->closed) return -1;
 371              		.loc 1 4 25
 372 01a8 130101FE 		addi	sp,sp,-32
 373              		.cfi_def_cfa_offset 32
 374 01ac 233C1100 		sd	ra,24(sp)
 375 01b0 23388100 		sd	s0,16(sp)
 376 01b4 23349100 		sd	s1,8(sp)
 377              		.cfi_offset 1, -8
 378              		.cfi_offset 8, -16
 379              		.cfi_offset 9, -24
 380 01b8 13040102 		addi	s0,sp,32
 381              		.cfi_def_cfa 8, 0
 382 01bc 93040500 		mv	s1,a0
   6:src/mySemaphore.cpp ****         block();
 383              		.loc 1 6 5 is_stmt 1
   6:src/mySemaphore.cpp ****         block();
 384              		.loc 1 6 16 is_stmt 0
 385 01c0 83274500 		lw	a5,4(a0)
   6:src/mySemaphore.cpp ****         block();
GAS LISTING /tmp/ccjsO3RB.s 			page 11


 386              		.loc 1 6 8
 387 01c4 9B87F7FF 		addiw	a5,a5,-1
   6:src/mySemaphore.cpp ****         block();
 388              		.loc 1 6 22
 389 01c8 2322F500 		sw	a5,4(a0)
   6:src/mySemaphore.cpp ****         block();
 390              		.loc 1 6 5
 391 01cc 13970702 		slli	a4,a5,32
 392 01d0 634E0700 		bltz	a4,.L33
  12:src/mySemaphore.cpp **** }
 393              		.loc 1 12 12
 394 01d4 13050000 		li	a0,0
 395              	.LVL36:
 396              	.L25:
  13:src/mySemaphore.cpp **** 
 397              		.loc 1 13 1
 398 01d8 83308101 		ld	ra,24(sp)
 399              		.cfi_remember_state
 400              		.cfi_restore 1
 401 01dc 03340101 		ld	s0,16(sp)
 402              		.cfi_restore 8
 403              		.cfi_def_cfa 2, 32
 404 01e0 83348100 		ld	s1,8(sp)
 405              		.cfi_restore 9
 406              	.LVL37:
 407 01e4 13010102 		addi	sp,sp,32
 408              		.cfi_def_cfa_offset 0
 409 01e8 67800000 		jr	ra
 410              	.LVL38:
 411              	.L33:
 412              		.cfi_restore_state
   7:src/mySemaphore.cpp ****         TCB::dispatch();
 413              		.loc 1 7 9 is_stmt 1
   7:src/mySemaphore.cpp ****         TCB::dispatch();
 414              		.loc 1 7 14 is_stmt 0
 415 01ec 97000000 		call	_ZN11MySemaphore5blockEv
 415      E7800000 
 416              	.LVL39:
   8:src/mySemaphore.cpp ****         if(this->closed) return -1;
 417              		.loc 1 8 9 is_stmt 1
   8:src/mySemaphore.cpp ****         if(this->closed) return -1;
 418              		.loc 1 8 22 is_stmt 0
 419 01f4 97000000 		call	_ZN3TCB8dispatchEv@plt
 419      E7800000 
 420              	.LVL40:
   9:src/mySemaphore.cpp ****     }
 421              		.loc 1 9 9 is_stmt 1
   9:src/mySemaphore.cpp ****     }
 422              		.loc 1 9 18 is_stmt 0
 423 01fc 83C70400 		lbu	a5,0(s1)
   9:src/mySemaphore.cpp ****     }
 424              		.loc 1 9 9
 425 0200 639A0700 		bnez	a5,.L28
  12:src/mySemaphore.cpp **** }
 426              		.loc 1 12 12
 427 0204 13050000 		li	a0,0
 428 0208 6FF01FFD 		j	.L25
GAS LISTING /tmp/ccjsO3RB.s 			page 12


 429              	.LVL41:
 430              	.L26:
 431              		.cfi_def_cfa_register 2
 432              		.cfi_restore 1
 433              		.cfi_restore 8
 434              		.cfi_restore 9
   5:src/mySemaphore.cpp ****     if(--this->value < 0) {
 435              		.loc 1 5 30
 436 020c 1305F0FF 		li	a0,-1
 437              	.LVL42:
  13:src/mySemaphore.cpp **** 
 438              		.loc 1 13 1
 439 0210 67800000 		ret
 440              	.LVL43:
 441              	.L28:
 442              		.cfi_def_cfa_register 8
 443              		.cfi_offset 1, -8
 444              		.cfi_offset 8, -16
 445              		.cfi_offset 9, -24
   9:src/mySemaphore.cpp ****     }
 446              		.loc 1 9 34
 447 0214 1305F0FF 		li	a0,-1
 448 0218 6FF01FFC 		j	.L25
 449              		.cfi_endproc
 450              	.LFE54:
 452              		.align	2
 453              		.globl	_ZN11MySemaphore7unblockEv
 455              	_ZN11MySemaphore7unblockEv:
 456              	.LFB60:
  51:src/mySemaphore.cpp **** 
  52:src/mySemaphore.cpp **** void MySemaphore::unblock() {
 457              		.loc 1 52 29 is_stmt 1
 458              		.cfi_startproc
 459              	.LVL44:
 460 021c 93070500 		mv	a5,a0
  53:src/mySemaphore.cpp ****     if(this->blocked.peekFirst() == nullptr) return;
 461              		.loc 1 53 5
 462              	.LVL45:
 463              	.LBB67:
 464              	.LBB68:
  55:src/../h/list.hpp ****         return head->item;
 465              		.loc 2 55 13 is_stmt 0
 466 0220 03358500 		ld	a0,8(a0)
 467              	.LVL46:
  55:src/../h/list.hpp ****         return head->item;
 468              		.loc 2 55 9
 469 0224 63020506 		beqz	a0,.L38
  56:src/../h/list.hpp ****     }
 470              		.loc 2 56 22
 471 0228 03370500 		ld	a4,0(a0)
 472              	.LVL47:
 473              	.LBE68:
 474              	.LBE67:
 475              		.loc 1 53 5
 476 022c 630E0704 		beqz	a4,.L38
  52:src/mySemaphore.cpp ****     if(this->blocked.peekFirst() == nullptr) return;
 477              		.loc 1 52 29
GAS LISTING /tmp/ccjsO3RB.s 			page 13


 478 0230 130101FE 		addi	sp,sp,-32
 479              		.cfi_def_cfa_offset 32
 480 0234 233C1100 		sd	ra,24(sp)
 481 0238 23388100 		sd	s0,16(sp)
 482 023c 23349100 		sd	s1,8(sp)
 483              		.cfi_offset 1, -8
 484              		.cfi_offset 8, -16
 485              		.cfi_offset 9, -24
 486 0240 13040102 		addi	s0,sp,32
 487              		.cfi_def_cfa 8, 0
  54:src/mySemaphore.cpp ****     TCB* tcb = this->blocked.removeFirst();
 488              		.loc 1 54 5 is_stmt 1
 489              	.LVL48:
 490              	.LBB69:
 491              	.LBB70:
  30:src/../h/list.hpp ****         if(!head) tail = nullptr;
 492              		.loc 2 30 22 is_stmt 0
 493 0244 03378500 		ld	a4,8(a0)
  30:src/../h/list.hpp ****         if(!head) tail = nullptr;
 494              		.loc 2 30 9
 495 0248 23B4E700 		sd	a4,8(a5)
  31:src/../h/list.hpp **** 
 496              		.loc 2 31 9
 497 024c 630A0702 		beqz	a4,.L41
 498              	.L36:
  33:src/../h/list.hpp ****         delete element;
 499              		.loc 2 33 12
 500 0250 83340500 		ld	s1,0(a0)
 501              	.LVL49:
 502              	.LBB71:
 503              	.LBB72:
 504              		.loc 2 80 38
 505 0254 97000000 		call	_ZN15MemoryAllocator8mem_freeEPv@plt
 505      E7800000 
 506              	.LVL50:
 507              	.LBE72:
 508              	.LBE71:
 509              	.LBE70:
 510              	.LBE69:
  55:src/mySemaphore.cpp ****     tcb->setBlocked(false);
 511              		.loc 1 55 5 is_stmt 1
 512              	.LBB74:
 513              	.LBB75:
 514              		.loc 4 19 37
 515              		.loc 4 19 51 is_stmt 0
 516 025c 23810404 		sb	zero,66(s1)
 517              	.LVL51:
 518              	.LBE75:
 519              	.LBE74:
  56:src/mySemaphore.cpp ****     Scheduler::put(tcb);
 520              		.loc 1 56 5 is_stmt 1
 521              		.loc 1 56 19 is_stmt 0
 522 0260 13850400 		mv	a0,s1
 523 0264 97000000 		call	_ZN9Scheduler3putEP3TCB@plt
 523      E7800000 
 524              	.LVL52:
  57:src/mySemaphore.cpp **** }
GAS LISTING /tmp/ccjsO3RB.s 			page 14


 525              		.loc 1 57 1
 526 026c 83308101 		ld	ra,24(sp)
 527              		.cfi_remember_state
 528              		.cfi_restore 1
 529 0270 03340101 		ld	s0,16(sp)
 530              		.cfi_restore 8
 531              		.cfi_def_cfa 2, 32
 532 0274 83348100 		ld	s1,8(sp)
 533              		.cfi_restore 9
 534              	.LVL53:
 535 0278 13010102 		addi	sp,sp,32
 536              		.cfi_def_cfa_offset 0
 537 027c 67800000 		jr	ra
 538              	.LVL54:
 539              	.L41:
 540              		.cfi_restore_state
 541              	.LBB76:
 542              	.LBB73:
  31:src/../h/list.hpp **** 
 543              		.loc 2 31 19
 544 0280 23B80700 		sd	zero,16(a5)
 545 0284 6FF0DFFC 		j	.L36
 546              	.LVL55:
 547              	.L38:
 548              		.cfi_def_cfa_register 2
 549              		.cfi_restore 1
 550              		.cfi_restore 8
 551              		.cfi_restore 9
 552 0288 67800000 		ret
 553              	.LBE73:
 554              	.LBE76:
 555              		.cfi_endproc
 556              	.LFE60:
 558              		.align	2
 559              		.globl	_ZN11MySemaphore6signalEv
 561              	_ZN11MySemaphore6signalEv:
 562              	.LFB55:
  15:src/mySemaphore.cpp ****     if(this->closed) return -1;
 563              		.loc 1 15 27 is_stmt 1
 564              		.cfi_startproc
 565              	.LVL56:
  16:src/mySemaphore.cpp ****     if(++this->value <= 0) {
 566              		.loc 1 16 5
  16:src/mySemaphore.cpp ****     if(++this->value <= 0) {
 567              		.loc 1 16 14 is_stmt 0
 568 028c 83470500 		lbu	a5,0(a0)
  16:src/mySemaphore.cpp ****     if(++this->value <= 0) {
 569              		.loc 1 16 5
 570 0290 63960704 		bnez	a5,.L44
  17:src/mySemaphore.cpp ****         unblock();
 571              		.loc 1 17 5 is_stmt 1
  17:src/mySemaphore.cpp ****         unblock();
 572              		.loc 1 17 16 is_stmt 0
 573 0294 83274500 		lw	a5,4(a0)
  17:src/mySemaphore.cpp ****         unblock();
 574              		.loc 1 17 8
 575 0298 9B871700 		addiw	a5,a5,1
GAS LISTING /tmp/ccjsO3RB.s 			page 15


 576 029c 1B870700 		sext.w	a4,a5
  17:src/mySemaphore.cpp ****         unblock();
 577              		.loc 1 17 22
 578 02a0 2322F500 		sw	a5,4(a0)
  17:src/mySemaphore.cpp ****         unblock();
 579              		.loc 1 17 5
 580 02a4 6356E000 		blez	a4,.L50
  21:src/mySemaphore.cpp **** }
 581              		.loc 1 21 12
 582 02a8 13050000 		li	a0,0
 583              	.LVL57:
  22:src/mySemaphore.cpp **** 
 584              		.loc 1 22 1
 585 02ac 67800000 		ret
 586              	.LVL58:
 587              	.L50:
  15:src/mySemaphore.cpp ****     if(this->closed) return -1;
 588              		.loc 1 15 27
 589 02b0 130101FF 		addi	sp,sp,-16
 590              		.cfi_def_cfa_offset 16
 591 02b4 23341100 		sd	ra,8(sp)
 592 02b8 23308100 		sd	s0,0(sp)
 593              		.cfi_offset 1, -8
 594              		.cfi_offset 8, -16
 595 02bc 13040101 		addi	s0,sp,16
 596              		.cfi_def_cfa 8, 0
  18:src/mySemaphore.cpp ****     }
 597              		.loc 1 18 9 is_stmt 1
  18:src/mySemaphore.cpp ****     }
 598              		.loc 1 18 16 is_stmt 0
 599 02c0 97000000 		call	_ZN11MySemaphore7unblockEv
 599      E7800000 
 600              	.LVL59:
  21:src/mySemaphore.cpp **** }
 601              		.loc 1 21 12
 602 02c8 13050000 		li	a0,0
  22:src/mySemaphore.cpp **** 
 603              		.loc 1 22 1
 604 02cc 83308100 		ld	ra,8(sp)
 605              		.cfi_restore 1
 606 02d0 03340100 		ld	s0,0(sp)
 607              		.cfi_restore 8
 608              		.cfi_def_cfa 2, 16
 609 02d4 13010101 		addi	sp,sp,16
 610              		.cfi_def_cfa_offset 0
 611 02d8 67800000 		jr	ra
 612              	.LVL60:
 613              	.L44:
  16:src/mySemaphore.cpp ****     if(++this->value <= 0) {
 614              		.loc 1 16 30
 615 02dc 1305F0FF 		li	a0,-1
 616              	.LVL61:
 617 02e0 67800000 		ret
 618              		.cfi_endproc
 619              	.LFE55:
 621              	.Letext0:
 622              		.file 5 "src/../h/../lib/hw.h"
GAS LISTING /tmp/ccjsO3RB.s 			page 16


 623              		.file 6 "src/../h/MemoryAllocator.hpp"
 624              		.file 7 "src/../h/../h/scheduler.hpp"
 625              		.file 8 "src/../h/syscall_c.hpp"
GAS LISTING /tmp/ccjsO3RB.s 			page 17


DEFINED SYMBOLS
                            *ABS*:0000000000000000 mySemaphore.cpp
     /tmp/ccjsO3RB.s:9      .text:0000000000000000 _ZN11MySemaphore15createSemaphoreEi
     /tmp/ccjsO3RB.s:13     .text:0000000000000000 .L0 
     /tmp/ccjsO3RB.s:15     .text:0000000000000000 .L0 
     /tmp/ccjsO3RB.s:16     .text:0000000000000004 .L0 
     /tmp/ccjsO3RB.s:20     .text:0000000000000010 .L0 
     /tmp/ccjsO3RB.s:21     .text:0000000000000010 .L0 
     /tmp/ccjsO3RB.s:22     .text:0000000000000010 .L0 
     /tmp/ccjsO3RB.s:24     .text:0000000000000014 .L0 
     /tmp/ccjsO3RB.s:27     .text:0000000000000018 .L0 
     /tmp/ccjsO3RB.s:28     .text:0000000000000018 .L0 
     /tmp/ccjsO3RB.s:38     .text:0000000000000024 .L0 
     /tmp/ccjsO3RB.s:45     .text:000000000000002c .L0 
     /tmp/ccjsO3RB.s:46     .text:000000000000002c .L0 
     /tmp/ccjsO3RB.s:48     .text:0000000000000030 .L0 
     /tmp/ccjsO3RB.s:49     .text:0000000000000030 .L0 
     /tmp/ccjsO3RB.s:54     .text:0000000000000034 .L0 
     /tmp/ccjsO3RB.s:55     .text:0000000000000038 .L0 
     /tmp/ccjsO3RB.s:57     .text:000000000000003c .L0 
     /tmp/ccjsO3RB.s:58     .text:000000000000003c .L0 
     /tmp/ccjsO3RB.s:60     .text:0000000000000040 .L0 
     /tmp/ccjsO3RB.s:62     .text:0000000000000044 .L0 
     /tmp/ccjsO3RB.s:64     .text:0000000000000048 .L0 
     /tmp/ccjsO3RB.s:70     .text:0000000000000048 _ZN11MySemaphore5closeEv
     /tmp/ccjsO3RB.s:73     .text:0000000000000048 .L0 
     /tmp/ccjsO3RB.s:75     .text:0000000000000048 .L0 
     /tmp/ccjsO3RB.s:76     .text:0000000000000048 .L0 
     /tmp/ccjsO3RB.s:77     .text:0000000000000048 .L0 
     /tmp/ccjsO3RB.s:79     .text:000000000000004c .L0 
     /tmp/ccjsO3RB.s:81     .text:0000000000000050 .L0 
     /tmp/ccjsO3RB.s:82     .text:0000000000000054 .L0 
     /tmp/ccjsO3RB.s:87     .text:0000000000000064 .L0 
     /tmp/ccjsO3RB.s:88     .text:0000000000000064 .L0 
     /tmp/ccjsO3RB.s:89     .text:0000000000000064 .L0 
     /tmp/ccjsO3RB.s:90     .text:0000000000000064 .L0 
     /tmp/ccjsO3RB.s:92     .text:0000000000000068 .L0 
     /tmp/ccjsO3RB.s:95     .text:000000000000006c .L0 
     /tmp/ccjsO3RB.s:96     .text:000000000000006c .L0 
     /tmp/ccjsO3RB.s:105    .text:0000000000000078 .L0 
     /tmp/ccjsO3RB.s:108    .text:000000000000007c .L0 
     /tmp/ccjsO3RB.s:113    .text:0000000000000080 .L0 
     /tmp/ccjsO3RB.s:120    .text:0000000000000088 .L0 
     /tmp/ccjsO3RB.s:126    .text:000000000000008c .L0 
     /tmp/ccjsO3RB.s:127    .text:000000000000008c .L0 
     /tmp/ccjsO3RB.s:128    .text:000000000000008c .L0 
     /tmp/ccjsO3RB.s:133    .text:0000000000000090 .L0 
     /tmp/ccjsO3RB.s:134    .text:0000000000000090 .L0 
     /tmp/ccjsO3RB.s:140    .text:000000000000009c .L0 
     /tmp/ccjsO3RB.s:144    .text:000000000000009c .L0 
     /tmp/ccjsO3RB.s:145    .text:000000000000009c .L0 
     /tmp/ccjsO3RB.s:147    .text:00000000000000a0 .L0 
     /tmp/ccjsO3RB.s:150    .text:00000000000000a4 .L0 
     /tmp/ccjsO3RB.s:152    .text:00000000000000a8 .L0 
     /tmp/ccjsO3RB.s:154    .text:00000000000000ac .L0 
     /tmp/ccjsO3RB.s:158    .text:00000000000000b4 .L0 
     /tmp/ccjsO3RB.s:159    .text:00000000000000b4 .L0 
GAS LISTING /tmp/ccjsO3RB.s 			page 18


     /tmp/ccjsO3RB.s:160    .text:00000000000000b4 .L0 
     /tmp/ccjsO3RB.s:161    .text:00000000000000b4 .L0 
     /tmp/ccjsO3RB.s:162    .text:00000000000000b4 .L0 
     /tmp/ccjsO3RB.s:167    .text:00000000000000b4 .L0 
     /tmp/ccjsO3RB.s:170    .text:00000000000000b8 .L0 
     /tmp/ccjsO3RB.s:173    .text:00000000000000bc .L0 
     /tmp/ccjsO3RB.s:174    .text:00000000000000bc .L0 
     /tmp/ccjsO3RB.s:175    .text:00000000000000bc .L0 
     /tmp/ccjsO3RB.s:176    .text:00000000000000bc .L0 
     /tmp/ccjsO3RB.s:177    .text:00000000000000bc .L0 
     /tmp/ccjsO3RB.s:179    .text:00000000000000bc .L0 
     /tmp/ccjsO3RB.s:183    .text:00000000000000c0 .L0 
     /tmp/ccjsO3RB.s:184    .text:00000000000000c4 .L0 
     /tmp/ccjsO3RB.s:185    .text:00000000000000c4 .L0 
     /tmp/ccjsO3RB.s:187    .text:00000000000000c8 .L0 
     /tmp/ccjsO3RB.s:188    .text:00000000000000c8 .L0 
     /tmp/ccjsO3RB.s:190    .text:00000000000000cc .L0 
     /tmp/ccjsO3RB.s:192    .text:00000000000000d0 .L0 
     /tmp/ccjsO3RB.s:195    .text:00000000000000d4 .L0 
     /tmp/ccjsO3RB.s:199    .text:00000000000000d8 .L0 
     /tmp/ccjsO3RB.s:201    .text:00000000000000d8 .L0 
     /tmp/ccjsO3RB.s:203    .text:00000000000000e0 .L0 
     /tmp/ccjsO3RB.s:209    .text:00000000000000e0 _ZN11MySemaphore7trywaitEv
     /tmp/ccjsO3RB.s:212    .text:00000000000000e0 .L0 
     /tmp/ccjsO3RB.s:214    .text:00000000000000e0 .L0 
     /tmp/ccjsO3RB.s:215    .text:00000000000000e4 .L0 
     /tmp/ccjsO3RB.s:217    .text:00000000000000e8 .L0 
     /tmp/ccjsO3RB.s:219    .text:00000000000000ec .L0 
     /tmp/ccjsO3RB.s:221    .text:00000000000000ec .L0 
     /tmp/ccjsO3RB.s:222    .text:00000000000000ec .L0 
     /tmp/ccjsO3RB.s:224    .text:00000000000000f0 .L0 
     /tmp/ccjsO3RB.s:226    .text:00000000000000f4 .L0 
     /tmp/ccjsO3RB.s:227    .text:00000000000000f4 .L0 
     /tmp/ccjsO3RB.s:229    .text:00000000000000f8 .L0 
     /tmp/ccjsO3RB.s:231    .text:00000000000000fc .L0 
     /tmp/ccjsO3RB.s:235    .text:0000000000000100 .L0 
     /tmp/ccjsO3RB.s:236    .text:0000000000000104 .L0 
     /tmp/ccjsO3RB.s:237    .text:0000000000000104 .L0 
     /tmp/ccjsO3RB.s:238    .text:0000000000000104 .L0 
     /tmp/ccjsO3RB.s:240    .text:0000000000000108 .L0 
     /tmp/ccjsO3RB.s:244    .text:000000000000010c .L0 
     /tmp/ccjsO3RB.s:246    .text:000000000000010c .L0 
     /tmp/ccjsO3RB.s:252    .text:0000000000000114 .L0 
     /tmp/ccjsO3RB.s:255    .text:000000000000011c .L0 
     /tmp/ccjsO3RB.s:261    .text:000000000000011c _ZN11MySemaphore5blockEv
     /tmp/ccjsO3RB.s:264    .text:000000000000011c .L0 
     /tmp/ccjsO3RB.s:266    .text:000000000000011c .L0 
     /tmp/ccjsO3RB.s:267    .text:0000000000000120 .L0 
     /tmp/ccjsO3RB.s:272    .text:0000000000000130 .L0 
     /tmp/ccjsO3RB.s:273    .text:0000000000000130 .L0 
     /tmp/ccjsO3RB.s:274    .text:0000000000000130 .L0 
     /tmp/ccjsO3RB.s:275    .text:0000000000000130 .L0 
     /tmp/ccjsO3RB.s:277    .text:0000000000000134 .L0 
     /tmp/ccjsO3RB.s:280    .text:0000000000000138 .L0 
     /tmp/ccjsO3RB.s:281    .text:0000000000000138 .L0 
     /tmp/ccjsO3RB.s:289    .text:0000000000000144 .L0 
     /tmp/ccjsO3RB.s:298    .text:0000000000000150 .L0 
GAS LISTING /tmp/ccjsO3RB.s 			page 19


     /tmp/ccjsO3RB.s:304    .text:0000000000000158 .L0 
     /tmp/ccjsO3RB.s:306    .text:000000000000015c .L0 
     /tmp/ccjsO3RB.s:308    .text:0000000000000160 .L0 
     /tmp/ccjsO3RB.s:310    .text:0000000000000164 .L0 
     /tmp/ccjsO3RB.s:316    .text:0000000000000168 .L0 
     /tmp/ccjsO3RB.s:317    .text:0000000000000168 .L0 
     /tmp/ccjsO3RB.s:323    .text:0000000000000174 .L0 
     /tmp/ccjsO3RB.s:324    .text:0000000000000174 .L0 
     /tmp/ccjsO3RB.s:330    .text:000000000000017c .L0 
     /tmp/ccjsO3RB.s:331    .text:0000000000000180 .L0 
     /tmp/ccjsO3RB.s:332    .text:0000000000000180 .L0 
     /tmp/ccjsO3RB.s:334    .text:0000000000000184 .L0 
     /tmp/ccjsO3RB.s:335    .text:0000000000000184 .L0 
     /tmp/ccjsO3RB.s:337    .text:0000000000000188 .L0 
     /tmp/ccjsO3RB.s:340    .text:000000000000018c .L0 
     /tmp/ccjsO3RB.s:342    .text:0000000000000190 .L0 
     /tmp/ccjsO3RB.s:346    .text:0000000000000194 .L0 
     /tmp/ccjsO3RB.s:350    .text:0000000000000194 .L0 
     /tmp/ccjsO3RB.s:355    .text:00000000000001a0 .L0 
     /tmp/ccjsO3RB.s:361    .text:00000000000001a0 _ZN11MySemaphore4waitEv
     /tmp/ccjsO3RB.s:364    .text:00000000000001a0 .L0 
     /tmp/ccjsO3RB.s:366    .text:00000000000001a0 .L0 
     /tmp/ccjsO3RB.s:367    .text:00000000000001a0 .L0 
     /tmp/ccjsO3RB.s:368    .text:00000000000001a0 .L0 
     /tmp/ccjsO3RB.s:370    .text:00000000000001a4 .L0 
     /tmp/ccjsO3RB.s:372    .text:00000000000001a8 .L0 
     /tmp/ccjsO3RB.s:373    .text:00000000000001ac .L0 
     /tmp/ccjsO3RB.s:377    .text:00000000000001b8 .L0 
     /tmp/ccjsO3RB.s:378    .text:00000000000001b8 .L0 
     /tmp/ccjsO3RB.s:379    .text:00000000000001b8 .L0 
     /tmp/ccjsO3RB.s:381    .text:00000000000001bc .L0 
     /tmp/ccjsO3RB.s:384    .text:00000000000001c0 .L0 
     /tmp/ccjsO3RB.s:385    .text:00000000000001c0 .L0 
     /tmp/ccjsO3RB.s:387    .text:00000000000001c4 .L0 
     /tmp/ccjsO3RB.s:389    .text:00000000000001c8 .L0 
     /tmp/ccjsO3RB.s:391    .text:00000000000001cc .L0 
     /tmp/ccjsO3RB.s:394    .text:00000000000001d4 .L0 
     /tmp/ccjsO3RB.s:398    .text:00000000000001d8 .L0 
     /tmp/ccjsO3RB.s:399    .text:00000000000001dc .L0 
     /tmp/ccjsO3RB.s:400    .text:00000000000001dc .L0 
     /tmp/ccjsO3RB.s:402    .text:00000000000001e0 .L0 
     /tmp/ccjsO3RB.s:403    .text:00000000000001e0 .L0 
     /tmp/ccjsO3RB.s:405    .text:00000000000001e4 .L0 
     /tmp/ccjsO3RB.s:408    .text:00000000000001e8 .L0 
     /tmp/ccjsO3RB.s:412    .text:00000000000001ec .L0 
     /tmp/ccjsO3RB.s:414    .text:00000000000001ec .L0 
     /tmp/ccjsO3RB.s:415    .text:00000000000001ec .L0 
     /tmp/ccjsO3RB.s:418    .text:00000000000001f4 .L0 
     /tmp/ccjsO3RB.s:419    .text:00000000000001f4 .L0 
     /tmp/ccjsO3RB.s:422    .text:00000000000001fc .L0 
     /tmp/ccjsO3RB.s:423    .text:00000000000001fc .L0 
     /tmp/ccjsO3RB.s:425    .text:0000000000000200 .L0 
     /tmp/ccjsO3RB.s:427    .text:0000000000000204 .L0 
     /tmp/ccjsO3RB.s:431    .text:000000000000020c .L0 
     /tmp/ccjsO3RB.s:432    .text:000000000000020c .L0 
     /tmp/ccjsO3RB.s:433    .text:000000000000020c .L0 
     /tmp/ccjsO3RB.s:434    .text:000000000000020c .L0 
GAS LISTING /tmp/ccjsO3RB.s 			page 20


     /tmp/ccjsO3RB.s:436    .text:000000000000020c .L0 
     /tmp/ccjsO3RB.s:439    .text:0000000000000210 .L0 
     /tmp/ccjsO3RB.s:442    .text:0000000000000214 .L0 
     /tmp/ccjsO3RB.s:443    .text:0000000000000214 .L0 
     /tmp/ccjsO3RB.s:444    .text:0000000000000214 .L0 
     /tmp/ccjsO3RB.s:445    .text:0000000000000214 .L0 
     /tmp/ccjsO3RB.s:447    .text:0000000000000214 .L0 
     /tmp/ccjsO3RB.s:449    .text:000000000000021c .L0 
     /tmp/ccjsO3RB.s:455    .text:000000000000021c _ZN11MySemaphore7unblockEv
     /tmp/ccjsO3RB.s:458    .text:000000000000021c .L0 
     /tmp/ccjsO3RB.s:460    .text:000000000000021c .L0 
     /tmp/ccjsO3RB.s:465    .text:0000000000000220 .L0 
     /tmp/ccjsO3RB.s:466    .text:0000000000000220 .L0 
     /tmp/ccjsO3RB.s:469    .text:0000000000000224 .L0 
     /tmp/ccjsO3RB.s:471    .text:0000000000000228 .L0 
     /tmp/ccjsO3RB.s:476    .text:000000000000022c .L0 
     /tmp/ccjsO3RB.s:478    .text:0000000000000230 .L0 
     /tmp/ccjsO3RB.s:479    .text:0000000000000234 .L0 
     /tmp/ccjsO3RB.s:483    .text:0000000000000240 .L0 
     /tmp/ccjsO3RB.s:484    .text:0000000000000240 .L0 
     /tmp/ccjsO3RB.s:485    .text:0000000000000240 .L0 
     /tmp/ccjsO3RB.s:487    .text:0000000000000244 .L0 
     /tmp/ccjsO3RB.s:492    .text:0000000000000244 .L0 
     /tmp/ccjsO3RB.s:493    .text:0000000000000244 .L0 
     /tmp/ccjsO3RB.s:495    .text:0000000000000248 .L0 
     /tmp/ccjsO3RB.s:497    .text:000000000000024c .L0 
     /tmp/ccjsO3RB.s:500    .text:0000000000000250 .L0 
     /tmp/ccjsO3RB.s:505    .text:0000000000000254 .L0 
     /tmp/ccjsO3RB.s:514    .text:000000000000025c .L0 
     /tmp/ccjsO3RB.s:515    .text:000000000000025c .L0 
     /tmp/ccjsO3RB.s:516    .text:000000000000025c .L0 
     /tmp/ccjsO3RB.s:521    .text:0000000000000260 .L0 
     /tmp/ccjsO3RB.s:522    .text:0000000000000260 .L0 
     /tmp/ccjsO3RB.s:526    .text:000000000000026c .L0 
     /tmp/ccjsO3RB.s:527    .text:0000000000000270 .L0 
     /tmp/ccjsO3RB.s:528    .text:0000000000000270 .L0 
     /tmp/ccjsO3RB.s:530    .text:0000000000000274 .L0 
     /tmp/ccjsO3RB.s:531    .text:0000000000000274 .L0 
     /tmp/ccjsO3RB.s:533    .text:0000000000000278 .L0 
     /tmp/ccjsO3RB.s:536    .text:000000000000027c .L0 
     /tmp/ccjsO3RB.s:540    .text:0000000000000280 .L0 
     /tmp/ccjsO3RB.s:544    .text:0000000000000280 .L0 
     /tmp/ccjsO3RB.s:548    .text:0000000000000288 .L0 
     /tmp/ccjsO3RB.s:549    .text:0000000000000288 .L0 
     /tmp/ccjsO3RB.s:550    .text:0000000000000288 .L0 
     /tmp/ccjsO3RB.s:551    .text:0000000000000288 .L0 
     /tmp/ccjsO3RB.s:555    .text:000000000000028c .L0 
     /tmp/ccjsO3RB.s:561    .text:000000000000028c _ZN11MySemaphore6signalEv
     /tmp/ccjsO3RB.s:564    .text:000000000000028c .L0 
     /tmp/ccjsO3RB.s:566    .text:000000000000028c .L0 
     /tmp/ccjsO3RB.s:567    .text:000000000000028c .L0 
     /tmp/ccjsO3RB.s:568    .text:000000000000028c .L0 
     /tmp/ccjsO3RB.s:570    .text:0000000000000290 .L0 
     /tmp/ccjsO3RB.s:572    .text:0000000000000294 .L0 
     /tmp/ccjsO3RB.s:573    .text:0000000000000294 .L0 
     /tmp/ccjsO3RB.s:575    .text:0000000000000298 .L0 
     /tmp/ccjsO3RB.s:578    .text:00000000000002a0 .L0 
GAS LISTING /tmp/ccjsO3RB.s 			page 21


     /tmp/ccjsO3RB.s:580    .text:00000000000002a4 .L0 
     /tmp/ccjsO3RB.s:582    .text:00000000000002a8 .L0 
     /tmp/ccjsO3RB.s:585    .text:00000000000002ac .L0 
     /tmp/ccjsO3RB.s:589    .text:00000000000002b0 .L0 
     /tmp/ccjsO3RB.s:590    .text:00000000000002b4 .L0 
     /tmp/ccjsO3RB.s:593    .text:00000000000002bc .L0 
     /tmp/ccjsO3RB.s:594    .text:00000000000002bc .L0 
     /tmp/ccjsO3RB.s:596    .text:00000000000002c0 .L0 
     /tmp/ccjsO3RB.s:598    .text:00000000000002c0 .L0 
     /tmp/ccjsO3RB.s:599    .text:00000000000002c0 .L0 
     /tmp/ccjsO3RB.s:602    .text:00000000000002c8 .L0 
     /tmp/ccjsO3RB.s:604    .text:00000000000002cc .L0 
     /tmp/ccjsO3RB.s:605    .text:00000000000002d0 .L0 
     /tmp/ccjsO3RB.s:607    .text:00000000000002d4 .L0 
     /tmp/ccjsO3RB.s:608    .text:00000000000002d4 .L0 
     /tmp/ccjsO3RB.s:610    .text:00000000000002d8 .L0 
     /tmp/ccjsO3RB.s:615    .text:00000000000002dc .L0 
     /tmp/ccjsO3RB.s:618    .text:00000000000002e4 .L0 
     /tmp/ccjsO3RB.s:626    .text:00000000000002e4 .L0 
     /tmp/ccjsO3RB.s:281    .text:0000000000000138 .L0 
     /tmp/ccjsO3RB.s:317    .text:0000000000000168 .L0 
     /tmp/ccjsO3RB.s:157    .text:00000000000000b4 .L7
     /tmp/ccjsO3RB.s:139    .text:000000000000009c .L6
     /tmp/ccjsO3RB.s:198    .text:00000000000000d8 .L9
     /tmp/ccjsO3RB.s:172    .text:00000000000000bc .L8
     /tmp/ccjsO3RB.s:106    .text:000000000000007c .L5
     /tmp/ccjsO3RB.s:100    .text:0000000000000078 .L14
     /tmp/ccjsO3RB.s:181    .text:00000000000000c0 .L4
     /tmp/ccjsO3RB.s:243    .text:000000000000010c .L17
     /tmp/ccjsO3RB.s:250    .text:0000000000000114 .L18
     /tmp/ccjsO3RB.s:233    .text:0000000000000100 .L16
     /tmp/ccjsO3RB.s:345    .text:0000000000000194 .L21
     /tmp/ccjsO3RB.s:311    .text:0000000000000168 .L22
     /tmp/ccjsO3RB.s:430    .text:000000000000020c .L26
     /tmp/ccjsO3RB.s:411    .text:00000000000001ec .L33
     /tmp/ccjsO3RB.s:441    .text:0000000000000214 .L28
     /tmp/ccjsO3RB.s:396    .text:00000000000001d8 .L25
     /tmp/ccjsO3RB.s:547    .text:0000000000000288 .L38
     /tmp/ccjsO3RB.s:539    .text:0000000000000280 .L41
     /tmp/ccjsO3RB.s:498    .text:0000000000000250 .L36
     /tmp/ccjsO3RB.s:613    .text:00000000000002dc .L44
     /tmp/ccjsO3RB.s:587    .text:00000000000002b0 .L50
     /tmp/ccjsO3RB.s:2261   .debug_abbrev:0000000000000000 .Ldebug_abbrev0
     /tmp/ccjsO3RB.s:4097   .debug_str:000000000000086f .LASF143
     /tmp/ccjsO3RB.s:4089   .debug_str:000000000000082e .LASF144
     /tmp/ccjsO3RB.s:3923   .debug_str:00000000000002c5 .LASF145
     /tmp/ccjsO3RB.s:5      .text:0000000000000000 .Ltext0
     /tmp/ccjsO3RB.s:621    .text:00000000000002e4 .Letext0
     /tmp/ccjsO3RB.s:3841   .debug_line:0000000000000000 .Ldebug_line0
     /tmp/ccjsO3RB.s:3951   .debug_str:0000000000000399 .LASF0
     /tmp/ccjsO3RB.s:3969   .debug_str:0000000000000428 .LASF1
     /tmp/ccjsO3RB.s:4045   .debug_str:00000000000006c2 .LASF2
     /tmp/ccjsO3RB.s:4051   .debug_str:000000000000070d .LASF4
     /tmp/ccjsO3RB.s:3957   .debug_str:00000000000003c9 .LASF3
     /tmp/ccjsO3RB.s:3857   .debug_str:0000000000000080 .LASF5
     /tmp/ccjsO3RB.s:4025   .debug_str:00000000000005dd .LASF6
     /tmp/ccjsO3RB.s:3963   .debug_str:0000000000000407 .LASF7
GAS LISTING /tmp/ccjsO3RB.s 			page 22


     /tmp/ccjsO3RB.s:3939   .debug_str:000000000000032f .LASF8
     /tmp/ccjsO3RB.s:3941   .debug_str:000000000000033f .LASF9
     /tmp/ccjsO3RB.s:3885   .debug_str:0000000000000161 .LASF10
     /tmp/ccjsO3RB.s:3933   .debug_str:0000000000000311 .LASF11
     /tmp/ccjsO3RB.s:3899   .debug_str:00000000000001ef .LASF12
     /tmp/ccjsO3RB.s:3883   .debug_str:0000000000000151 .LASF13
     /tmp/ccjsO3RB.s:4075   .debug_str:00000000000007de .LASF14
     /tmp/ccjsO3RB.s:3915   .debug_str:000000000000027c .LASF15
     /tmp/ccjsO3RB.s:4065   .debug_str:0000000000000764 .LASF16
     /tmp/ccjsO3RB.s:3921   .debug_str:00000000000002bd .LASF54
     /tmp/ccjsO3RB.s:3887   .debug_str:0000000000000170 .LASF17
     /tmp/ccjsO3RB.s:3967   .debug_str:0000000000000423 .LASF18
     /tmp/ccjsO3RB.s:4019   .debug_str:00000000000005b9 .LASF23
     /tmp/ccjsO3RB.s:3993   .debug_str:00000000000004c4 .LASF19
     /tmp/ccjsO3RB.s:3859   .debug_str:0000000000000087 .LASF21
     /tmp/ccjsO3RB.s:4081   .debug_str:00000000000007fa .LASF20
     /tmp/ccjsO3RB.s:3995   .debug_str:00000000000004ce .LASF22
     /tmp/ccjsO3RB.s:3861   .debug_str:00000000000000a8 .LASF34
     /tmp/ccjsO3RB.s:3943   .debug_str:000000000000034d .LASF36
     /tmp/ccjsO3RB.s:3865   .debug_str:00000000000000be .LASF24
     /tmp/ccjsO3RB.s:3955   .debug_str:00000000000003bf .LASF25
     /tmp/ccjsO3RB.s:4009   .debug_str:0000000000000544 .LASF27
     /tmp/ccjsO3RB.s:3919   .debug_str:00000000000002ae .LASF26
     /tmp/ccjsO3RB.s:4029   .debug_str:000000000000060b .LASF28
     /tmp/ccjsO3RB.s:3959   .debug_str:00000000000003db .LASF29
     /tmp/ccjsO3RB.s:4049   .debug_str:00000000000006da .LASF30
     /tmp/ccjsO3RB.s:3913   .debug_str:000000000000026a .LASF31
     /tmp/ccjsO3RB.s:4001   .debug_str:0000000000000500 .LASF32
     /tmp/ccjsO3RB.s:3937   .debug_str:0000000000000325 .LASF33
     /tmp/ccjsO3RB.s:4061   .debug_str:0000000000000740 .LASF98
     /tmp/ccjsO3RB.s:4113   .debug_str:00000000000009a0 .LASF35
     /tmp/ccjsO3RB.s:4017   .debug_str:0000000000000596 .LASF37
     /tmp/ccjsO3RB.s:4137   .debug_str:0000000000000a72 .LASF146
     /tmp/ccjsO3RB.s:3947   .debug_str:000000000000037b .LASF147
     /tmp/ccjsO3RB.s:4121   .debug_str:00000000000009f3 .LASF38
     /tmp/ccjsO3RB.s:3999   .debug_str:00000000000004fb .LASF39
     /tmp/ccjsO3RB.s:4067   .debug_str:000000000000077a .LASF40
     /tmp/ccjsO3RB.s:3927   .debug_str:00000000000002ef .LASF46
     /tmp/ccjsO3RB.s:4047   .debug_str:00000000000006d0 .LASF148
     /tmp/ccjsO3RB.s:4039   .debug_str:0000000000000682 .LASF149
     /tmp/ccjsO3RB.s:3965   .debug_str:000000000000041a .LASF41
     /tmp/ccjsO3RB.s:3877   .debug_str:0000000000000107 .LASF42
     /tmp/ccjsO3RB.s:3979   .debug_str:000000000000047a .LASF43
     /tmp/ccjsO3RB.s:3917   .debug_str:0000000000000292 .LASF44
     /tmp/ccjsO3RB.s:4021   .debug_str:00000000000005c9 .LASF45
     /tmp/ccjsO3RB.s:4123   .debug_str:00000000000009fd .LASF47
     /tmp/ccjsO3RB.s:4057   .debug_str:000000000000072a .LASF48
     /tmp/ccjsO3RB.s:3961   .debug_str:00000000000003ea .LASF49
     /tmp/ccjsO3RB.s:4151   .debug_str:0000000000000ae9 .LASF50
     /tmp/ccjsO3RB.s:4141   .debug_str:0000000000000a98 .LASF51
     /tmp/ccjsO3RB.s:4035   .debug_str:000000000000066e .LASF52
     /tmp/ccjsO3RB.s:3851   .debug_str:0000000000000032 .LASF53
     /tmp/ccjsO3RB.s:4127   .debug_str:0000000000000a22 .LASF55
     /tmp/ccjsO3RB.s:3987   .debug_str:0000000000000498 .LASF56
     /tmp/ccjsO3RB.s:4071   .debug_str:00000000000007af .LASF57
     /tmp/ccjsO3RB.s:4145   .debug_str:0000000000000ab8 .LASF58
     /tmp/ccjsO3RB.s:3907   .debug_str:000000000000022f .LASF59
GAS LISTING /tmp/ccjsO3RB.s 			page 23


     /tmp/ccjsO3RB.s:3989   .debug_str:000000000000049d .LASF60
     /tmp/ccjsO3RB.s:3901   .debug_str:00000000000001ff .LASF61
     /tmp/ccjsO3RB.s:3847   .debug_str:000000000000001a .LASF62
     /tmp/ccjsO3RB.s:4149   .debug_str:0000000000000acd .LASF108
     /tmp/ccjsO3RB.s:4063   .debug_str:0000000000000751 .LASF150
     /tmp/ccjsO3RB.s:4015   .debug_str:000000000000057a .LASF151
     /tmp/ccjsO3RB.s:3931   .debug_str:000000000000030c .LASF63
     /tmp/ccjsO3RB.s:4007   .debug_str:000000000000053f .LASF64
     /tmp/ccjsO3RB.s:3889   .debug_str:0000000000000175 .LASF65
     /tmp/ccjsO3RB.s:4101   .debug_str:0000000000000947 .LASF66
     /tmp/ccjsO3RB.s:4129   .debug_str:0000000000000a2a .LASF67
     /tmp/ccjsO3RB.s:4053   .debug_str:0000000000000714 .LASF68
     /tmp/ccjsO3RB.s:3855   .debug_str:0000000000000074 .LASF69
     /tmp/ccjsO3RB.s:4083   .debug_str:0000000000000803 .LASF70
     /tmp/ccjsO3RB.s:4003   .debug_str:0000000000000512 .LASF71
     /tmp/ccjsO3RB.s:3871   .debug_str:00000000000000e4 .LASF72
     /tmp/ccjsO3RB.s:4111   .debug_str:0000000000000989 .LASF73
     /tmp/ccjsO3RB.s:4135   .debug_str:0000000000000a68 .LASF74
     /tmp/ccjsO3RB.s:3879   .debug_str:0000000000000124 .LASF75
     /tmp/ccjsO3RB.s:4085   .debug_str:000000000000080e .LASF76
     /tmp/ccjsO3RB.s:3895   .debug_str:00000000000001bf .LASF77
     /tmp/ccjsO3RB.s:3869   .debug_str:00000000000000dc .LASF78
     /tmp/ccjsO3RB.s:4031   .debug_str:000000000000063e .LASF79
     /tmp/ccjsO3RB.s:4023   .debug_str:00000000000005d5 .LASF80
     /tmp/ccjsO3RB.s:4139   .debug_str:0000000000000a86 .LASF81
     /tmp/ccjsO3RB.s:4059   .debug_str:0000000000000735 .LASF82
     /tmp/ccjsO3RB.s:3991   .debug_str:00000000000004ad .LASF83
     /tmp/ccjsO3RB.s:3985   .debug_str:000000000000048d .LASF84
     /tmp/ccjsO3RB.s:4005   .debug_str:0000000000000529 .LASF85
     /tmp/ccjsO3RB.s:3905   .debug_str:0000000000000228 .LASF86
     /tmp/ccjsO3RB.s:4133   .debug_str:0000000000000a56 .LASF87
     /tmp/ccjsO3RB.s:3975   .debug_str:0000000000000454 .LASF88
     /tmp/ccjsO3RB.s:4115   .debug_str:00000000000009b2 .LASF89
     /tmp/ccjsO3RB.s:4073   .debug_str:00000000000007d1 .LASF90
     /tmp/ccjsO3RB.s:4117   .debug_str:00000000000009cb .LASF91
     /tmp/ccjsO3RB.s:4013   .debug_str:0000000000000575 .LASF152
     /tmp/ccjsO3RB.s:4107   .debug_str:0000000000000965 .LASF92
     /tmp/ccjsO3RB.s:3893   .debug_str:0000000000000190 .LASF93
     /tmp/ccjsO3RB.s:4091   .debug_str:0000000000000842 .LASF94
     /tmp/ccjsO3RB.s:4093   .debug_str:000000000000084e .LASF95
     /tmp/ccjsO3RB.s:3971   .debug_str:000000000000043b .LASF96
     /tmp/ccjsO3RB.s:4103   .debug_str:000000000000094c .LASF97
     /tmp/ccjsO3RB.s:4095   .debug_str:0000000000000867 .LASF99
     /tmp/ccjsO3RB.s:4099   .debug_str:0000000000000933 .LASF153
     /tmp/ccjsO3RB.s:3845   .debug_str:0000000000000015 .LASF100
     /tmp/ccjsO3RB.s:3983   .debug_str:0000000000000487 .LASF101
     /tmp/ccjsO3RB.s:4109   .debug_str:0000000000000981 .LASF102
     /tmp/ccjsO3RB.s:4037   .debug_str:0000000000000677 .LASF103
     /tmp/ccjsO3RB.s:4143   .debug_str:0000000000000ab3 .LASF104
     /tmp/ccjsO3RB.s:4079   .debug_str:00000000000007f1 .LASF105
     /tmp/ccjsO3RB.s:4011   .debug_str:000000000000056d .LASF106
     /tmp/ccjsO3RB.s:3875   .debug_str:00000000000000f9 .LASF110
     /tmp/ccjsO3RB.s:3977   .debug_str:0000000000000461 .LASF112
     /tmp/ccjsO3RB.s:3903   .debug_str:000000000000021a .LASF107
     /tmp/ccjsO3RB.s:3853   .debug_str:000000000000004c .LASF109
     /tmp/ccjsO3RB.s:3873   .debug_str:00000000000000f0 .LASF111
     /tmp/ccjsO3RB.s:3891   .debug_str:000000000000017d .LASF113
GAS LISTING /tmp/ccjsO3RB.s 			page 24


     /tmp/ccjsO3RB.s:4055   .debug_str:0000000000000719 .LASF114
     /tmp/ccjsO3RB.s:3981   .debug_str:0000000000000482 .LASF115
     /tmp/ccjsO3RB.s:3997   .debug_str:00000000000004ef .LASF116
     /tmp/ccjsO3RB.s:3843   .debug_str:0000000000000000 .LASF117
     /tmp/ccjsO3RB.s:3909   .debug_str:000000000000024a .LASF118
     /tmp/ccjsO3RB.s:3881   .debug_str:0000000000000139 .LASF119
     /tmp/ccjsO3RB.s:4077   .debug_str:00000000000007ea .LASF120
     /tmp/ccjsO3RB.s:3897   .debug_str:00000000000001d5 .LASF121
     /tmp/ccjsO3RB.s:4041   .debug_str:0000000000000699 .LASF122
     /tmp/ccjsO3RB.s:4131   .debug_str:0000000000000a32 .LASF123
     /tmp/ccjsO3RB.s:4105   .debug_str:000000000000095c .LASF124
     /tmp/ccjsO3RB.s:4033   .debug_str:0000000000000651 .LASF125
     /tmp/ccjsO3RB.s:3863   .debug_str:00000000000000b8 .LASF126
     /tmp/ccjsO3RB.s:4043   .debug_str:00000000000006a9 .LASF127
     /tmp/ccjsO3RB.s:4119   .debug_str:00000000000009eb .LASF128
     /tmp/ccjsO3RB.s:4027   .debug_str:00000000000005f0 .LASF129
     /tmp/ccjsO3RB.s:3949   .debug_str:0000000000000393 .LASF130
     /tmp/ccjsO3RB.s:3953   .debug_str:00000000000003a6 .LASF131
     /tmp/ccjsO3RB.s:3849   .debug_str:000000000000002a .LASF132
     /tmp/ccjsO3RB.s:3911   .debug_str:000000000000024f .LASF133
     /tmp/ccjsO3RB.s:4125   .debug_str:0000000000000a1b .LASF134
     /tmp/ccjsO3RB.s:3945   .debug_str:0000000000000375 .LASF135
     /tmp/ccjsO3RB.s:3935   .debug_str:0000000000000320 .LASF136
     /tmp/ccjsO3RB.s:4069   .debug_str:000000000000078d .LASF139
     /tmp/ccjsO3RB.s:4147   .debug_str:0000000000000ac5 .LASF137
     /tmp/ccjsO3RB.s:3925   .debug_str:00000000000002e8 .LASF138
     /tmp/ccjsO3RB.s:3973   .debug_str:0000000000000441 .LASF140
     /tmp/ccjsO3RB.s:456    .text:000000000000021c .LFB60
     /tmp/ccjsO3RB.s:556    .text:000000000000028c .LFE60
     /tmp/ccjsO3RB.s:3340   .debug_loc:0000000000000000 .LLST23
     /tmp/ccjsO3RB.s:3362   .debug_loc:000000000000005f .LLST24
     /tmp/ccjsO3RB.s:463    .text:0000000000000220 .LBB67
     /tmp/ccjsO3RB.s:474    .text:000000000000022c .LBE67
     /tmp/ccjsO3RB.s:3369   .debug_loc:0000000000000082 .LLST25
     /tmp/ccjsO3RB.s:490    .text:0000000000000244 .LBB69
     /tmp/ccjsO3RB.s:3815   .debug_ranges:0000000000000000 .Ldebug_ranges0
     /tmp/ccjsO3RB.s:3384   .debug_loc:00000000000000bc .LLST26
     /tmp/ccjsO3RB.s:3408   .debug_loc:000000000000010e .LLST27
     /tmp/ccjsO3RB.s:3419   .debug_loc:0000000000000144 .LLST28
     /tmp/ccjsO3RB.s:502    .text:0000000000000254 .LBB71
     /tmp/ccjsO3RB.s:508    .text:000000000000025c .LBE71
     /tmp/ccjsO3RB.s:3426   .debug_loc:0000000000000167 .LLST29
     /tmp/ccjsO3RB.s:506    .text:000000000000025c .LVL50
     /tmp/ccjsO3RB.s:512    .text:000000000000025c .LBB74
     /tmp/ccjsO3RB.s:519    .text:0000000000000260 .LBE74
     /tmp/ccjsO3RB.s:3433   .debug_loc:000000000000018a .LLST30
     /tmp/ccjsO3RB.s:3441   .debug_loc:00000000000001ae .LLST31
     /tmp/ccjsO3RB.s:524    .text:000000000000026c .LVL52
     /tmp/ccjsO3RB.s:262    .text:000000000000011c .LFB59
     /tmp/ccjsO3RB.s:356    .text:00000000000001a0 .LFE59
     /tmp/ccjsO3RB.s:3448   .debug_loc:00000000000001d1 .LLST13
     /tmp/ccjsO3RB.s:284    .text:0000000000000144 .LBB57
     /tmp/ccjsO3RB.s:3470   .debug_loc:0000000000000230 .LLST14
     /tmp/ccjsO3RB.s:3481   .debug_loc:0000000000000266 .LLST15
     /tmp/ccjsO3RB.s:286    .text:0000000000000144 .LBB59
     /tmp/ccjsO3RB.s:294    .text:0000000000000150 .LBE59
     /tmp/ccjsO3RB.s:3502   .debug_loc:00000000000002b5 .LLST16
GAS LISTING /tmp/ccjsO3RB.s 			page 25


     /tmp/ccjsO3RB.s:292    .text:0000000000000150 .LVL28
     /tmp/ccjsO3RB.s:295    .text:0000000000000150 .LBB61
     /tmp/ccjsO3RB.s:302    .text:0000000000000158 .LBE61
     /tmp/ccjsO3RB.s:3510   .debug_loc:00000000000002d9 .LLST17
     /tmp/ccjsO3RB.s:3518   .debug_loc:00000000000002fd .LLST18
     /tmp/ccjsO3RB.s:3525   .debug_loc:0000000000000320 .LLST19
     /tmp/ccjsO3RB.s:320    .text:0000000000000174 .LBB64
     /tmp/ccjsO3RB.s:328    .text:000000000000017c .LBE64
     /tmp/ccjsO3RB.s:3532   .debug_loc:0000000000000343 .LLST20
     /tmp/ccjsO3RB.s:3540   .debug_loc:0000000000000367 .LLST21
     /tmp/ccjsO3RB.s:210    .text:00000000000000e0 .LFB58
     /tmp/ccjsO3RB.s:256    .text:000000000000011c .LFE58
     /tmp/ccjsO3RB.s:3547   .debug_loc:000000000000038a .LLST12
     /tmp/ccjsO3RB.s:71     .text:0000000000000048 .LFB57
     /tmp/ccjsO3RB.s:204    .text:00000000000000e0 .LFE57
     /tmp/ccjsO3RB.s:3583   .debug_loc:0000000000000415 .LLST4
     /tmp/ccjsO3RB.s:3620   .debug_loc:00000000000004b0 .LLST5
     /tmp/ccjsO3RB.s:102    .text:0000000000000078 .LBB48
     /tmp/ccjsO3RB.s:3631   .debug_loc:00000000000004e6 .LLST6
     /tmp/ccjsO3RB.s:3652   .debug_loc:0000000000000535 .LLST7
     /tmp/ccjsO3RB.s:3663   .debug_loc:000000000000056b .LLST8
     /tmp/ccjsO3RB.s:110    .text:0000000000000080 .LBB50
     /tmp/ccjsO3RB.s:116    .text:0000000000000088 .LBE50
     /tmp/ccjsO3RB.s:3670   .debug_loc:000000000000058e .LLST9
     /tmp/ccjsO3RB.s:114    .text:0000000000000088 .LVL8
     /tmp/ccjsO3RB.s:123    .text:000000000000008c .LBB53
     /tmp/ccjsO3RB.s:131    .text:0000000000000090 .LBE53
     /tmp/ccjsO3RB.s:3677   .debug_loc:00000000000005b1 .LLST10
     /tmp/ccjsO3RB.s:3685   .debug_loc:00000000000005d5 .LLST11
     /tmp/ccjsO3RB.s:136    .text:000000000000009c .LVL11
     /tmp/ccjsO3RB.s:10     .text:0000000000000000 .LFB56
     /tmp/ccjsO3RB.s:65     .text:0000000000000048 .LFE56
     /tmp/ccjsO3RB.s:3867   .debug_str:00000000000000d7 .LASF141
     /tmp/ccjsO3RB.s:3692   .debug_loc:00000000000005f8 .LLST0
     /tmp/ccjsO3RB.s:32     .text:0000000000000024 .LBB43
     /tmp/ccjsO3RB.s:52     .text:0000000000000034 .LBE43
     /tmp/ccjsO3RB.s:3706   .debug_loc:0000000000000631 .LLST1
     /tmp/ccjsO3RB.s:3713   .debug_loc:0000000000000654 .LLST2
     /tmp/ccjsO3RB.s:34     .text:0000000000000024 .LBB45
     /tmp/ccjsO3RB.s:42     .text:000000000000002c .LBE45
     /tmp/ccjsO3RB.s:3720   .debug_loc:0000000000000677 .LLST3
     /tmp/ccjsO3RB.s:31     .text:0000000000000024 .LVL2
     /tmp/ccjsO3RB.s:562    .text:000000000000028c .LFB55
     /tmp/ccjsO3RB.s:619    .text:00000000000002e4 .LFE55
     /tmp/ccjsO3RB.s:3729   .debug_loc:000000000000069c .LLST32
     /tmp/ccjsO3RB.s:600    .text:00000000000002c8 .LVL59
     /tmp/ccjsO3RB.s:362    .text:00000000000001a0 .LFB54
     /tmp/ccjsO3RB.s:450    .text:000000000000021c .LFE54
     /tmp/ccjsO3RB.s:3765   .debug_loc:0000000000000727 .LLST22
     /tmp/ccjsO3RB.s:416    .text:00000000000001f4 .LVL39
     /tmp/ccjsO3RB.s:420    .text:00000000000001fc .LVL40
     /tmp/ccjsO3RB.s:4087   .debug_str:0000000000000819 .LASF142
     /tmp/ccjsO3RB.s:3929   .debug_str:0000000000000306 .LASF154
     /tmp/ccjsO3RB.s:459    .text:000000000000021c .LVL44
     /tmp/ccjsO3RB.s:467    .text:0000000000000224 .LVL46
     /tmp/ccjsO3RB.s:538    .text:0000000000000280 .LVL54
     /tmp/ccjsO3RB.s:534    .text:0000000000000278 .LVL53
GAS LISTING /tmp/ccjsO3RB.s 			page 26


     /tmp/ccjsO3RB.s:462    .text:0000000000000220 .LVL45
     /tmp/ccjsO3RB.s:472    .text:000000000000022c .LVL47
     /tmp/ccjsO3RB.s:489    .text:0000000000000244 .LVL48
     /tmp/ccjsO3RB.s:546    .text:0000000000000288 .LVL55
     /tmp/ccjsO3RB.s:501    .text:0000000000000254 .LVL49
     /tmp/ccjsO3RB.s:517    .text:0000000000000260 .LVL51
     /tmp/ccjsO3RB.s:265    .text:000000000000011c .LVL25
     /tmp/ccjsO3RB.s:290    .text:0000000000000148 .LVL27
     /tmp/ccjsO3RB.s:338    .text:0000000000000188 .LVL33
     /tmp/ccjsO3RB.s:344    .text:0000000000000194 .LVL34
     /tmp/ccjsO3RB.s:283    .text:0000000000000144 .LVL26
     /tmp/ccjsO3RB.s:312    .text:0000000000000168 .LVL30
     /tmp/ccjsO3RB.s:300    .text:0000000000000158 .LVL29
     /tmp/ccjsO3RB.s:319    .text:0000000000000174 .LVL31
     /tmp/ccjsO3RB.s:326    .text:000000000000017c .LVL32
     /tmp/ccjsO3RB.s:213    .text:00000000000000e0 .LVL19
     /tmp/ccjsO3RB.s:232    .text:0000000000000100 .LVL20
     /tmp/ccjsO3RB.s:242    .text:000000000000010c .LVL21
     /tmp/ccjsO3RB.s:247    .text:0000000000000110 .LVL22
     /tmp/ccjsO3RB.s:249    .text:0000000000000114 .LVL23
     /tmp/ccjsO3RB.s:253    .text:0000000000000118 .LVL24
     /tmp/ccjsO3RB.s:74     .text:0000000000000048 .LVL5
     /tmp/ccjsO3RB.s:99     .text:0000000000000078 .LVL6
     /tmp/ccjsO3RB.s:156    .text:00000000000000b4 .LVL13
     /tmp/ccjsO3RB.s:168    .text:00000000000000b8 .LVL14
     /tmp/ccjsO3RB.s:171    .text:00000000000000bc .LVL15
     /tmp/ccjsO3RB.s:193    .text:00000000000000d0 .LVL17
     /tmp/ccjsO3RB.s:197    .text:00000000000000d8 .LVL18
     /tmp/ccjsO3RB.s:180    .text:00000000000000c0 .LVL16
     /tmp/ccjsO3RB.s:148    .text:00000000000000a4 .LVL12
     /tmp/ccjsO3RB.s:109    .text:0000000000000080 .LVL7
     /tmp/ccjsO3RB.s:122    .text:000000000000008c .LVL9
     /tmp/ccjsO3RB.s:129    .text:0000000000000090 .LVL10
     /tmp/ccjsO3RB.s:14     .text:0000000000000000 .LVL0
     /tmp/ccjsO3RB.s:29     .text:000000000000001c .LVL1
     /tmp/ccjsO3RB.s:50     .text:0000000000000034 .LVL4
     /tmp/ccjsO3RB.s:40     .text:000000000000002c .LVL3
     /tmp/ccjsO3RB.s:565    .text:000000000000028c .LVL56
     /tmp/ccjsO3RB.s:583    .text:00000000000002ac .LVL57
     /tmp/ccjsO3RB.s:586    .text:00000000000002b0 .LVL58
     /tmp/ccjsO3RB.s:612    .text:00000000000002dc .LVL60
     /tmp/ccjsO3RB.s:616    .text:00000000000002e0 .LVL61
     /tmp/ccjsO3RB.s:365    .text:00000000000001a0 .LVL35
     /tmp/ccjsO3RB.s:395    .text:00000000000001d8 .LVL36
     /tmp/ccjsO3RB.s:406    .text:00000000000001e4 .LVL37
     /tmp/ccjsO3RB.s:410    .text:00000000000001ec .LVL38
     /tmp/ccjsO3RB.s:429    .text:000000000000020c .LVL41
     /tmp/ccjsO3RB.s:437    .text:0000000000000210 .LVL42
     /tmp/ccjsO3RB.s:440    .text:0000000000000214 .LVL43
     /tmp/ccjsO3RB.s:627    .debug_info:0000000000000000 .Ldebug_info0
     /tmp/ccjsO3RB.s:101    .text:0000000000000078 .LBB47
     /tmp/ccjsO3RB.s:137    .text:000000000000009c .LBE47
     /tmp/ccjsO3RB.s:141    .text:000000000000009c .LBB56
     /tmp/ccjsO3RB.s:165    .text:00000000000000b4 .LBE56
     /tmp/ccjsO3RB.s:118    .text:0000000000000088 .LBE48
     /tmp/ccjsO3RB.s:142    .text:000000000000009c .LBB55
     /tmp/ccjsO3RB.s:164    .text:00000000000000b4 .LBE55
GAS LISTING /tmp/ccjsO3RB.s 			page 27


     /tmp/ccjsO3RB.s:314    .text:0000000000000168 .LBE57
     /tmp/ccjsO3RB.s:347    .text:0000000000000194 .LBB66
     /tmp/ccjsO3RB.s:354    .text:00000000000001a0 .LBE66
     /tmp/ccjsO3RB.s:510    .text:000000000000025c .LBE69
     /tmp/ccjsO3RB.s:541    .text:0000000000000280 .LBB76
     /tmp/ccjsO3RB.s:554    .text:000000000000028c .LBE76

UNDEFINED SYMBOLS
_Znwm
_ZN15MemoryAllocator8mem_freeEPv
_ZN9Scheduler3putEP3TCB
_ZN3TCB7runningE
_ZN15MemoryAllocator9mem_allocEm
_ZN3TCB8dispatchEv
