GAS LISTING /tmp/ccINhHMZ.s 			page 1


   1              		.file	"riscv.cpp"
   2              		.option pic
   3              		.option norelax
   4              		.text
   5              	.Ltext0:
   6              		.align	2
   7              		.globl	_ZN5Riscv10popSppSpieEv
   9              	_ZN5Riscv10popSppSpieEv:
  10              	.LFB42:
  11              		.file 1 "src/riscv.cpp"
   1:src/riscv.cpp **** #include "../h/riscv.hpp"
   2:src/riscv.cpp **** 
   3:src/riscv.cpp **** #include "../lib/console.h"
   4:src/riscv.cpp **** #include "../h/tcb.hpp"
   5:src/riscv.cpp **** #include "../h/printing.hpp"
   6:src/riscv.cpp **** 
   7:src/riscv.cpp **** void Riscv::popSppSpie() {
  12              		.loc 1 7 26
  13              		.cfi_startproc
  14 0000 130101FF 		addi	sp,sp,-16
  15              		.cfi_def_cfa_offset 16
  16 0004 23348100 		sd	s0,8(sp)
  17              		.cfi_offset 8, -8
  18 0008 13040101 		addi	s0,sp,16
  19              		.cfi_def_cfa 8, 0
   8:src/riscv.cpp ****     __asm__ volatile("csrw sepc, ra");
  20              		.loc 1 8 5
  21              		.loc 1 8 38 is_stmt 0
  22              	#APP
  23              	# 8 "src/riscv.cpp" 1
   9              	    mc_sstatus(SSTATUS_SPP);
  24              		csrw sepc, ra
  25              	# 0 "" 2
  26              		.loc 1 9 5 is_stmt 1
  27              	.LVL0:
  28              	#NO_APP
  29              	.LBB48:
  30              	.LBB49:
  31              		.file 2 "src/../h/riscv.hpp"
   1:src/../h/riscv.hpp **** #ifndef RISCV_H
   2:src/../h/riscv.hpp **** #define RISCV_H
   3:src/../h/riscv.hpp **** 
   4:src/../h/riscv.hpp **** #include "../lib/hw.h"
   5:src/../h/riscv.hpp **** 
   6:src/../h/riscv.hpp **** class Riscv {
   7:src/../h/riscv.hpp **** public:
   8:src/../h/riscv.hpp ****     // Stavljanje/skidanje registara x3,...,x31 na stek/sa steka
   9:src/../h/riscv.hpp ****     static void pushRegisters();
  10:src/../h/riscv.hpp ****     static void popRegisters();
  11:src/../h/riscv.hpp **** 
  12:src/../h/riscv.hpp ****     // Uzimanje vrednosti sstatus.spp i sstatus.spie bita (nije inline funkcija)
  13:src/../h/riscv.hpp ****     static void popSppSpie();
  14:src/../h/riscv.hpp **** 
  15:src/../h/riscv.hpp ****     // Citanje vrednosti registra scause
  16:src/../h/riscv.hpp ****     static uint64 r_scause();
  17:src/../h/riscv.hpp **** 
  18:src/../h/riscv.hpp ****     // Upisivanje u registar scause
GAS LISTING /tmp/ccINhHMZ.s 			page 2


  19:src/../h/riscv.hpp ****     static void w_scause(uint64 scause);
  20:src/../h/riscv.hpp **** 
  21:src/../h/riscv.hpp ****     // Citanje registra sepc
  22:src/../h/riscv.hpp ****     static uint64 r_sepc();
  23:src/../h/riscv.hpp **** 
  24:src/../h/riscv.hpp ****     // Upisivanje u registar sepc
  25:src/../h/riscv.hpp ****     static void w_sepc(uint64 sepc);
  26:src/../h/riscv.hpp **** 
  27:src/../h/riscv.hpp ****     // Citanje registra stvec
  28:src/../h/riscv.hpp ****     static uint64 r_stvec();
  29:src/../h/riscv.hpp **** 
  30:src/../h/riscv.hpp ****     // Upisivanje u registar stvec
  31:src/../h/riscv.hpp ****     static void w_stvec(uint64 stvec);
  32:src/../h/riscv.hpp **** 
  33:src/../h/riscv.hpp ****     // Citanje registra stval
  34:src/../h/riscv.hpp ****     static uint64 r_stval();
  35:src/../h/riscv.hpp **** 
  36:src/../h/riscv.hpp ****     // Upisivanje u registar stval
  37:src/../h/riscv.hpp ****     static void w_stval(uint64 stval);
  38:src/../h/riscv.hpp **** 
  39:src/../h/riscv.hpp ****     enum BitMaskSip {
  40:src/../h/riscv.hpp ****         SIP_SSIP = (1 << 1),
  41:src/../h/riscv.hpp ****         SIP_STIP = (1 << 5),
  42:src/../h/riscv.hpp ****         SIP_SEIP = (1 << 9)
  43:src/../h/riscv.hpp ****     };
  44:src/../h/riscv.hpp **** 
  45:src/../h/riscv.hpp ****     // Postavi masku za registar sip
  46:src/../h/riscv.hpp ****     static void ms_sip(uint64 mask);
  47:src/../h/riscv.hpp **** 
  48:src/../h/riscv.hpp ****     // Obrisi masku iz registra sip
  49:src/../h/riscv.hpp ****     static void mc_sip(uint64 mask);
  50:src/../h/riscv.hpp **** 
  51:src/../h/riscv.hpp ****     // Citanje registra sip
  52:src/../h/riscv.hpp ****     static uint64 r_sip();
  53:src/../h/riscv.hpp **** 
  54:src/../h/riscv.hpp ****     // Upisivanje u registar sip
  55:src/../h/riscv.hpp ****     static void w_sip(uint64 sip);
  56:src/../h/riscv.hpp **** 
  57:src/../h/riscv.hpp ****     enum BitMaskSstatus {
  58:src/../h/riscv.hpp ****         SSTATUS_SIE = (1 << 1),
  59:src/../h/riscv.hpp ****         SSTATUS_SPIE = (1 << 5),
  60:src/../h/riscv.hpp ****         SSTATUS_SPP = (1 << 8),
  61:src/../h/riscv.hpp ****     };
  62:src/../h/riscv.hpp **** 
  63:src/../h/riscv.hpp ****     // Postavi masku za registar sstatus
  64:src/../h/riscv.hpp ****     static void ms_sstatus(uint64 mask);
  65:src/../h/riscv.hpp **** 
  66:src/../h/riscv.hpp ****     // Obrisi masku iz registra sstatus
  67:src/../h/riscv.hpp ****     static void mc_sstatus(uint64 mask);
  68:src/../h/riscv.hpp **** 
  69:src/../h/riscv.hpp ****     // Citanje registra sstatus
  70:src/../h/riscv.hpp ****     static uint64 r_sstatus();
  71:src/../h/riscv.hpp **** 
  72:src/../h/riscv.hpp ****     // Upisivanje u registar sstatus
  73:src/../h/riscv.hpp ****     static void w_sstatus(uint64 sstatus);
  74:src/../h/riscv.hpp **** 
  75:src/../h/riscv.hpp ****     // Supervizorska prekidna rutina
GAS LISTING /tmp/ccINhHMZ.s 			page 3


  76:src/../h/riscv.hpp ****     static void supervisorTrap();
  77:src/../h/riscv.hpp **** 
  78:src/../h/riscv.hpp ****     // Citanje registra a0
  79:src/../h/riscv.hpp ****     static uint64 r_a0();
  80:src/../h/riscv.hpp **** 
  81:src/../h/riscv.hpp ****     // Upisivanje u registar a0
  82:src/../h/riscv.hpp ****     static void w_a0(uint64 value);
  83:src/../h/riscv.hpp **** 
  84:src/../h/riscv.hpp **** private:
  85:src/../h/riscv.hpp ****     // Rukovalac prekidnom rutinom
  86:src/../h/riscv.hpp ****     static void handleSupervisorTrap();
  87:src/../h/riscv.hpp **** };
  88:src/../h/riscv.hpp **** 
  89:src/../h/riscv.hpp **** inline uint64 Riscv::r_scause() {
  90:src/../h/riscv.hpp ****     uint64 volatile scause;
  91:src/../h/riscv.hpp ****     __asm__ volatile("csrr %0, scause" : "=r"(scause));
  92:src/../h/riscv.hpp ****     return scause;
  93:src/../h/riscv.hpp **** }
  94:src/../h/riscv.hpp **** 
  95:src/../h/riscv.hpp **** inline void Riscv::w_scause(uint64 scause) {
  96:src/../h/riscv.hpp ****     __asm__ volatile("csrw scause, %0" : : "r"(scause));
  97:src/../h/riscv.hpp **** }
  98:src/../h/riscv.hpp **** 
  99:src/../h/riscv.hpp **** inline uint64 Riscv::r_sepc() {
 100:src/../h/riscv.hpp ****     uint64 volatile sepc;
 101:src/../h/riscv.hpp ****     __asm__ volatile("csrr %0, sepc" : "=r"(sepc));
 102:src/../h/riscv.hpp ****     return sepc;
 103:src/../h/riscv.hpp **** }
 104:src/../h/riscv.hpp **** 
 105:src/../h/riscv.hpp **** inline void Riscv::w_sepc(uint64 sepc) {
 106:src/../h/riscv.hpp ****     __asm__ volatile("csrw sepc, %0" : : "r"(sepc));
 107:src/../h/riscv.hpp **** }
 108:src/../h/riscv.hpp **** 
 109:src/../h/riscv.hpp **** inline uint64 Riscv::r_stvec() {
 110:src/../h/riscv.hpp ****     uint64 volatile stvec;
 111:src/../h/riscv.hpp ****     __asm__ volatile("csrr %0, stvec" : "=r"(stvec));
 112:src/../h/riscv.hpp ****     return stvec;
 113:src/../h/riscv.hpp **** }
 114:src/../h/riscv.hpp **** 
 115:src/../h/riscv.hpp **** inline void Riscv::w_stvec(uint64 stvec) {
 116:src/../h/riscv.hpp ****     __asm__ volatile("csrw stvec, %0" : : "r"(stvec));
 117:src/../h/riscv.hpp **** }
 118:src/../h/riscv.hpp **** 
 119:src/../h/riscv.hpp **** inline uint64 Riscv::r_stval() {
 120:src/../h/riscv.hpp ****     uint64 volatile stval;
 121:src/../h/riscv.hpp ****     __asm__ volatile("csrr %0, stval" : "=r"(stval));
 122:src/../h/riscv.hpp ****     return stval;
 123:src/../h/riscv.hpp **** }
 124:src/../h/riscv.hpp **** 
 125:src/../h/riscv.hpp **** inline void Riscv::w_stval(uint64 stval) {
 126:src/../h/riscv.hpp ****     __asm__ volatile("csrw stval, %0" : : "r"(stval));
 127:src/../h/riscv.hpp **** }
 128:src/../h/riscv.hpp **** 
 129:src/../h/riscv.hpp **** inline void Riscv::ms_sip(uint64 mask) {
 130:src/../h/riscv.hpp ****     __asm__ volatile("csrs sip, %0" : : "r"(mask));
 131:src/../h/riscv.hpp **** }
 132:src/../h/riscv.hpp **** 
GAS LISTING /tmp/ccINhHMZ.s 			page 4


 133:src/../h/riscv.hpp **** inline void Riscv::mc_sip(uint64 mask) {
 134:src/../h/riscv.hpp ****     __asm__ volatile("csrc sip, %0" : : "r"(mask));
 135:src/../h/riscv.hpp **** }
 136:src/../h/riscv.hpp **** 
 137:src/../h/riscv.hpp **** inline uint64 Riscv::r_sip() {
 138:src/../h/riscv.hpp ****     uint64 volatile sip;
 139:src/../h/riscv.hpp ****     __asm__ volatile("csrr %0, sip" : "=r"(sip));
 140:src/../h/riscv.hpp ****     return sip;
 141:src/../h/riscv.hpp **** }
 142:src/../h/riscv.hpp **** 
 143:src/../h/riscv.hpp **** inline void Riscv::w_sip(uint64 sip) {
 144:src/../h/riscv.hpp ****     __asm__ volatile("csrc sip, %0" : : "r"(sip));
 145:src/../h/riscv.hpp **** }
 146:src/../h/riscv.hpp **** 
 147:src/../h/riscv.hpp **** inline void Riscv::ms_sstatus(uint64 mask) {
 148:src/../h/riscv.hpp ****     __asm__ volatile("csrs sstatus, %0" : : "r"(mask));
 149:src/../h/riscv.hpp **** }
 150:src/../h/riscv.hpp **** 
 151:src/../h/riscv.hpp **** inline void Riscv::mc_sstatus(uint64 mask) {
 152:src/../h/riscv.hpp ****     __asm__ volatile("csrc sstatus, %0" : : "r"(mask));
  32              		.loc 2 152 5
  33              		.loc 2 152 55 is_stmt 0
  34 0010 93070010 		li	a5,256
  35              	#APP
  36              	# 152 "src/../h/riscv.hpp" 1
 153              	}
  37              		csrc sstatus, a5
  38              	# 0 "" 2
  39              	.LVL1:
  40              	#NO_APP
  41              	.LBE49:
  42              	.LBE48:
  10:src/riscv.cpp ****     __asm__ volatile("sret");
  43              		.loc 1 10 5 is_stmt 1
  44              		.loc 1 10 29 is_stmt 0
  45              	#APP
  46              	# 10 "src/riscv.cpp" 1
  11              	}
  47              		sret
  48              	# 0 "" 2
  49              		.loc 1 11 1
  50              	#NO_APP
  51 001c 03348100 		ld	s0,8(sp)
  52              		.cfi_restore 8
  53              		.cfi_def_cfa 2, 16
  54 0020 13010101 		addi	sp,sp,16
  55              		.cfi_def_cfa_offset 0
  56 0024 67800000 		jr	ra
  57              		.cfi_endproc
  58              	.LFE42:
  60              		.section	.rodata.str1.8,"aMS",@progbits,1
  61              		.align	3
  62              	.LC0:
  63 0000 56726564 		.string	"Vrednost sepc:"
  63      6E6F7374 
  63      20736570 
  63      633A00
GAS LISTING /tmp/ccINhHMZ.s 			page 5


  64 000f 00       		.align	3
  65              	.LC1:
  66 0010 2000     		.string	" "
  67 0012 00000000 		.align	3
  67      0000
  68              	.LC2:
  69 0018 56726564 		.string	"Vrednost stvec:"
  69      6E6F7374 
  69      20737476 
  69      65633A00 
  70              		.align	3
  71              	.LC3:
  72 0028 56726564 		.string	"Vrednost sstatus:"
  72      6E6F7374 
  72      20737374 
  72      61747573 
  72      3A00
  73 003a 00000000 		.align	3
  73      0000
  74              	.LC4:
  75 0040 56726564 		.string	"Vrednost scause: "
  75      6E6F7374 
  75      20736361 
  75      7573653A 
  75      2000
  76 0052 00000000 		.align	3
  76      0000
  77              	.LC5:
  78 0058 0A00     		.string	"\n"
  79              		.text
  80              		.align	2
  81              		.globl	_ZN5Riscv20handleSupervisorTrapEv
  83              	_ZN5Riscv20handleSupervisorTrapEv:
  84              	.LFB43:
  12:src/riscv.cpp **** 
  13:src/riscv.cpp **** void Riscv::handleSupervisorTrap() {
  85              		.loc 1 13 36 is_stmt 1
  86              		.cfi_startproc
  87 0028 130101F9 		addi	sp,sp,-112
  88              		.cfi_def_cfa_offset 112
  89 002c 23341106 		sd	ra,104(sp)
  90 0030 23308106 		sd	s0,96(sp)
  91 0034 233C9104 		sd	s1,88(sp)
  92 0038 23382105 		sd	s2,80(sp)
  93              		.cfi_offset 1, -8
  94              		.cfi_offset 8, -16
  95              		.cfi_offset 9, -24
  96              		.cfi_offset 18, -32
  97 003c 13040107 		addi	s0,sp,112
  98              		.cfi_def_cfa 8, 0
  14:src/riscv.cpp ****     uint64 scause = r_scause();
  99              		.loc 1 14 5
 100              	.LBB50:
 101              	.LBB51:
  90:src/../h/riscv.hpp ****     __asm__ volatile("csrr %0, scause" : "=r"(scause));
 102              		.loc 2 90 5
  91:src/../h/riscv.hpp ****     return scause;
GAS LISTING /tmp/ccINhHMZ.s 			page 6


 103              		.loc 2 91 5
  91:src/../h/riscv.hpp ****     return scause;
 104              		.loc 2 91 55 is_stmt 0
 105              	#APP
 106              	# 91 "src/../h/riscv.hpp" 1
 107              		csrr a5, scause
 108              	# 0 "" 2
 109              	#NO_APP
 110 0044 2338F4F8 		sd	a5,-112(s0)
  92:src/../h/riscv.hpp **** }
 111              		.loc 2 92 5 is_stmt 1
  92:src/../h/riscv.hpp **** }
 112              		.loc 2 92 12 is_stmt 0
 113 0048 033704F9 		ld	a4,-112(s0)
 114              	.LVL2:
 115              	.LBE51:
 116              	.LBE50:
  15:src/riscv.cpp ****     if(scause == 0x0000000000000008UL || scause == 0x0000000000000009UL) {
 117              		.loc 1 15 5 is_stmt 1
 118              	.LBB52:
 119              		.loc 1 15 39 is_stmt 0
 120 004c 930687FF 		addi	a3,a4,-8
 121              		.loc 1 15 5
 122 0050 93071000 		li	a5,1
 123 0054 63F4D712 		bleu	a3,a5,.L13
 124              	.LBE52:
  16:src/riscv.cpp ****         // Nije se dogodio prekid, sistemski poziv iz korisnickog ili sistemskog rezima rezima
  17:src/riscv.cpp ****         uint64 sepc = r_sepc() + 4;
  18:src/riscv.cpp ****         uint64 sstatus = r_sstatus();
  19:src/riscv.cpp ****         TCB::timeSliceCounter = 0;
  20:src/riscv.cpp **** 
  21:src/riscv.cpp ****         uint64 code = r_a0();
  22:src/riscv.cpp ****         void* ptr;
  23:src/riscv.cpp ****         int ret;
  24:src/riscv.cpp **** 
  25:src/riscv.cpp ****         // Semaphore
  26:src/riscv.cpp ****         switch (code) {
  27:src/riscv.cpp ****             // void* mem_alloc(size_t size)
  28:src/riscv.cpp ****             case 0x01:
  29:src/riscv.cpp ****                 size_t size;
  30:src/riscv.cpp **** 
  31:src/riscv.cpp ****                 __asm__ volatile("mv %0, a1" : "=r" (size));
  32:src/riscv.cpp **** 
  33:src/riscv.cpp ****                 ptr = MemoryAllocator::mem_alloc(size);
  34:src/riscv.cpp **** 
  35:src/riscv.cpp ****                 __asm__ volatile("mv a0, %0" : : "r" (ptr));
  36:src/riscv.cpp ****                 __asm__ volatile("sw a0, 80(x8)");
  37:src/riscv.cpp **** 
  38:src/riscv.cpp ****                 break;
  39:src/riscv.cpp **** 
  40:src/riscv.cpp ****             // int mem_free(void*)
  41:src/riscv.cpp ****             case 0x02:
  42:src/riscv.cpp ****                 __asm__ volatile("mv %0, a1" : "=r" (ptr));
  43:src/riscv.cpp **** 
  44:src/riscv.cpp ****                 ret = MemoryAllocator::mem_free(ptr);
  45:src/riscv.cpp **** 
  46:src/riscv.cpp ****                 __asm__ volatile("mv a0, %0" : : "r" (ret));
GAS LISTING /tmp/ccINhHMZ.s 			page 7


  47:src/riscv.cpp ****                 __asm__ volatile("sw a0, 80(x8)");
  48:src/riscv.cpp **** 
  49:src/riscv.cpp ****                 break;
  50:src/riscv.cpp **** 
  51:src/riscv.cpp ****             default:
  52:src/riscv.cpp ****                 break;
  53:src/riscv.cpp ****         }
  54:src/riscv.cpp **** 
  55:src/riscv.cpp ****         //TCB::dispatch();
  56:src/riscv.cpp ****         w_sstatus(sstatus);
  57:src/riscv.cpp ****         w_sepc(sepc);
  58:src/riscv.cpp ****     } else if(scause == 0x8000000000000001UL) {
 125              		.loc 1 58 12 is_stmt 1
 126              	.LBB100:
 127              	.LBB53:
 128 0058 9307F0FF 		li	a5,-1
 129 005c 9397F703 		slli	a5,a5,63
 130 0060 93871700 		addi	a5,a5,1
 131 0064 6306F71A 		beq	a4,a5,.L14
 132              	.LBE53:
 133              	.LBE100:
  59:src/riscv.cpp ****         // Dogodio se prekid, razlog: prekid od supervizora (tajmer)
  60:src/riscv.cpp ****         if(++TCB::timeSliceCounter >= TCB::running->getTimeSlice()) {
  61:src/riscv.cpp ****             uint64 sepc = r_sepc();
  62:src/riscv.cpp ****             uint64 sstatus = r_sstatus();
  63:src/riscv.cpp ****             TCB::timeSliceCounter = 0;
  64:src/riscv.cpp ****             TCB::dispatch();
  65:src/riscv.cpp ****             w_sstatus(sstatus);
  66:src/riscv.cpp ****             w_sepc(sepc);
  67:src/riscv.cpp ****         }
  68:src/riscv.cpp ****         mc_sip(SIP_SSIP);
  69:src/riscv.cpp ****     } else if (scause == 0x8000000000000009UL) {
 134              		.loc 1 69 12
 135              	.LBB101:
 136              	.LBB82:
 137              	.LBB54:
 138 0068 9307F0FF 		li	a5,-1
 139 006c 9397F703 		slli	a5,a5,63
 140 0070 93879700 		addi	a5,a5,9
 141 0074 6304F720 		beq	a4,a5,.L15
 142              	.LBB55:
  70:src/riscv.cpp ****         // Dogodio se prekid, razlog: spoljasni prekid (konzola)
  71:src/riscv.cpp ****         console_handler();
  72:src/riscv.cpp ****         mc_sip(SIP_SEIP);
  73:src/riscv.cpp ****     } else {
  74:src/riscv.cpp ****         // Neocekivani razlog prekida
  75:src/riscv.cpp ****         uint64 sepc = r_sepc();
 143              		.loc 1 75 9
 144              	.LBB56:
 145              	.LBB57:
 100:src/../h/riscv.hpp ****     __asm__ volatile("csrr %0, sepc" : "=r"(sepc));
 146              		.loc 2 100 5
 101:src/../h/riscv.hpp ****     return sepc;
 147              		.loc 2 101 5
 101:src/../h/riscv.hpp ****     return sepc;
 148              		.loc 2 101 51 is_stmt 0
 149              	#APP
GAS LISTING /tmp/ccINhHMZ.s 			page 8


 150              	# 101 "src/../h/riscv.hpp" 1
 151              		csrr a5, sepc
 152              	# 0 "" 2
 153              	#NO_APP
 154 007c 233CF4FC 		sd	a5,-40(s0)
 102:src/../h/riscv.hpp **** }
 155              		.loc 2 102 5 is_stmt 1
 102:src/../h/riscv.hpp **** }
 156              		.loc 2 102 12 is_stmt 0
 157 0080 833484FD 		ld	s1,-40(s0)
 158              	.LVL3:
 159              	.LBE57:
 160              	.LBE56:
  76:src/riscv.cpp ****         printString("Vrednost sepc:");
 161              		.loc 1 76 9 is_stmt 1
 162              		.loc 1 76 20 is_stmt 0
 163 0084 17050000 		lla	a0,.LC0
 163      13050500 
 164 008c 97000000 		call	_Z11printStringPKc@plt
 164      E7800000 
 165              	.LVL4:
  77:src/riscv.cpp ****         printInt(sepc);
 166              		.loc 1 77 9 is_stmt 1
 167              		.loc 1 77 17 is_stmt 0
 168 0094 13060000 		li	a2,0
 169 0098 9305A000 		li	a1,10
 170 009c 1B850400 		sext.w	a0,s1
 171 00a0 97000000 		call	_Z8printIntiii@plt
 171      E7800000 
 172              	.LVL5:
  78:src/riscv.cpp ****         printString(" ");
 173              		.loc 1 78 9 is_stmt 1
 174              		.loc 1 78 20 is_stmt 0
 175 00a8 17050000 		lla	a0,.LC1
 175      13050500 
 176 00b0 97000000 		call	_Z11printStringPKc@plt
 176      E7800000 
 177              	.LVL6:
  79:src/riscv.cpp ****         uint64 stvec = r_stvec();
 178              		.loc 1 79 9 is_stmt 1
 179              	.LBB58:
 180              	.LBB59:
 110:src/../h/riscv.hpp ****     __asm__ volatile("csrr %0, stvec" : "=r"(stvec));
 181              		.loc 2 110 5
 111:src/../h/riscv.hpp ****     return stvec;
 182              		.loc 2 111 5
 111:src/../h/riscv.hpp ****     return stvec;
 183              		.loc 2 111 53 is_stmt 0
 184              	#APP
 185              	# 111 "src/../h/riscv.hpp" 1
 186              		csrr a5, stvec
 187              	# 0 "" 2
 188              	#NO_APP
 189 00bc 2338F4FC 		sd	a5,-48(s0)
 112:src/../h/riscv.hpp **** }
 190              		.loc 2 112 5 is_stmt 1
 112:src/../h/riscv.hpp **** }
GAS LISTING /tmp/ccINhHMZ.s 			page 9


 191              		.loc 2 112 12 is_stmt 0
 192 00c0 833404FD 		ld	s1,-48(s0)
 193              	.LVL7:
 194              	.LBE59:
 195              	.LBE58:
  80:src/riscv.cpp ****         printString("Vrednost stvec:");
 196              		.loc 1 80 9 is_stmt 1
 197              		.loc 1 80 20 is_stmt 0
 198 00c4 17050000 		lla	a0,.LC2
 198      13050500 
 199 00cc 97000000 		call	_Z11printStringPKc@plt
 199      E7800000 
 200              	.LVL8:
  81:src/riscv.cpp ****         printInt(stvec);
 201              		.loc 1 81 9 is_stmt 1
 202              		.loc 1 81 17 is_stmt 0
 203 00d4 13060000 		li	a2,0
 204 00d8 9305A000 		li	a1,10
 205 00dc 1B850400 		sext.w	a0,s1
 206 00e0 97000000 		call	_Z8printIntiii@plt
 206      E7800000 
 207              	.LVL9:
  82:src/riscv.cpp ****         printString(" ");
 208              		.loc 1 82 9 is_stmt 1
 209              		.loc 1 82 20 is_stmt 0
 210 00e8 17050000 		lla	a0,.LC1
 210      13050500 
 211 00f0 97000000 		call	_Z11printStringPKc@plt
 211      E7800000 
 212              	.LVL10:
  83:src/riscv.cpp ****         uint64 sstatus = r_sstatus();
 213              		.loc 1 83 9 is_stmt 1
 214              	.LBB60:
 215              	.LBB61:
 154:src/../h/riscv.hpp **** 
 155:src/../h/riscv.hpp **** inline uint64 Riscv::r_sstatus() {
 156:src/../h/riscv.hpp ****     uint64 volatile sstatus;
 216              		.loc 2 156 5
 157:src/../h/riscv.hpp ****     __asm__ volatile("csrr %0, sstatus" : "=r"(sstatus));
 217              		.loc 2 157 5
 218              		.loc 2 157 57 is_stmt 0
 219              	#APP
 220              	# 157 "src/../h/riscv.hpp" 1
 158              	    return sstatus;
 221              		csrr a5, sstatus
 222              	# 0 "" 2
 223              	#NO_APP
 224 00fc 2334F4FC 		sd	a5,-56(s0)
 225              		.loc 2 158 5 is_stmt 1
 226              		.loc 2 158 12 is_stmt 0
 227 0100 833484FC 		ld	s1,-56(s0)
 228              	.LVL11:
 229              	.LBE61:
 230              	.LBE60:
  84:src/riscv.cpp ****         printString("Vrednost sstatus:");
 231              		.loc 1 84 9 is_stmt 1
 232              		.loc 1 84 20 is_stmt 0
GAS LISTING /tmp/ccINhHMZ.s 			page 10


 233 0104 17050000 		lla	a0,.LC3
 233      13050500 
 234 010c 97000000 		call	_Z11printStringPKc@plt
 234      E7800000 
 235              	.LVL12:
  85:src/riscv.cpp ****         printInt(sstatus);
 236              		.loc 1 85 9 is_stmt 1
 237              		.loc 1 85 17 is_stmt 0
 238 0114 13060000 		li	a2,0
 239 0118 9305A000 		li	a1,10
 240 011c 1B850400 		sext.w	a0,s1
 241 0120 97000000 		call	_Z8printIntiii@plt
 241      E7800000 
 242              	.LVL13:
  86:src/riscv.cpp ****         printString(" ");
 243              		.loc 1 86 9 is_stmt 1
 244              		.loc 1 86 20 is_stmt 0
 245 0128 17050000 		lla	a0,.LC1
 245      13050500 
 246 0130 97000000 		call	_Z11printStringPKc@plt
 246      E7800000 
 247              	.LVL14:
  87:src/riscv.cpp ****         uint64 scause = r_scause();
 248              		.loc 1 87 9 is_stmt 1
 249              	.LBB62:
 250              	.LBB63:
  90:src/../h/riscv.hpp ****     __asm__ volatile("csrr %0, scause" : "=r"(scause));
 251              		.loc 2 90 5
  91:src/../h/riscv.hpp ****     return scause;
 252              		.loc 2 91 5
  91:src/../h/riscv.hpp ****     return scause;
 253              		.loc 2 91 55 is_stmt 0
 254              	#APP
 255              	# 91 "src/../h/riscv.hpp" 1
 256              		csrr a5, scause
 257              	# 0 "" 2
 258              	#NO_APP
 259 013c 2330F4FC 		sd	a5,-64(s0)
  92:src/../h/riscv.hpp **** }
 260              		.loc 2 92 5 is_stmt 1
  92:src/../h/riscv.hpp **** }
 261              		.loc 2 92 12 is_stmt 0
 262 0140 833404FC 		ld	s1,-64(s0)
 263              	.LVL15:
 264              	.LBE63:
 265              	.LBE62:
  88:src/riscv.cpp ****         printString("Vrednost scause: ");
 266              		.loc 1 88 9 is_stmt 1
 267              		.loc 1 88 20 is_stmt 0
 268 0144 17050000 		lla	a0,.LC4
 268      13050500 
 269 014c 97000000 		call	_Z11printStringPKc@plt
 269      E7800000 
 270              	.LVL16:
  89:src/riscv.cpp ****         printInt(scause);
 271              		.loc 1 89 9 is_stmt 1
 272              		.loc 1 89 17 is_stmt 0
GAS LISTING /tmp/ccINhHMZ.s 			page 11


 273 0154 13060000 		li	a2,0
 274 0158 9305A000 		li	a1,10
 275 015c 1B850400 		sext.w	a0,s1
 276 0160 97000000 		call	_Z8printIntiii@plt
 276      E7800000 
 277              	.LVL17:
  90:src/riscv.cpp ****         printString("\n");
 278              		.loc 1 90 9 is_stmt 1
 279              		.loc 1 90 20 is_stmt 0
 280 0168 17050000 		lla	a0,.LC5
 280      13050500 
 281 0170 97000000 		call	_Z11printStringPKc@plt
 281      E7800000 
 282              	.LVL18:
 283              	.LBE55:
 284              	.LBE54:
 285              	.LBE82:
 286              	.LBE101:
  91:src/riscv.cpp ****     }
  92:src/riscv.cpp **** }
 287              		.loc 1 92 1
 288 0178 6F000005 		j	.L3
 289              	.LVL19:
 290              	.L13:
 291              	.LBB102:
 292              	.LBB83:
  17:src/riscv.cpp ****         uint64 sstatus = r_sstatus();
 293              		.loc 1 17 9 is_stmt 1
 294              	.LBB84:
 295              	.LBB85:
 100:src/../h/riscv.hpp ****     __asm__ volatile("csrr %0, sepc" : "=r"(sepc));
 296              		.loc 2 100 5
 101:src/../h/riscv.hpp ****     return sepc;
 297              		.loc 2 101 5
 101:src/../h/riscv.hpp ****     return sepc;
 298              		.loc 2 101 51 is_stmt 0
 299              	#APP
 300              	# 101 "src/../h/riscv.hpp" 1
 301              		csrr a5, sepc
 302              	# 0 "" 2
 303              	#NO_APP
 304 0180 2334F4FA 		sd	a5,-88(s0)
 102:src/../h/riscv.hpp **** }
 305              		.loc 2 102 5 is_stmt 1
 102:src/../h/riscv.hpp **** }
 306              		.loc 2 102 12 is_stmt 0
 307 0184 833484FA 		ld	s1,-88(s0)
 308              	.LBE85:
 309              	.LBE84:
  17:src/riscv.cpp ****         uint64 sstatus = r_sstatus();
 310              		.loc 1 17 34
 311 0188 93844400 		addi	s1,s1,4
 312              	.LVL20:
  18:src/riscv.cpp ****         TCB::timeSliceCounter = 0;
 313              		.loc 1 18 9 is_stmt 1
 314              	.LBB86:
 315              	.LBB87:
GAS LISTING /tmp/ccINhHMZ.s 			page 12


 156:src/../h/riscv.hpp ****     __asm__ volatile("csrr %0, sstatus" : "=r"(sstatus));
 316              		.loc 2 156 5
 157:src/../h/riscv.hpp ****     return sstatus;
 317              		.loc 2 157 5
 157:src/../h/riscv.hpp ****     return sstatus;
 318              		.loc 2 157 57 is_stmt 0
 319              	#APP
 320              	# 157 "src/../h/riscv.hpp" 1
 321              		csrr a5, sstatus
 322              	# 0 "" 2
 323              	#NO_APP
 324 0190 2330F4FA 		sd	a5,-96(s0)
 325              		.loc 2 158 5 is_stmt 1
 326              		.loc 2 158 12 is_stmt 0
 327 0194 033904FA 		ld	s2,-96(s0)
 328              	.LVL21:
 329              	.LBE87:
 330              	.LBE86:
  19:src/riscv.cpp **** 
 331              		.loc 1 19 9 is_stmt 1
  19:src/riscv.cpp **** 
 332              		.loc 1 19 31 is_stmt 0
 333 0198 97070000 		la	a5,_ZN3TCB16timeSliceCounterE
 333      83B70700 
 334 01a0 23B00700 		sd	zero,0(a5)
  21:src/riscv.cpp ****         void* ptr;
 335              		.loc 1 21 9 is_stmt 1
 336              	.LBB88:
 337              	.LBB89:
 159:src/../h/riscv.hpp **** }
 160:src/../h/riscv.hpp **** 
 161:src/../h/riscv.hpp **** inline void Riscv::w_sstatus(uint64 sstatus) {
 162:src/../h/riscv.hpp ****     __asm__ volatile("csrc sstatus, %0" : : "r"(sstatus));
 163:src/../h/riscv.hpp **** }
 164:src/../h/riscv.hpp **** 
 165:src/../h/riscv.hpp **** inline uint64 Riscv::r_a0() {
 166:src/../h/riscv.hpp ****     uint64 volatile a0;
 338              		.loc 2 166 5
 167:src/../h/riscv.hpp ****     __asm__ volatile("mv %0, a0" : "=r"(a0));
 339              		.loc 2 167 5
 340              		.loc 2 167 45 is_stmt 0
 341              	#APP
 342              	# 167 "src/../h/riscv.hpp" 1
 168              	    return a0;
 343              		mv a5, a0
 344              	# 0 "" 2
 345              	#NO_APP
 346 01a8 233CF4F8 		sd	a5,-104(s0)
 347              		.loc 2 168 5 is_stmt 1
 348              		.loc 2 168 12 is_stmt 0
 349 01ac 833784F9 		ld	a5,-104(s0)
 350              	.LVL22:
 351              	.LBE89:
 352              	.LBE88:
  22:src/riscv.cpp ****         int ret;
 353              		.loc 1 22 9 is_stmt 1
  23:src/riscv.cpp **** 
GAS LISTING /tmp/ccINhHMZ.s 			page 13


 354              		.loc 1 23 9
  26:src/riscv.cpp ****             // void* mem_alloc(size_t size)
 355              		.loc 1 26 9
 356              	.LBB90:
 357 01b0 13071000 		li	a4,1
 358              	.LVL23:
 359 01b4 6386E702 		beq	a5,a4,.L5
 360 01b8 13072000 		li	a4,2
 361 01bc 638EE702 		beq	a5,a4,.L6
 362              	.LVL24:
 363              	.L7:
 364              	.LBE90:
  56:src/riscv.cpp ****         w_sepc(sepc);
 365              		.loc 1 56 9
 366              	.LBB92:
 367              	.LBB93:
 162:src/../h/riscv.hpp **** }
 368              		.loc 2 162 5
 162:src/../h/riscv.hpp **** }
 369              		.loc 2 162 58 is_stmt 0
 370              	#APP
 371              	# 162 "src/../h/riscv.hpp" 1
 372              		csrc sstatus, s2
 373              	# 0 "" 2
 374              	.LVL25:
 375              	#NO_APP
 376              	.LBE93:
 377              	.LBE92:
  57:src/riscv.cpp ****     } else if(scause == 0x8000000000000001UL) {
 378              		.loc 1 57 9 is_stmt 1
 379              	.LBB94:
 380              	.LBB95:
 106:src/../h/riscv.hpp **** }
 381              		.loc 2 106 5
 106:src/../h/riscv.hpp **** }
 382              		.loc 2 106 52 is_stmt 0
 383              	#APP
 384              	# 106 "src/../h/riscv.hpp" 1
 385              		csrw sepc, s1
 386              	# 0 "" 2
 387              	.LVL26:
 388              	#NO_APP
 389              	.L3:
 390              	.LBE95:
 391              	.LBE94:
 392              	.LBE83:
 393              	.LBE102:
 394              		.loc 1 92 1
 395 01c8 83308106 		ld	ra,104(sp)
 396              		.cfi_remember_state
 397              		.cfi_restore 1
 398 01cc 03340106 		ld	s0,96(sp)
 399              		.cfi_restore 8
 400              		.cfi_def_cfa 2, 112
 401 01d0 83348105 		ld	s1,88(sp)
 402              		.cfi_restore 9
 403 01d4 03390105 		ld	s2,80(sp)
GAS LISTING /tmp/ccINhHMZ.s 			page 14


 404              		.cfi_restore 18
 405 01d8 13010107 		addi	sp,sp,112
 406              		.cfi_def_cfa_offset 0
 407 01dc 67800000 		jr	ra
 408              	.LVL27:
 409              	.L5:
 410              		.cfi_restore_state
 411              	.LBB103:
 412              	.LBB97:
 413              	.LBB96:
 414              	.LBB91:
  28:src/riscv.cpp ****                 size_t size;
 415              		.loc 1 28 13 is_stmt 1
  29:src/riscv.cpp **** 
 416              		.loc 1 29 17
  31:src/riscv.cpp **** 
 417              		.loc 1 31 17
  31:src/riscv.cpp **** 
 418              		.loc 1 31 60 is_stmt 0
 419              	#APP
 420              	# 31 "src/riscv.cpp" 1
 421              		mv a0, a1
 422              	# 0 "" 2
 423              	.LVL28:
  33:src/riscv.cpp **** 
 424              		.loc 1 33 17 is_stmt 1
  33:src/riscv.cpp **** 
 425              		.loc 1 33 49 is_stmt 0
 426              	#NO_APP
 427 01e4 97000000 		call	_ZN15MemoryAllocator9mem_allocEm@plt
 427      E7800000 
 428              	.LVL29:
  35:src/riscv.cpp ****                 __asm__ volatile("sw a0, 80(x8)");
 429              		.loc 1 35 17 is_stmt 1
  35:src/riscv.cpp ****                 __asm__ volatile("sw a0, 80(x8)");
 430              		.loc 1 35 60 is_stmt 0
 431              	#APP
 432              	# 35 "src/riscv.cpp" 1
  36:src/riscv.cpp **** 
 433              		mv a0, a0
 434              	# 0 "" 2
 435              		.loc 1 36 17 is_stmt 1
  36:src/riscv.cpp **** 
 436              		.loc 1 36 50 is_stmt 0
 437              	# 36 "src/riscv.cpp" 1
  38:src/riscv.cpp **** 
 438              		sw a0, 80(x8)
 439              	# 0 "" 2
 440              		.loc 1 38 17 is_stmt 1
 441              	#NO_APP
 442 01f4 6FF0DFFC 		j	.L7
 443              	.LVL30:
 444              	.L6:
  41:src/riscv.cpp ****                 __asm__ volatile("mv %0, a1" : "=r" (ptr));
 445              		.loc 1 41 13
  42:src/riscv.cpp **** 
 446              		.loc 1 42 17
GAS LISTING /tmp/ccINhHMZ.s 			page 15


  42:src/riscv.cpp **** 
 447              		.loc 1 42 59 is_stmt 0
 448              	#APP
 449              	# 42 "src/riscv.cpp" 1
 450              		mv a0, a1
 451              	# 0 "" 2
 452              	.LVL31:
  44:src/riscv.cpp **** 
 453              		.loc 1 44 17 is_stmt 1
  44:src/riscv.cpp **** 
 454              		.loc 1 44 48 is_stmt 0
 455              	#NO_APP
 456 01fc 97000000 		call	_ZN15MemoryAllocator8mem_freeEPv@plt
 456      E7800000 
 457              	.LVL32:
  46:src/riscv.cpp ****                 __asm__ volatile("sw a0, 80(x8)");
 458              		.loc 1 46 17 is_stmt 1
  46:src/riscv.cpp ****                 __asm__ volatile("sw a0, 80(x8)");
 459              		.loc 1 46 60 is_stmt 0
 460              	#APP
 461              	# 46 "src/riscv.cpp" 1
  47:src/riscv.cpp **** 
 462              		mv a0, a0
 463              	# 0 "" 2
 464              		.loc 1 47 17 is_stmt 1
  47:src/riscv.cpp **** 
 465              		.loc 1 47 50 is_stmt 0
 466              	# 47 "src/riscv.cpp" 1
  49:src/riscv.cpp **** 
 467              		sw a0, 80(x8)
 468              	# 0 "" 2
 469              		.loc 1 49 17 is_stmt 1
 470              	#NO_APP
 471 020c 6FF05FFB 		j	.L7
 472              	.LVL33:
 473              	.L14:
 474              	.LBE91:
 475              	.LBE96:
 476              	.LBE97:
 477              	.LBE103:
  60:src/riscv.cpp ****             uint64 sepc = r_sepc();
 478              		.loc 1 60 9
 479              	.LBB104:
 480              	.LBB98:
 481              	.LBB66:
  60:src/riscv.cpp ****             uint64 sepc = r_sepc();
 482              		.loc 1 60 12 is_stmt 0
 483 0210 17070000 		la	a4,_ZN3TCB16timeSliceCounterE
 483      03370700 
 484              	.LVL34:
 485 0218 83370700 		ld	a5,0(a4)
 486 021c 93871700 		addi	a5,a5,1
  60:src/riscv.cpp ****             uint64 sepc = r_sepc();
 487              		.loc 1 60 36
 488 0220 2330F700 		sd	a5,0(a4)
  60:src/riscv.cpp ****             uint64 sepc = r_sepc();
 489              		.loc 1 60 65
GAS LISTING /tmp/ccINhHMZ.s 			page 16


 490 0224 17070000 		la	a4,_ZN3TCB7runningE
 490      03370700 
 491 022c 03370700 		ld	a4,0(a4)
 492              	.LVL35:
 493              	.LBB67:
 494              	.LBB68:
 495              		.file 3 "src/../h/tcb.hpp"
   1:src/../h/tcb.hpp **** #ifndef TCB_H
   2:src/../h/tcb.hpp **** #define TCB_H
   3:src/../h/tcb.hpp **** 
   4:src/../h/tcb.hpp **** #include "../lib/hw.h"
   5:src/../h/tcb.hpp **** #include "../h/scheduler.hpp"
   6:src/../h/tcb.hpp **** 
   7:src/../h/tcb.hpp **** class TCB {
   8:src/../h/tcb.hpp **** public:
   9:src/../h/tcb.hpp ****     ~TCB(){ delete[] stack; }
  10:src/../h/tcb.hpp **** 
  11:src/../h/tcb.hpp ****     bool isFinished() const { return finished; }
  12:src/../h/tcb.hpp **** 
  13:src/../h/tcb.hpp ****     void setFinished(bool finished) { this->finished = finished; }
  14:src/../h/tcb.hpp **** 
  15:src/../h/tcb.hpp ****     uint64 getTimeSlice() const { return time_slice; }
 496              		.loc 3 15 35 is_stmt 1
 497              		.loc 3 15 42 is_stmt 0
 498 0230 03370702 		ld	a4,32(a4)
 499              	.LVL36:
 500              	.LBE68:
 501              	.LBE67:
  60:src/riscv.cpp ****             uint64 sepc = r_sepc();
 502              		.loc 1 60 9
 503 0234 63F8E700 		bgeu	a5,a4,.L16
 504              	.LVL37:
 505              	.L10:
 506              	.LBE66:
 507              	.LBE98:
 508              	.LBE104:
  68:src/riscv.cpp ****     } else if (scause == 0x8000000000000009UL) {
 509              		.loc 1 68 9 is_stmt 1
 510              	.LBB105:
 511              	.LBB99:
 512              	.LBB78:
 513              	.LBB79:
 134:src/../h/riscv.hpp **** }
 514              		.loc 2 134 5
 134:src/../h/riscv.hpp **** }
 515              		.loc 2 134 51 is_stmt 0
 516 0238 93072000 		li	a5,2
 517              	#APP
 518              	# 134 "src/../h/riscv.hpp" 1
 135:src/../h/riscv.hpp **** 
 519              		csrc sip, a5
 520              	# 0 "" 2
 521              		.loc 2 135 1
 522              	#NO_APP
 523 0240 6FF09FF8 		j	.L3
 524              	.LVL38:
 525              	.L16:
GAS LISTING /tmp/ccINhHMZ.s 			page 17


 526              	.LBE79:
 527              	.LBE78:
 528              	.LBB80:
 529              	.LBB69:
  61:src/riscv.cpp ****             uint64 sstatus = r_sstatus();
 530              		.loc 1 61 13 is_stmt 1
 531              	.LBB70:
 532              	.LBB71:
 100:src/../h/riscv.hpp ****     __asm__ volatile("csrr %0, sepc" : "=r"(sepc));
 533              		.loc 2 100 5
 101:src/../h/riscv.hpp ****     return sepc;
 534              		.loc 2 101 5
 101:src/../h/riscv.hpp ****     return sepc;
 535              		.loc 2 101 51 is_stmt 0
 536              	#APP
 537              	# 101 "src/../h/riscv.hpp" 1
 538              		csrr a5, sepc
 539              	# 0 "" 2
 540              	#NO_APP
 541 0248 233CF4FA 		sd	a5,-72(s0)
 102:src/../h/riscv.hpp **** }
 542              		.loc 2 102 5 is_stmt 1
 102:src/../h/riscv.hpp **** }
 543              		.loc 2 102 12 is_stmt 0
 544 024c 833484FB 		ld	s1,-72(s0)
 545              	.LVL39:
 546              	.LBE71:
 547              	.LBE70:
  62:src/riscv.cpp ****             TCB::timeSliceCounter = 0;
 548              		.loc 1 62 13 is_stmt 1
 549              	.LBB72:
 550              	.LBB73:
 156:src/../h/riscv.hpp ****     __asm__ volatile("csrr %0, sstatus" : "=r"(sstatus));
 551              		.loc 2 156 5
 157:src/../h/riscv.hpp ****     return sstatus;
 552              		.loc 2 157 5
 157:src/../h/riscv.hpp ****     return sstatus;
 553              		.loc 2 157 57 is_stmt 0
 554              	#APP
 555              	# 157 "src/../h/riscv.hpp" 1
 556              		csrr a5, sstatus
 557              	# 0 "" 2
 558              	#NO_APP
 559 0254 2338F4FA 		sd	a5,-80(s0)
 158:src/../h/riscv.hpp **** }
 560              		.loc 2 158 5 is_stmt 1
 158:src/../h/riscv.hpp **** }
 561              		.loc 2 158 12 is_stmt 0
 562 0258 033904FB 		ld	s2,-80(s0)
 563              	.LVL40:
 564              	.LBE73:
 565              	.LBE72:
  63:src/riscv.cpp ****             TCB::dispatch();
 566              		.loc 1 63 13 is_stmt 1
  63:src/riscv.cpp ****             TCB::dispatch();
 567              		.loc 1 63 35 is_stmt 0
 568 025c 97070000 		la	a5,_ZN3TCB16timeSliceCounterE
GAS LISTING /tmp/ccINhHMZ.s 			page 18


 568      83B70700 
 569 0264 23B00700 		sd	zero,0(a5)
  64:src/riscv.cpp ****             w_sstatus(sstatus);
 570              		.loc 1 64 13 is_stmt 1
  64:src/riscv.cpp ****             w_sstatus(sstatus);
 571              		.loc 1 64 26 is_stmt 0
 572 0268 97000000 		call	_ZN3TCB8dispatchEv@plt
 572      E7800000 
 573              	.LVL41:
  65:src/riscv.cpp ****             w_sepc(sepc);
 574              		.loc 1 65 13 is_stmt 1
 575              	.LBB74:
 576              	.LBB75:
 162:src/../h/riscv.hpp **** }
 577              		.loc 2 162 5
 162:src/../h/riscv.hpp **** }
 578              		.loc 2 162 58 is_stmt 0
 579              	#APP
 580              	# 162 "src/../h/riscv.hpp" 1
 581              		csrc sstatus, s2
 582              	# 0 "" 2
 583              	.LVL42:
 584              	#NO_APP
 585              	.LBE75:
 586              	.LBE74:
  66:src/riscv.cpp ****         }
 587              		.loc 1 66 13 is_stmt 1
 588              	.LBB76:
 589              	.LBB77:
 106:src/../h/riscv.hpp **** }
 590              		.loc 2 106 5
 106:src/../h/riscv.hpp **** }
 591              		.loc 2 106 52 is_stmt 0
 592              	#APP
 593              	# 106 "src/../h/riscv.hpp" 1
 107:src/../h/riscv.hpp **** 
 594              		csrw sepc, s1
 595              	# 0 "" 2
 596              		.loc 2 107 1
 597              	#NO_APP
 598 0278 6FF01FFC 		j	.L10
 599              	.LVL43:
 600              	.L15:
 601              	.LBE77:
 602              	.LBE76:
 603              	.LBE69:
 604              	.LBE80:
 605              	.LBB81:
  71:src/riscv.cpp ****         mc_sip(SIP_SEIP);
 606              		.loc 1 71 9 is_stmt 1
  71:src/riscv.cpp ****         mc_sip(SIP_SEIP);
 607              		.loc 1 71 24 is_stmt 0
 608 027c 97000000 		call	console_handler@plt
 608      E7800000 
 609              	.LVL44:
  72:src/riscv.cpp ****     } else {
 610              		.loc 1 72 9 is_stmt 1
GAS LISTING /tmp/ccINhHMZ.s 			page 19


 611              	.LBB64:
 612              	.LBB65:
 134:src/../h/riscv.hpp **** }
 613              		.loc 2 134 5
 134:src/../h/riscv.hpp **** }
 614              		.loc 2 134 51 is_stmt 0
 615 0284 93070020 		li	a5,512
 616              	#APP
 617              	# 134 "src/../h/riscv.hpp" 1
 135:src/../h/riscv.hpp **** 
 618              		csrc sip, a5
 619              	# 0 "" 2
 620              		.loc 2 135 1
 621              	#NO_APP
 622 028c 6FF0DFF3 		j	.L3
 623              	.LBE65:
 624              	.LBE64:
 625              	.LBE81:
 626              	.LBE99:
 627              	.LBE105:
 628              		.cfi_endproc
 629              	.LFE43:
 631              	.Letext0:
 632              		.file 4 "src/../h/../lib/hw.h"
 633              		.file 5 "src/../h/../h/MemoryAllocator.hpp"
 634              		.file 6 "src/../h/syscall_c.hpp"
 635              		.file 7 "src/../h/printing.hpp"
 636              		.file 8 "src/../lib/console.h"
GAS LISTING /tmp/ccINhHMZ.s 			page 20


DEFINED SYMBOLS
                            *ABS*:0000000000000000 riscv.cpp
     /tmp/ccINhHMZ.s:9      .text:0000000000000000 _ZN5Riscv10popSppSpieEv
     /tmp/ccINhHMZ.s:13     .text:0000000000000000 .L0 
     /tmp/ccINhHMZ.s:14     .text:0000000000000000 .L0 
     /tmp/ccINhHMZ.s:15     .text:0000000000000004 .L0 
     /tmp/ccINhHMZ.s:17     .text:0000000000000008 .L0 
     /tmp/ccINhHMZ.s:19     .text:000000000000000c .L0 
     /tmp/ccINhHMZ.s:21     .text:000000000000000c .L0 
       src/riscv.cpp:8      .text:000000000000000c .L0 
     /tmp/ccINhHMZ.s:32     .text:0000000000000010 .L0 
     /tmp/ccINhHMZ.s:33     .text:0000000000000010 .L0 
     /tmp/ccINhHMZ.s:34     .text:0000000000000010 .L0 
     /tmp/ccINhHMZ.s:44     .text:0000000000000018 .L0 
       src/riscv.cpp:10     .text:0000000000000018 .L0 
     /tmp/ccINhHMZ.s:51     .text:000000000000001c .L0 
     /tmp/ccINhHMZ.s:52     .text:0000000000000020 .L0 
     /tmp/ccINhHMZ.s:53     .text:0000000000000020 .L0 
     /tmp/ccINhHMZ.s:55     .text:0000000000000024 .L0 
     /tmp/ccINhHMZ.s:57     .text:0000000000000028 .L0 
     /tmp/ccINhHMZ.s:83     .text:0000000000000028 _ZN5Riscv20handleSupervisorTrapEv
     /tmp/ccINhHMZ.s:86     .text:0000000000000028 .L0 
     /tmp/ccINhHMZ.s:87     .text:0000000000000028 .L0 
     /tmp/ccINhHMZ.s:88     .text:000000000000002c .L0 
     /tmp/ccINhHMZ.s:93     .text:000000000000003c .L0 
     /tmp/ccINhHMZ.s:94     .text:000000000000003c .L0 
     /tmp/ccINhHMZ.s:95     .text:000000000000003c .L0 
     /tmp/ccINhHMZ.s:96     .text:000000000000003c .L0 
     /tmp/ccINhHMZ.s:98     .text:0000000000000040 .L0 
     /tmp/ccINhHMZ.s:102    .text:0000000000000040 .L0 
     /tmp/ccINhHMZ.s:103    .text:0000000000000040 .L0 
     /tmp/ccINhHMZ.s:104    .text:0000000000000040 .L0 
  src/../h/riscv.hpp:91     .text:0000000000000040 .L0 
     /tmp/ccINhHMZ.s:112    .text:0000000000000048 .L0 
     /tmp/ccINhHMZ.s:113    .text:0000000000000048 .L0 
     /tmp/ccINhHMZ.s:119    .text:000000000000004c .L0 
     /tmp/ccINhHMZ.s:120    .text:000000000000004c .L0 
     /tmp/ccINhHMZ.s:122    .text:0000000000000050 .L0 
     /tmp/ccINhHMZ.s:128    .text:0000000000000058 .L0 
     /tmp/ccINhHMZ.s:138    .text:0000000000000068 .L0 
     /tmp/ccINhHMZ.s:146    .text:0000000000000078 .L0 
     /tmp/ccINhHMZ.s:147    .text:0000000000000078 .L0 
     /tmp/ccINhHMZ.s:148    .text:0000000000000078 .L0 
  src/../h/riscv.hpp:101    .text:0000000000000078 .L0 
     /tmp/ccINhHMZ.s:156    .text:0000000000000080 .L0 
     /tmp/ccINhHMZ.s:157    .text:0000000000000080 .L0 
     /tmp/ccINhHMZ.s:162    .text:0000000000000084 .L0 
     /tmp/ccINhHMZ.s:163    .text:0000000000000084 .L0 
     /tmp/ccINhHMZ.s:167    .text:0000000000000094 .L0 
     /tmp/ccINhHMZ.s:168    .text:0000000000000094 .L0 
     /tmp/ccINhHMZ.s:174    .text:00000000000000a8 .L0 
     /tmp/ccINhHMZ.s:175    .text:00000000000000a8 .L0 
     /tmp/ccINhHMZ.s:181    .text:00000000000000b8 .L0 
     /tmp/ccINhHMZ.s:182    .text:00000000000000b8 .L0 
     /tmp/ccINhHMZ.s:183    .text:00000000000000b8 .L0 
  src/../h/riscv.hpp:111    .text:00000000000000b8 .L0 
     /tmp/ccINhHMZ.s:191    .text:00000000000000c0 .L0 
GAS LISTING /tmp/ccINhHMZ.s 			page 21


     /tmp/ccINhHMZ.s:192    .text:00000000000000c0 .L0 
     /tmp/ccINhHMZ.s:197    .text:00000000000000c4 .L0 
     /tmp/ccINhHMZ.s:198    .text:00000000000000c4 .L0 
     /tmp/ccINhHMZ.s:202    .text:00000000000000d4 .L0 
     /tmp/ccINhHMZ.s:203    .text:00000000000000d4 .L0 
     /tmp/ccINhHMZ.s:209    .text:00000000000000e8 .L0 
     /tmp/ccINhHMZ.s:210    .text:00000000000000e8 .L0 
     /tmp/ccINhHMZ.s:216    .text:00000000000000f8 .L0 
     /tmp/ccINhHMZ.s:217    .text:00000000000000f8 .L0 
     /tmp/ccINhHMZ.s:218    .text:00000000000000f8 .L0 
  src/../h/riscv.hpp:157    .text:00000000000000f8 .L0 
     /tmp/ccINhHMZ.s:226    .text:0000000000000100 .L0 
     /tmp/ccINhHMZ.s:227    .text:0000000000000100 .L0 
     /tmp/ccINhHMZ.s:232    .text:0000000000000104 .L0 
     /tmp/ccINhHMZ.s:233    .text:0000000000000104 .L0 
     /tmp/ccINhHMZ.s:237    .text:0000000000000114 .L0 
     /tmp/ccINhHMZ.s:238    .text:0000000000000114 .L0 
     /tmp/ccINhHMZ.s:244    .text:0000000000000128 .L0 
     /tmp/ccINhHMZ.s:245    .text:0000000000000128 .L0 
     /tmp/ccINhHMZ.s:251    .text:0000000000000138 .L0 
     /tmp/ccINhHMZ.s:252    .text:0000000000000138 .L0 
     /tmp/ccINhHMZ.s:253    .text:0000000000000138 .L0 
  src/../h/riscv.hpp:91     .text:0000000000000138 .L0 
     /tmp/ccINhHMZ.s:261    .text:0000000000000140 .L0 
     /tmp/ccINhHMZ.s:262    .text:0000000000000140 .L0 
     /tmp/ccINhHMZ.s:267    .text:0000000000000144 .L0 
     /tmp/ccINhHMZ.s:268    .text:0000000000000144 .L0 
     /tmp/ccINhHMZ.s:272    .text:0000000000000154 .L0 
     /tmp/ccINhHMZ.s:273    .text:0000000000000154 .L0 
     /tmp/ccINhHMZ.s:279    .text:0000000000000168 .L0 
     /tmp/ccINhHMZ.s:280    .text:0000000000000168 .L0 
     /tmp/ccINhHMZ.s:288    .text:0000000000000178 .L0 
     /tmp/ccINhHMZ.s:296    .text:000000000000017c .L0 
     /tmp/ccINhHMZ.s:297    .text:000000000000017c .L0 
     /tmp/ccINhHMZ.s:298    .text:000000000000017c .L0 
  src/../h/riscv.hpp:101    .text:000000000000017c .L0 
     /tmp/ccINhHMZ.s:306    .text:0000000000000184 .L0 
     /tmp/ccINhHMZ.s:307    .text:0000000000000184 .L0 
     /tmp/ccINhHMZ.s:311    .text:0000000000000188 .L0 
     /tmp/ccINhHMZ.s:316    .text:000000000000018c .L0 
     /tmp/ccINhHMZ.s:317    .text:000000000000018c .L0 
     /tmp/ccINhHMZ.s:318    .text:000000000000018c .L0 
  src/../h/riscv.hpp:157    .text:000000000000018c .L0 
     /tmp/ccINhHMZ.s:326    .text:0000000000000194 .L0 
     /tmp/ccINhHMZ.s:327    .text:0000000000000194 .L0 
     /tmp/ccINhHMZ.s:332    .text:0000000000000198 .L0 
     /tmp/ccINhHMZ.s:333    .text:0000000000000198 .L0 
     /tmp/ccINhHMZ.s:338    .text:00000000000001a4 .L0 
     /tmp/ccINhHMZ.s:339    .text:00000000000001a4 .L0 
     /tmp/ccINhHMZ.s:340    .text:00000000000001a4 .L0 
  src/../h/riscv.hpp:167    .text:00000000000001a4 .L0 
     /tmp/ccINhHMZ.s:348    .text:00000000000001ac .L0 
     /tmp/ccINhHMZ.s:349    .text:00000000000001ac .L0 
     /tmp/ccINhHMZ.s:354    .text:00000000000001b0 .L0 
     /tmp/ccINhHMZ.s:355    .text:00000000000001b0 .L0 
     /tmp/ccINhHMZ.s:357    .text:00000000000001b0 .L0 
     /tmp/ccINhHMZ.s:368    .text:00000000000001c0 .L0 
GAS LISTING /tmp/ccINhHMZ.s 			page 22


     /tmp/ccINhHMZ.s:369    .text:00000000000001c0 .L0 
  src/../h/riscv.hpp:162    .text:00000000000001c0 .L0 
     /tmp/ccINhHMZ.s:381    .text:00000000000001c4 .L0 
     /tmp/ccINhHMZ.s:382    .text:00000000000001c4 .L0 
  src/../h/riscv.hpp:106    .text:00000000000001c4 .L0 
     /tmp/ccINhHMZ.s:395    .text:00000000000001c8 .L0 
     /tmp/ccINhHMZ.s:396    .text:00000000000001cc .L0 
     /tmp/ccINhHMZ.s:397    .text:00000000000001cc .L0 
     /tmp/ccINhHMZ.s:399    .text:00000000000001d0 .L0 
     /tmp/ccINhHMZ.s:400    .text:00000000000001d0 .L0 
     /tmp/ccINhHMZ.s:402    .text:00000000000001d4 .L0 
     /tmp/ccINhHMZ.s:404    .text:00000000000001d8 .L0 
     /tmp/ccINhHMZ.s:406    .text:00000000000001dc .L0 
     /tmp/ccINhHMZ.s:410    .text:00000000000001e0 .L0 
     /tmp/ccINhHMZ.s:416    .text:00000000000001e0 .L0 
     /tmp/ccINhHMZ.s:417    .text:00000000000001e0 .L0 
     /tmp/ccINhHMZ.s:418    .text:00000000000001e0 .L0 
       src/riscv.cpp:31     .text:00000000000001e0 .L0 
     /tmp/ccINhHMZ.s:425    .text:00000000000001e4 .L0 
     /tmp/ccINhHMZ.s:427    .text:00000000000001e4 .L0 
     /tmp/ccINhHMZ.s:430    .text:00000000000001ec .L0 
       src/riscv.cpp:35     .text:00000000000001ec .L0 
     /tmp/ccINhHMZ.s:436    .text:00000000000001f0 .L0 
       src/riscv.cpp:36     .text:00000000000001f0 .L0 
     /tmp/ccINhHMZ.s:442    .text:00000000000001f4 .L0 
     /tmp/ccINhHMZ.s:446    .text:00000000000001f8 .L0 
     /tmp/ccINhHMZ.s:447    .text:00000000000001f8 .L0 
       src/riscv.cpp:42     .text:00000000000001f8 .L0 
     /tmp/ccINhHMZ.s:454    .text:00000000000001fc .L0 
     /tmp/ccINhHMZ.s:456    .text:00000000000001fc .L0 
     /tmp/ccINhHMZ.s:459    .text:0000000000000204 .L0 
       src/riscv.cpp:46     .text:0000000000000204 .L0 
     /tmp/ccINhHMZ.s:465    .text:0000000000000208 .L0 
       src/riscv.cpp:47     .text:0000000000000208 .L0 
     /tmp/ccINhHMZ.s:471    .text:000000000000020c .L0 
     /tmp/ccINhHMZ.s:482    .text:0000000000000210 .L0 
     /tmp/ccINhHMZ.s:483    .text:0000000000000210 .L0 
     /tmp/ccINhHMZ.s:488    .text:0000000000000220 .L0 
     /tmp/ccINhHMZ.s:490    .text:0000000000000224 .L0 
     /tmp/ccINhHMZ.s:497    .text:0000000000000230 .L0 
     /tmp/ccINhHMZ.s:498    .text:0000000000000230 .L0 
     /tmp/ccINhHMZ.s:503    .text:0000000000000234 .L0 
     /tmp/ccINhHMZ.s:514    .text:0000000000000238 .L0 
     /tmp/ccINhHMZ.s:515    .text:0000000000000238 .L0 
     /tmp/ccINhHMZ.s:516    .text:0000000000000238 .L0 
     /tmp/ccINhHMZ.s:523    .text:0000000000000240 .L0 
     /tmp/ccINhHMZ.s:533    .text:0000000000000244 .L0 
     /tmp/ccINhHMZ.s:534    .text:0000000000000244 .L0 
     /tmp/ccINhHMZ.s:535    .text:0000000000000244 .L0 
  src/../h/riscv.hpp:101    .text:0000000000000244 .L0 
     /tmp/ccINhHMZ.s:543    .text:000000000000024c .L0 
     /tmp/ccINhHMZ.s:544    .text:000000000000024c .L0 
     /tmp/ccINhHMZ.s:551    .text:0000000000000250 .L0 
     /tmp/ccINhHMZ.s:552    .text:0000000000000250 .L0 
     /tmp/ccINhHMZ.s:553    .text:0000000000000250 .L0 
  src/../h/riscv.hpp:157    .text:0000000000000250 .L0 
     /tmp/ccINhHMZ.s:561    .text:0000000000000258 .L0 
GAS LISTING /tmp/ccINhHMZ.s 			page 23


     /tmp/ccINhHMZ.s:562    .text:0000000000000258 .L0 
     /tmp/ccINhHMZ.s:567    .text:000000000000025c .L0 
     /tmp/ccINhHMZ.s:568    .text:000000000000025c .L0 
     /tmp/ccINhHMZ.s:571    .text:0000000000000268 .L0 
     /tmp/ccINhHMZ.s:572    .text:0000000000000268 .L0 
     /tmp/ccINhHMZ.s:577    .text:0000000000000270 .L0 
     /tmp/ccINhHMZ.s:578    .text:0000000000000270 .L0 
  src/../h/riscv.hpp:162    .text:0000000000000270 .L0 
     /tmp/ccINhHMZ.s:590    .text:0000000000000274 .L0 
     /tmp/ccINhHMZ.s:591    .text:0000000000000274 .L0 
  src/../h/riscv.hpp:106    .text:0000000000000274 .L0 
     /tmp/ccINhHMZ.s:598    .text:0000000000000278 .L0 
     /tmp/ccINhHMZ.s:607    .text:000000000000027c .L0 
     /tmp/ccINhHMZ.s:608    .text:000000000000027c .L0 
     /tmp/ccINhHMZ.s:613    .text:0000000000000284 .L0 
     /tmp/ccINhHMZ.s:614    .text:0000000000000284 .L0 
     /tmp/ccINhHMZ.s:615    .text:0000000000000284 .L0 
     /tmp/ccINhHMZ.s:622    .text:000000000000028c .L0 
     /tmp/ccINhHMZ.s:628    .text:0000000000000290 .L0 
     /tmp/ccINhHMZ.s:637    .text:0000000000000290 .L0 
     /tmp/ccINhHMZ.s:62     .rodata.str1.8:0000000000000000 .LC0
     /tmp/ccINhHMZ.s:163    .text:0000000000000084 .L0 
     /tmp/ccINhHMZ.s:65     .rodata.str1.8:0000000000000010 .LC1
     /tmp/ccINhHMZ.s:175    .text:00000000000000a8 .L0 
     /tmp/ccINhHMZ.s:68     .rodata.str1.8:0000000000000018 .LC2
     /tmp/ccINhHMZ.s:198    .text:00000000000000c4 .L0 
     /tmp/ccINhHMZ.s:210    .text:00000000000000e8 .L0 
     /tmp/ccINhHMZ.s:71     .rodata.str1.8:0000000000000028 .LC3
     /tmp/ccINhHMZ.s:233    .text:0000000000000104 .L0 
     /tmp/ccINhHMZ.s:245    .text:0000000000000128 .L0 
     /tmp/ccINhHMZ.s:74     .rodata.str1.8:0000000000000040 .LC4
     /tmp/ccINhHMZ.s:268    .text:0000000000000144 .L0 
     /tmp/ccINhHMZ.s:77     .rodata.str1.8:0000000000000058 .LC5
     /tmp/ccINhHMZ.s:280    .text:0000000000000168 .L0 
     /tmp/ccINhHMZ.s:333    .text:0000000000000198 .L0 
     /tmp/ccINhHMZ.s:483    .text:0000000000000210 .L0 
     /tmp/ccINhHMZ.s:490    .text:0000000000000224 .L0 
     /tmp/ccINhHMZ.s:568    .text:000000000000025c .L0 
     /tmp/ccINhHMZ.s:290    .text:000000000000017c .L13
     /tmp/ccINhHMZ.s:473    .text:0000000000000210 .L14
     /tmp/ccINhHMZ.s:600    .text:000000000000027c .L15
     /tmp/ccINhHMZ.s:389    .text:00000000000001c8 .L3
     /tmp/ccINhHMZ.s:409    .text:00000000000001e0 .L5
     /tmp/ccINhHMZ.s:444    .text:00000000000001f8 .L6
     /tmp/ccINhHMZ.s:363    .text:00000000000001c0 .L7
     /tmp/ccINhHMZ.s:525    .text:0000000000000244 .L16
     /tmp/ccINhHMZ.s:505    .text:0000000000000238 .L10
     /tmp/ccINhHMZ.s:2081   .debug_abbrev:0000000000000000 .Ldebug_abbrev0
     /tmp/ccINhHMZ.s:3394   .debug_str:0000000000000695 .LASF126
     /tmp/ccINhHMZ.s:3338   .debug_str:0000000000000506 .LASF127
     /tmp/ccINhHMZ.s:3190   .debug_str:000000000000008a .LASF128
     /tmp/ccINhHMZ.s:5      .text:0000000000000000 .Ltext0
     /tmp/ccINhHMZ.s:631    .text:0000000000000290 .Letext0
     /tmp/ccINhHMZ.s:3166   .debug_line:0000000000000000 .Ldebug_line0
     /tmp/ccINhHMZ.s:3314   .debug_str:000000000000048a .LASF0
     /tmp/ccINhHMZ.s:3332   .debug_str:00000000000004d1 .LASF1
     /tmp/ccINhHMZ.s:3300   .debug_str:000000000000042d .LASF2
GAS LISTING /tmp/ccINhHMZ.s 			page 24


     /tmp/ccINhHMZ.s:3272   .debug_str:0000000000000346 .LASF4
     /tmp/ccINhHMZ.s:3370   .debug_str:00000000000005f6 .LASF3
     /tmp/ccINhHMZ.s:3192   .debug_str:00000000000000ad .LASF5
     /tmp/ccINhHMZ.s:3336   .debug_str:00000000000004f3 .LASF6
     /tmp/ccINhHMZ.s:3312   .debug_str:0000000000000477 .LASF7
     /tmp/ccINhHMZ.s:3402   .debug_str:00000000000007a3 .LASF8
     /tmp/ccINhHMZ.s:3254   .debug_str:00000000000002ca .LASF9
     /tmp/ccINhHMZ.s:3344   .debug_str:0000000000000525 .LASF10
     /tmp/ccINhHMZ.s:3398   .debug_str:000000000000078c .LASF11
     /tmp/ccINhHMZ.s:3196   .debug_str:00000000000000c0 .LASF12
     /tmp/ccINhHMZ.s:3172   .debug_str:0000000000000022 .LASF13
     /tmp/ccINhHMZ.s:3206   .debug_str:0000000000000119 .LASF14
     /tmp/ccINhHMZ.s:3362   .debug_str:00000000000005b2 .LASF15
     /tmp/ccINhHMZ.s:3214   .debug_str:0000000000000157 .LASF16
     /tmp/ccINhHMZ.s:3328   .debug_str:00000000000004c0 .LASF71
     /tmp/ccINhHMZ.s:3284   .debug_str:000000000000038e .LASF20
     /tmp/ccINhHMZ.s:3378   .debug_str:000000000000062f .LASF17
     /tmp/ccINhHMZ.s:3326   .debug_str:00000000000004b7 .LASF18
     /tmp/ccINhHMZ.s:3278   .debug_str:000000000000035b .LASF19
     /tmp/ccINhHMZ.s:3218   .debug_str:0000000000000181 .LASF21
     /tmp/ccINhHMZ.s:3210   .debug_str:000000000000013c .LASF22
     /tmp/ccINhHMZ.s:3286   .debug_str:0000000000000399 .LASF23
     /tmp/ccINhHMZ.s:3194   .debug_str:00000000000000b4 .LASF24
     /tmp/ccINhHMZ.s:3186   .debug_str:0000000000000063 .LASF25
     /tmp/ccINhHMZ.s:3230   .debug_str:00000000000001ea .LASF27
     /tmp/ccINhHMZ.s:3380   .debug_str:0000000000000638 .LASF26
     /tmp/ccINhHMZ.s:3170   .debug_str:0000000000000008 .LASF28
     /tmp/ccINhHMZ.s:3360   .debug_str:00000000000005a7 .LASF29
     /tmp/ccINhHMZ.s:3426   .debug_str:0000000000000878 .LASF30
     /tmp/ccINhHMZ.s:3174   .debug_str:0000000000000032 .LASF31
     /tmp/ccINhHMZ.s:3234   .debug_str:0000000000000216 .LASF33
     /tmp/ccINhHMZ.s:3228   .debug_str:00000000000001e1 .LASF35
     /tmp/ccINhHMZ.s:3226   .debug_str:00000000000001cc .LASF37
     /tmp/ccINhHMZ.s:3374   .debug_str:0000000000000619 .LASF32
     /tmp/ccINhHMZ.s:3348   .debug_str:000000000000053d .LASF34
     /tmp/ccINhHMZ.s:3392   .debug_str:000000000000068e .LASF36
     /tmp/ccINhHMZ.s:3384   .debug_str:0000000000000652 .LASF38
     /tmp/ccINhHMZ.s:3244   .debug_str:000000000000026a .LASF39
     /tmp/ccINhHMZ.s:3216   .debug_str:000000000000016d .LASF40
     /tmp/ccINhHMZ.s:3168   .debug_str:0000000000000000 .LASF41
     /tmp/ccINhHMZ.s:3262   .debug_str:0000000000000305 .LASF42
     /tmp/ccINhHMZ.s:3268   .debug_str:0000000000000334 .LASF43
     /tmp/ccINhHMZ.s:3200   .debug_str:00000000000000df .LASF44
     /tmp/ccINhHMZ.s:3430   .debug_str:000000000000089b .LASF45
     /tmp/ccINhHMZ.s:3236   .debug_str:000000000000022b .LASF46
     /tmp/ccINhHMZ.s:3316   .debug_str:0000000000000497 .LASF47
     /tmp/ccINhHMZ.s:3420   .debug_str:0000000000000837 .LASF48
     /tmp/ccINhHMZ.s:3184   .debug_str:000000000000005c .LASF49
     /tmp/ccINhHMZ.s:3242   .debug_str:0000000000000257 .LASF50
     /tmp/ccINhHMZ.s:3250   .debug_str:00000000000002a3 .LASF51
     /tmp/ccINhHMZ.s:3390   .debug_str:000000000000067c .LASF52
     /tmp/ccINhHMZ.s:3182   .debug_str:0000000000000056 .LASF53
     /tmp/ccINhHMZ.s:3436   .debug_str:00000000000008bf .LASF54
     /tmp/ccINhHMZ.s:3428   .debug_str:0000000000000890 .LASF55
     /tmp/ccINhHMZ.s:3368   .debug_str:00000000000005de .LASF56
     /tmp/ccINhHMZ.s:3330   .debug_str:00000000000004c6 .LASF57
     /tmp/ccINhHMZ.s:3290   .debug_str:00000000000003b4 .LASF58
GAS LISTING /tmp/ccINhHMZ.s 			page 25


     /tmp/ccINhHMZ.s:3204   .debug_str:000000000000010f .LASF59
     /tmp/ccINhHMZ.s:3266   .debug_str:000000000000031e .LASF60
     /tmp/ccINhHMZ.s:3304   .debug_str:0000000000000447 .LASF61
     /tmp/ccINhHMZ.s:3258   .debug_str:00000000000002dd .LASF62
     /tmp/ccINhHMZ.s:3376   .debug_str:0000000000000620 .LASF63
     /tmp/ccINhHMZ.s:3202   .debug_str:00000000000000f3 .LASF64
     /tmp/ccINhHMZ.s:3388   .debug_str:0000000000000677 .LASF65
     /tmp/ccINhHMZ.s:3232   .debug_str:0000000000000205 .LASF66
     /tmp/ccINhHMZ.s:3256   .debug_str:00000000000002d8 .LASF67
     /tmp/ccINhHMZ.s:3308   .debug_str:0000000000000461 .LASF68
     /tmp/ccINhHMZ.s:3408   .debug_str:00000000000007c2 .LASF107
     /tmp/ccINhHMZ.s:3282   .debug_str:000000000000036c .LASF109
     /tmp/ccINhHMZ.s:3400   .debug_str:000000000000079b .LASF88
     /tmp/ccINhHMZ.s:3310   .debug_str:0000000000000472 .LASF69
     /tmp/ccINhHMZ.s:3358   .debug_str:00000000000005a2 .LASF70
     /tmp/ccINhHMZ.s:3298   .debug_str:000000000000041d .LASF72
     /tmp/ccINhHMZ.s:3404   .debug_str:00000000000007b3 .LASF73
     /tmp/ccINhHMZ.s:3410   .debug_str:00000000000007d7 .LASF75
     /tmp/ccINhHMZ.s:3346   .debug_str:0000000000000534 .LASF74
     /tmp/ccINhHMZ.s:3252   .debug_str:00000000000002a9 .LASF76
     /tmp/ccINhHMZ.s:3416   .debug_str:000000000000081f .LASF77
     /tmp/ccINhHMZ.s:3296   .debug_str:00000000000003f5 .LASF78
     /tmp/ccINhHMZ.s:3224   .debug_str:00000000000001b3 .LASF79
     /tmp/ccINhHMZ.s:3270   .debug_str:000000000000033c .LASF80
     /tmp/ccINhHMZ.s:3424   .debug_str:000000000000084f .LASF81
     /tmp/ccINhHMZ.s:3198   .debug_str:00000000000000d0 .LASF82
     /tmp/ccINhHMZ.s:3396   .debug_str:0000000000000759 .LASF83
     /tmp/ccINhHMZ.s:3212   .debug_str:0000000000000148 .LASF84
     /tmp/ccINhHMZ.s:3356   .debug_str:000000000000056f .LASF85
     /tmp/ccINhHMZ.s:3260   .debug_str:00000000000002f3 .LASF86
     /tmp/ccINhHMZ.s:3386   .debug_str:0000000000000665 .LASF87
     /tmp/ccINhHMZ.s:3180   .debug_str:000000000000004e .LASF89
     /tmp/ccINhHMZ.s:3264   .debug_str:0000000000000319 .LASF90
     /tmp/ccINhHMZ.s:3352   .debug_str:000000000000055b .LASF91
     /tmp/ccINhHMZ.s:3340   .debug_str:0000000000000514 .LASF94
     /tmp/ccINhHMZ.s:3208   .debug_str:0000000000000125 .LASF96
     /tmp/ccINhHMZ.s:3302   .debug_str:000000000000043b .LASF92
     /tmp/ccINhHMZ.s:3432   .debug_str:00000000000008a3 .LASF93
     /tmp/ccINhHMZ.s:3294   .debug_str:00000000000003e8 .LASF95
     /tmp/ccINhHMZ.s:3188   .debug_str:0000000000000071 .LASF97
     /tmp/ccINhHMZ.s:3382   .debug_str:0000000000000645 .LASF98
     /tmp/ccINhHMZ.s:3292   .debug_str:00000000000003cc .LASF99
     /tmp/ccINhHMZ.s:3406   .debug_str:00000000000007bd .LASF129
     /tmp/ccINhHMZ.s:3364   .debug_str:00000000000005c8 .LASF100
     /tmp/ccINhHMZ.s:3306   .debug_str:0000000000000451 .LASF101
     /tmp/ccINhHMZ.s:3418   .debug_str:000000000000082f .LASF130
     /tmp/ccINhHMZ.s:3366   .debug_str:00000000000005ce .LASF131
     /tmp/ccINhHMZ.s:3276   .debug_str:0000000000000356 .LASF102
     /tmp/ccINhHMZ.s:3320   .debug_str:00000000000004a7 .LASF103
     /tmp/ccINhHMZ.s:3280   .debug_str:0000000000000364 .LASF104
     /tmp/ccINhHMZ.s:3350   .debug_str:0000000000000550 .LASF105
     /tmp/ccINhHMZ.s:3274   .debug_str:000000000000034d .LASF106
     /tmp/ccINhHMZ.s:3288   .debug_str:00000000000003a6 .LASF108
     /tmp/ccINhHMZ.s:3414   .debug_str:0000000000000806 .LASF110
     /tmp/ccINhHMZ.s:3412   .debug_str:00000000000007f8 .LASF132
     /tmp/ccINhHMZ.s:3248   .debug_str:000000000000027b .LASF133
     /tmp/ccINhHMZ.s:3318   .debug_str:000000000000049e .LASF111
GAS LISTING /tmp/ccINhHMZ.s 			page 26


     /tmp/ccINhHMZ.s:3238   .debug_str:000000000000023f .LASF112
     /tmp/ccINhHMZ.s:3372   .debug_str:0000000000000608 .LASF113
     /tmp/ccINhHMZ.s:3240   .debug_str:0000000000000252 .LASF114
     /tmp/ccINhHMZ.s:84     .text:0000000000000028 .LFB43
     /tmp/ccINhHMZ.s:629    .text:0000000000000290 .LFE43
     /tmp/ccINhHMZ.s:3176   .debug_str:000000000000003b .LASF115
     /tmp/ccINhHMZ.s:2940   .debug_loc:0000000000000000 .LLST1
     /tmp/ccINhHMZ.s:3158   .debug_ranges:0000000000000000 .Ldebug_ranges0
     /tmp/ccINhHMZ.s:3324   .debug_str:00000000000004b2 .LASF116
     /tmp/ccINhHMZ.s:2989   .debug_loc:00000000000000c5 .LLST12
     /tmp/ccINhHMZ.s:3354   .debug_str:0000000000000567 .LASF117
     /tmp/ccINhHMZ.s:3000   .debug_loc:00000000000000fb .LLST13
     /tmp/ccINhHMZ.s:3322   .debug_str:00000000000004ad .LASF118
     /tmp/ccINhHMZ.s:3011   .debug_loc:0000000000000131 .LLST14
     /tmp/ccINhHMZ.s:3026   .debug_loc:000000000000017a .LLST15
     /tmp/ccINhHMZ.s:3037   .debug_loc:00000000000001b0 .LLST16
     /tmp/ccINhHMZ.s:414    .text:00000000000001e0 .LBB91
     /tmp/ccINhHMZ.s:474    .text:0000000000000210 .LBE91
     /tmp/ccINhHMZ.s:3044   .debug_loc:00000000000001d3 .LLST17
     /tmp/ccINhHMZ.s:428    .text:00000000000001ec .LVL29
     /tmp/ccINhHMZ.s:457    .text:0000000000000204 .LVL32
     /tmp/ccINhHMZ.s:294    .text:000000000000017c .LBB84
     /tmp/ccINhHMZ.s:309    .text:0000000000000188 .LBE84
     /tmp/ccINhHMZ.s:314    .text:000000000000018c .LBB86
     /tmp/ccINhHMZ.s:330    .text:0000000000000198 .LBE86
     /tmp/ccINhHMZ.s:336    .text:00000000000001a4 .LBB88
     /tmp/ccINhHMZ.s:352    .text:00000000000001b0 .LBE88
     /tmp/ccINhHMZ.s:366    .text:00000000000001c0 .LBB92
     /tmp/ccINhHMZ.s:377    .text:00000000000001c4 .LBE92
     /tmp/ccINhHMZ.s:3051   .debug_loc:00000000000001f6 .LLST18
     /tmp/ccINhHMZ.s:379    .text:00000000000001c4 .LBB94
     /tmp/ccINhHMZ.s:391    .text:00000000000001c8 .LBE94
     /tmp/ccINhHMZ.s:3058   .debug_loc:0000000000000219 .LLST19
     /tmp/ccINhHMZ.s:529    .text:0000000000000244 .LBB69
     /tmp/ccINhHMZ.s:603    .text:000000000000027c .LBE69
     /tmp/ccINhHMZ.s:3065   .debug_loc:000000000000023c .LLST7
     /tmp/ccINhHMZ.s:3072   .debug_loc:000000000000025f .LLST8
     /tmp/ccINhHMZ.s:531    .text:0000000000000244 .LBB70
     /tmp/ccINhHMZ.s:547    .text:0000000000000250 .LBE70
     /tmp/ccINhHMZ.s:549    .text:0000000000000250 .LBB72
     /tmp/ccINhHMZ.s:565    .text:000000000000025c .LBE72
     /tmp/ccINhHMZ.s:575    .text:0000000000000270 .LBB74
     /tmp/ccINhHMZ.s:586    .text:0000000000000274 .LBE74
     /tmp/ccINhHMZ.s:3079   .debug_loc:0000000000000282 .LLST9
     /tmp/ccINhHMZ.s:588    .text:0000000000000274 .LBB76
     /tmp/ccINhHMZ.s:602    .text:000000000000027c .LBE76
     /tmp/ccINhHMZ.s:3086   .debug_loc:00000000000002a5 .LLST10
     /tmp/ccINhHMZ.s:573    .text:0000000000000270 .LVL41
     /tmp/ccINhHMZ.s:142    .text:0000000000000078 .LBB55
     /tmp/ccINhHMZ.s:283    .text:0000000000000178 .LBE55
     /tmp/ccINhHMZ.s:3093   .debug_loc:00000000000002c8 .LLST2
     /tmp/ccINhHMZ.s:3342   .debug_str:000000000000051f .LASF119
     /tmp/ccINhHMZ.s:3100   .debug_loc:00000000000002eb .LLST3
     /tmp/ccINhHMZ.s:3107   .debug_loc:000000000000030e .LLST4
     /tmp/ccINhHMZ.s:3114   .debug_loc:0000000000000331 .LLST5
     /tmp/ccINhHMZ.s:144    .text:0000000000000078 .LBB56
     /tmp/ccINhHMZ.s:160    .text:0000000000000084 .LBE56
GAS LISTING /tmp/ccINhHMZ.s 			page 27


     /tmp/ccINhHMZ.s:179    .text:00000000000000b8 .LBB58
     /tmp/ccINhHMZ.s:195    .text:00000000000000c4 .LBE58
     /tmp/ccINhHMZ.s:214    .text:00000000000000f8 .LBB60
     /tmp/ccINhHMZ.s:230    .text:0000000000000104 .LBE60
     /tmp/ccINhHMZ.s:249    .text:0000000000000138 .LBB62
     /tmp/ccINhHMZ.s:265    .text:0000000000000144 .LBE62
     /tmp/ccINhHMZ.s:165    .text:0000000000000094 .LVL4
     /tmp/ccINhHMZ.s:172    .text:00000000000000a8 .LVL5
     /tmp/ccINhHMZ.s:177    .text:00000000000000b8 .LVL6
     /tmp/ccINhHMZ.s:200    .text:00000000000000d4 .LVL8
     /tmp/ccINhHMZ.s:207    .text:00000000000000e8 .LVL9
     /tmp/ccINhHMZ.s:212    .text:00000000000000f8 .LVL10
     /tmp/ccINhHMZ.s:235    .text:0000000000000114 .LVL12
     /tmp/ccINhHMZ.s:242    .text:0000000000000128 .LVL13
     /tmp/ccINhHMZ.s:247    .text:0000000000000138 .LVL14
     /tmp/ccINhHMZ.s:270    .text:0000000000000154 .LVL16
     /tmp/ccINhHMZ.s:277    .text:0000000000000168 .LVL17
     /tmp/ccINhHMZ.s:282    .text:0000000000000178 .LVL18
     /tmp/ccINhHMZ.s:100    .text:0000000000000040 .LBB50
     /tmp/ccINhHMZ.s:116    .text:000000000000004c .LBE50
     /tmp/ccINhHMZ.s:611    .text:0000000000000284 .LBB64
     /tmp/ccINhHMZ.s:624    .text:0000000000000290 .LBE64
     /tmp/ccINhHMZ.s:493    .text:0000000000000230 .LBB67
     /tmp/ccINhHMZ.s:501    .text:0000000000000234 .LBE67
     /tmp/ccINhHMZ.s:3121   .debug_loc:0000000000000354 .LLST6
     /tmp/ccINhHMZ.s:512    .text:0000000000000238 .LBB78
     /tmp/ccINhHMZ.s:527    .text:0000000000000244 .LBE78
     /tmp/ccINhHMZ.s:3128   .debug_loc:0000000000000377 .LLST11
     /tmp/ccINhHMZ.s:609    .text:0000000000000284 .LVL44
     /tmp/ccINhHMZ.s:10     .text:0000000000000000 .LFB42
     /tmp/ccINhHMZ.s:58     .text:0000000000000028 .LFE42
     /tmp/ccINhHMZ.s:29     .text:0000000000000010 .LBB48
     /tmp/ccINhHMZ.s:42     .text:0000000000000018 .LBE48
     /tmp/ccINhHMZ.s:3136   .debug_loc:000000000000039b .LLST0
     /tmp/ccINhHMZ.s:3422   .debug_str:000000000000084a .LASF134
     /tmp/ccINhHMZ.s:3434   .debug_str:00000000000008ba .LASF120
     /tmp/ccINhHMZ.s:3220   .debug_str:0000000000000190 .LASF121
     /tmp/ccINhHMZ.s:3178   .debug_str:0000000000000042 .LASF123
     /tmp/ccINhHMZ.s:3334   .debug_str:00000000000004e4 .LASF122
     /tmp/ccINhHMZ.s:3246   .debug_str:0000000000000272 .LASF124
     /tmp/ccINhHMZ.s:3222   .debug_str:00000000000001a3 .LASF125
     /tmp/ccINhHMZ.s:114    .text:000000000000004c .LVL2
     /tmp/ccINhHMZ.s:289    .text:000000000000017c .LVL19
     /tmp/ccINhHMZ.s:358    .text:00000000000001b4 .LVL23
     /tmp/ccINhHMZ.s:362    .text:00000000000001c0 .LVL24
     /tmp/ccINhHMZ.s:408    .text:00000000000001e0 .LVL27
     /tmp/ccINhHMZ.s:443    .text:00000000000001f8 .LVL30
     /tmp/ccINhHMZ.s:472    .text:0000000000000210 .LVL33
     /tmp/ccINhHMZ.s:484    .text:0000000000000218 .LVL34
     /tmp/ccINhHMZ.s:504    .text:0000000000000238 .LVL37
     /tmp/ccINhHMZ.s:524    .text:0000000000000244 .LVL38
     /tmp/ccINhHMZ.s:599    .text:000000000000027c .LVL43
     /tmp/ccINhHMZ.s:312    .text:000000000000018c .LVL20
     /tmp/ccINhHMZ.s:387    .text:00000000000001c8 .LVL26
     /tmp/ccINhHMZ.s:328    .text:0000000000000198 .LVL21
     /tmp/ccINhHMZ.s:350    .text:00000000000001b0 .LVL22
     /tmp/ccINhHMZ.s:452    .text:00000000000001fc .LVL31
GAS LISTING /tmp/ccINhHMZ.s 			page 28


     /tmp/ccINhHMZ.s:423    .text:00000000000001e4 .LVL28
     /tmp/ccINhHMZ.s:374    .text:00000000000001c4 .LVL25
     /tmp/ccINhHMZ.s:545    .text:0000000000000250 .LVL39
     /tmp/ccINhHMZ.s:563    .text:000000000000025c .LVL40
     /tmp/ccINhHMZ.s:583    .text:0000000000000274 .LVL42
     /tmp/ccINhHMZ.s:158    .text:0000000000000084 .LVL3
     /tmp/ccINhHMZ.s:193    .text:00000000000000c4 .LVL7
     /tmp/ccINhHMZ.s:228    .text:0000000000000104 .LVL11
     /tmp/ccINhHMZ.s:263    .text:0000000000000144 .LVL15
     /tmp/ccINhHMZ.s:492    .text:0000000000000230 .LVL35
     /tmp/ccINhHMZ.s:499    .text:0000000000000234 .LVL36
     /tmp/ccINhHMZ.s:27     .text:0000000000000010 .LVL0
     /tmp/ccINhHMZ.s:39     .text:0000000000000018 .LVL1
     /tmp/ccINhHMZ.s:638    .debug_info:0000000000000000 .Ldebug_info0
     /tmp/ccINhHMZ.s:292    .text:000000000000017c .LBB83
     /tmp/ccINhHMZ.s:392    .text:00000000000001c8 .LBE83
     /tmp/ccINhHMZ.s:412    .text:00000000000001e0 .LBB97
     /tmp/ccINhHMZ.s:476    .text:0000000000000210 .LBE97

UNDEFINED SYMBOLS
_Z11printStringPKc
_Z8printIntiii
_ZN3TCB16timeSliceCounterE
_ZN15MemoryAllocator9mem_allocEm
_ZN15MemoryAllocator8mem_freeEPv
_ZN3TCB7runningE
_ZN3TCB8dispatchEv
console_handler
