GAS LISTING /tmp/cczQBlGf.s 			page 1


   1              		.file	"scheduler.cpp"
   2              		.option pic
   3              		.option norelax
   4              		.text
   5              	.Ltext0:
   6              		.align	2
   8              	_Z41__static_initialization_and_destruction_0ii:
   9              	.LFB27:
  10              		.file 1 "src/scheduler.cpp"
   1:src/scheduler.cpp **** #include "../h/scheduler.hpp"
   2:src/scheduler.cpp **** 
   3:src/scheduler.cpp **** List<TCB> Scheduler::readyThreadQueue;
   4:src/scheduler.cpp **** 
   5:src/scheduler.cpp **** TCB* Scheduler::get() {
   6:src/scheduler.cpp ****     return readyThreadQueue.removeFirst();
   7:src/scheduler.cpp **** }
   8:src/scheduler.cpp **** 
   9:src/scheduler.cpp **** void Scheduler::put(TCB* tcb) {
  10:src/scheduler.cpp ****     readyThreadQueue.addLast(tcb);
  11:src/scheduler.cpp **** }...
  11              		.loc 1 11 1
  12              		.cfi_startproc
  13              	.LVL0:
  14 0000 130101FF 		addi	sp,sp,-16
  15              		.cfi_def_cfa_offset 16
  16 0004 23348100 		sd	s0,8(sp)
  17              		.cfi_offset 8, -8
  18 0008 13040101 		addi	s0,sp,16
  19              		.cfi_def_cfa 8, 0
  20              		.loc 1 11 1 is_stmt 0
  21 000c 93071000 		li	a5,1
  22 0010 6308F500 		beq	a0,a5,.L4
  23              	.L1:
  24 0014 03348100 		ld	s0,8(sp)
  25              		.cfi_remember_state
  26              		.cfi_restore 8
  27              		.cfi_def_cfa 2, 16
  28 0018 13010101 		addi	sp,sp,16
  29              		.cfi_def_cfa_offset 0
  30 001c 67800000 		jr	ra
  31              	.L4:
  32              		.cfi_restore_state
  33              		.loc 1 11 1 discriminator 1
  34 0020 B7070100 		li	a5,65536
  35 0024 9387F7FF 		addi	a5,a5,-1
  36 0028 E396F5FE 		bne	a1,a5,.L1
  37              	.LVL1:
  38              	.LBB23:
  39              	.LBB24:
  40              	.LBB25:
  41              		.file 2 "src/../h/list.hpp"
   1:src/../h/list.hpp **** #ifndef LIST_H
   2:src/../h/list.hpp **** #define LIST_H
   3:src/../h/list.hpp **** 
   4:src/../h/list.hpp **** #include "MemoryAllocator.hpp"
   5:src/../h/list.hpp **** 
   6:src/../h/list.hpp **** template <typename T> class List {
GAS LISTING /tmp/cczQBlGf.s 			page 2


   7:src/../h/list.hpp **** public:
   8:src/../h/list.hpp ****     List() : head(0), tail(0) {}
  42              		.loc 2 8 29
  43 002c 97070000 		lla	a5,.LANCHOR0
  43      93870700 
  44 0034 23B00700 		sd	zero,0(a5)
  45 0038 23B40700 		sd	zero,8(a5)
  46              	.LVL2:
  47              	.LBE25:
  48              	.LBE24:
  49              	.LBE23:
  50              		.loc 1 11 1
  51 003c 6FF09FFD 		j	.L1
  52              		.cfi_endproc
  53              	.LFE27:
  55              		.align	2
  56              		.globl	_ZN9Scheduler3getEv
  58              	_ZN9Scheduler3getEv:
  59              	.LFB15:
   5:src/scheduler.cpp **** TCB* Scheduler::get() {
  60              		.loc 1 5 23 is_stmt 1
  61              		.cfi_startproc
  62 0040 130101FE 		addi	sp,sp,-32
  63              		.cfi_def_cfa_offset 32
  64 0044 233C1100 		sd	ra,24(sp)
  65 0048 23388100 		sd	s0,16(sp)
  66 004c 23349100 		sd	s1,8(sp)
  67              		.cfi_offset 1, -8
  68              		.cfi_offset 8, -16
  69              		.cfi_offset 9, -24
  70 0050 13040102 		addi	s0,sp,32
  71              		.cfi_def_cfa 8, 0
   6:src/scheduler.cpp ****     return readyThreadQueue.removeFirst();
  72              		.loc 1 6 5
  73              	.LVL3:
  74              	.LBB26:
  75              	.LBB27:
   9:src/../h/list.hpp **** 
  10:src/../h/list.hpp ****     List(const List<T> &) = delete;
  11:src/../h/list.hpp ****     List<T> &operator=(const List<T> &) = delete;
  12:src/../h/list.hpp **** 
  13:src/../h/list.hpp ****     void addFirst(T* item) {
  14:src/../h/list.hpp ****         Element* element = new Element(item, head);
  15:src/../h/list.hpp ****         head = element;
  16:src/../h/list.hpp ****         if(!tail) tail = element;
  17:src/../h/list.hpp ****     }
  18:src/../h/list.hpp **** 
  19:src/../h/list.hpp ****     void addLast(T* item) {
  20:src/../h/list.hpp ****         Element* element = new Element(item, nullptr);
  21:src/../h/list.hpp ****         if(tail) {
  22:src/../h/list.hpp ****             tail->next = element;
  23:src/../h/list.hpp ****             tail = element;
  24:src/../h/list.hpp ****         } else head = tail = element;
  25:src/../h/list.hpp ****     }
  26:src/../h/list.hpp **** 
  27:src/../h/list.hpp ****     T* removeFirst() {
  28:src/../h/list.hpp ****         if(!head) return nullptr;
GAS LISTING /tmp/cczQBlGf.s 			page 3


  76              		.loc 2 28 13 is_stmt 0
  77 0054 17050000 		ld	a0,.LANCHOR0
  77      03350500 
  78              		.loc 2 28 9
  79 005c 63020504 		beqz	a0,.L8
  80              	.LVL4:
  29:src/../h/list.hpp ****         Element* element = head;
  30:src/../h/list.hpp ****         head = head->next;
  81              		.loc 2 30 22
  82 0060 83378500 		ld	a5,8(a0)
  83              		.loc 2 30 9
  84 0064 17070000 		sd	a5,.LANCHOR0,a4
  84      2330F700 
  31:src/../h/list.hpp ****         if(!head) tail = nullptr;
  85              		.loc 2 31 9
  86 006c 63840702 		beqz	a5,.L10
  87              	.L7:
  32:src/../h/list.hpp **** 
  33:src/../h/list.hpp ****         T* result = element->item;
  88              		.loc 2 33 12
  89 0070 83340500 		ld	s1,0(a0)
  90              	.LVL5:
  91              	.LBB28:
  92              	.LBB29:
  34:src/../h/list.hpp ****         delete element;
  35:src/../h/list.hpp ****         return result;
  36:src/../h/list.hpp ****     }
  37:src/../h/list.hpp **** 
  38:src/../h/list.hpp ****     T* removeLast() {
  39:src/../h/list.hpp ****         if(!tail) return nullptr;
  40:src/../h/list.hpp **** 
  41:src/../h/list.hpp ****         Element* prev = nullptr;
  42:src/../h/list.hpp ****         for(Element* curr = head; curr != tail; prev = curr, curr = curr->next) {}
  43:src/../h/list.hpp **** 
  44:src/../h/list.hpp ****         Element* element = tail;
  45:src/../h/list.hpp ****         if(prev) prev->next = nullptr;
  46:src/../h/list.hpp ****         else head = nullptr;
  47:src/../h/list.hpp ****         tail = prev;
  48:src/../h/list.hpp **** 
  49:src/../h/list.hpp ****         T* result = element->item;
  50:src/../h/list.hpp ****         delete element;
  51:src/../h/list.hpp ****         return result;
  52:src/../h/list.hpp ****     }
  53:src/../h/list.hpp **** 
  54:src/../h/list.hpp ****     T* peekFirst() {
  55:src/../h/list.hpp ****         if(!head) return nullptr;
  56:src/../h/list.hpp ****         return head->item;
  57:src/../h/list.hpp ****     }
  58:src/../h/list.hpp **** 
  59:src/../h/list.hpp ****     T* peekLast() {
  60:src/../h/list.hpp ****         if(!tail) return nullptr;
  61:src/../h/list.hpp ****         return tail->item;
  62:src/../h/list.hpp ****     }
  63:src/../h/list.hpp **** 
  64:src/../h/list.hpp **** private:
  65:src/../h/list.hpp ****     struct Element {
  66:src/../h/list.hpp ****         T* item;
GAS LISTING /tmp/cczQBlGf.s 			page 4


  67:src/../h/list.hpp ****         Element* next;
  68:src/../h/list.hpp **** 
  69:src/../h/list.hpp ****         Element(T* item, Element* next) : item(item), next(next) {}
  70:src/../h/list.hpp **** 
  71:src/../h/list.hpp ****         void* operator new(size_t size){
  72:src/../h/list.hpp ****             return MemoryAllocator::mem_alloc(size);
  73:src/../h/list.hpp ****         }
  74:src/../h/list.hpp **** 
  75:src/../h/list.hpp ****         void* operator new[](size_t size){
  76:src/../h/list.hpp ****             return MemoryAllocator::mem_alloc(size);
  77:src/../h/list.hpp ****         }
  78:src/../h/list.hpp **** 
  79:src/../h/list.hpp ****         void operator delete(void* ptr){
  80:src/../h/list.hpp ****             MemoryAllocator::mem_free(ptr);
  93              		.loc 2 80 38
  94 0074 97000000 		call	_ZN15MemoryAllocator8mem_freeEPv@plt
  94      E7800000 
  95              	.LVL6:
  96              	.L5:
  97              	.LBE29:
  98              	.LBE28:
  99              	.LBE27:
 100              	.LBE26:
   7:src/scheduler.cpp **** }
 101              		.loc 1 7 1
 102 007c 13850400 		mv	a0,s1
 103 0080 83308101 		ld	ra,24(sp)
 104              		.cfi_remember_state
 105              		.cfi_restore 1
 106 0084 03340101 		ld	s0,16(sp)
 107              		.cfi_restore 8
 108              		.cfi_def_cfa 2, 32
 109 0088 83348100 		ld	s1,8(sp)
 110              		.cfi_restore 9
 111 008c 13010102 		addi	sp,sp,32
 112              		.cfi_def_cfa_offset 0
 113 0090 67800000 		jr	ra
 114              	.LVL7:
 115              	.L10:
 116              		.cfi_restore_state
 117              	.LBB31:
 118              	.LBB30:
  31:src/../h/list.hpp **** 
 119              		.loc 2 31 19
 120 0094 97070000 		sd	zero,.LANCHOR0+8,a5
 120      23B00700 
 121 009c 6FF05FFD 		j	.L7
 122              	.LVL8:
 123              	.L8:
  28:src/../h/list.hpp ****         Element* element = head;
 124              		.loc 2 28 26
 125 00a0 93040500 		mv	s1,a0
 126              	.LVL9:
 127              	.LBE30:
 128              	.LBE31:
   6:src/scheduler.cpp ****     return readyThreadQueue.removeFirst();
 129              		.loc 1 6 41
GAS LISTING /tmp/cczQBlGf.s 			page 5


 130 00a4 6FF09FFD 		j	.L5
 131              		.cfi_endproc
 132              	.LFE15:
 134              		.align	2
 135              		.globl	_ZN9Scheduler3putEP3TCB
 137              	_ZN9Scheduler3putEP3TCB:
 138              	.LFB16:
   9:src/scheduler.cpp **** void Scheduler::put(TCB* tcb) {
 139              		.loc 1 9 31 is_stmt 1
 140              		.cfi_startproc
 141              	.LVL10:
 142 00a8 130101FE 		addi	sp,sp,-32
 143              		.cfi_def_cfa_offset 32
 144 00ac 233C1100 		sd	ra,24(sp)
 145 00b0 23388100 		sd	s0,16(sp)
 146 00b4 23349100 		sd	s1,8(sp)
 147              		.cfi_offset 1, -8
 148              		.cfi_offset 8, -16
 149              		.cfi_offset 9, -24
 150 00b8 13040102 		addi	s0,sp,32
 151              		.cfi_def_cfa 8, 0
 152 00bc 93040500 		mv	s1,a0
  10:src/scheduler.cpp ****     readyThreadQueue.addLast(tcb);
 153              		.loc 1 10 5
 154              	.LVL11:
 155              	.LBB32:
 156              	.LBB33:
 157              	.LBB34:
 158              	.LBB35:
  72:src/../h/list.hpp ****         }
 159              		.loc 2 72 46 is_stmt 0
 160 00c0 13050001 		li	a0,16
 161              	.LVL12:
 162 00c4 97000000 		call	_ZN15MemoryAllocator9mem_allocEm@plt
 162      E7800000 
 163              	.LVL13:
 164              	.LBE35:
 165              	.LBE34:
 166              	.LBB36:
 167              	.LBB37:
  69:src/../h/list.hpp **** 
 168              		.loc 2 69 64
 169 00cc 23309500 		sd	s1,0(a0)
 170 00d0 23340500 		sd	zero,8(a0)
 171              	.LVL14:
 172              	.LBE37:
 173              	.LBE36:
  21:src/../h/list.hpp ****             tail->next = element;
 174              		.loc 2 21 12
 175 00d4 97070000 		ld	a5,.LANCHOR0+8
 175      83B70700 
  21:src/../h/list.hpp ****             tail->next = element;
 176              		.loc 2 21 9
 177 00dc 63820702 		beqz	a5,.L12
  22:src/../h/list.hpp ****             tail = element;
 178              		.loc 2 22 13
 179 00e0 23B4A700 		sd	a0,8(a5)
GAS LISTING /tmp/cczQBlGf.s 			page 6


  23:src/../h/list.hpp ****         } else head = tail = element;
 180              		.loc 2 23 13
 181 00e4 97070000 		sd	a0,.LANCHOR0+8,a5
 181      23B0A700 
 182              	.LVL15:
 183              	.L11:
 184              	.LBE33:
 185              	.LBE32:
 186              		.loc 1 11 1
 187 00ec 83308101 		ld	ra,24(sp)
 188              		.cfi_remember_state
 189              		.cfi_restore 1
 190 00f0 03340101 		ld	s0,16(sp)
 191              		.cfi_restore 8
 192              		.cfi_def_cfa 2, 32
 193 00f4 83348100 		ld	s1,8(sp)
 194              		.cfi_restore 9
 195              	.LVL16:
 196 00f8 13010102 		addi	sp,sp,32
 197              		.cfi_def_cfa_offset 0
 198 00fc 67800000 		jr	ra
 199              	.LVL17:
 200              	.L12:
 201              		.cfi_restore_state
 202              	.LBB39:
 203              	.LBB38:
  24:src/../h/list.hpp ****     }
 204              		.loc 2 24 16
 205 0100 97070000 		lla	a5,.LANCHOR0
 205      93870700 
 206 0108 23B4A700 		sd	a0,8(a5)
 207 010c 23B0A700 		sd	a0,0(a5)
 208              	.LVL18:
 209              	.LBE38:
 210              	.LBE39:
 211              		.loc 1 11 1
 212 0110 6FF0DFFD 		j	.L11
 213              		.cfi_endproc
 214              	.LFE16:
 216              		.align	2
 218              	_GLOBAL__sub_I__ZN9Scheduler16readyThreadQueueE:
 219              	.LFB28:
 220              		.loc 1 11 1 is_stmt 1
 221              		.cfi_startproc
 222 0114 130101FF 		addi	sp,sp,-16
 223              		.cfi_def_cfa_offset 16
 224 0118 23341100 		sd	ra,8(sp)
 225 011c 23308100 		sd	s0,0(sp)
 226              		.cfi_offset 1, -8
 227              		.cfi_offset 8, -16
 228 0120 13040101 		addi	s0,sp,16
 229              		.cfi_def_cfa 8, 0
 230              		.loc 1 11 1 is_stmt 0
 231 0124 B7050100 		li	a1,65536
 232 0128 9385F5FF 		addi	a1,a1,-1
 233 012c 13051000 		li	a0,1
 234 0130 97000000 		call	_Z41__static_initialization_and_destruction_0ii
GAS LISTING /tmp/cczQBlGf.s 			page 7


 234      E7800000 
 235              	.LVL19:
 236 0138 83308100 		ld	ra,8(sp)
 237              		.cfi_restore 1
 238 013c 03340100 		ld	s0,0(sp)
 239              		.cfi_restore 8
 240              		.cfi_def_cfa 2, 16
 241 0140 13010101 		addi	sp,sp,16
 242              		.cfi_def_cfa_offset 0
 243 0144 67800000 		jr	ra
 244              		.cfi_endproc
 245              	.LFE28:
 247              		.section	.init_array,"aw"
 248              		.align	3
 249 0000 00000000 		.dword	_GLOBAL__sub_I__ZN9Scheduler16readyThreadQueueE
 249      00000000 
 250              		.globl	_ZN9Scheduler16readyThreadQueueE
 251              		.bss
 252              		.align	3
 253              		.set	.LANCHOR0,. + 0
 256              	_ZN9Scheduler16readyThreadQueueE:
 257 0000 00000000 		.zero	16
 257      00000000 
 257      00000000 
 257      00000000 
 258              		.text
 259              	.Letext0:
 260              		.file 3 "src/../h/../lib/hw.h"
 261              		.file 4 "src/../h/MemoryAllocator.hpp"
 262              		.file 5 "src/../h/scheduler.hpp"
GAS LISTING /tmp/cczQBlGf.s 			page 8


DEFINED SYMBOLS
                            *ABS*:0000000000000000 scheduler.cpp
     /tmp/cczQBlGf.s:8      .text:0000000000000000 _Z41__static_initialization_and_destruction_0ii
     /tmp/cczQBlGf.s:12     .text:0000000000000000 .L0 
     /tmp/cczQBlGf.s:14     .text:0000000000000000 .L0 
     /tmp/cczQBlGf.s:15     .text:0000000000000004 .L0 
     /tmp/cczQBlGf.s:17     .text:0000000000000008 .L0 
     /tmp/cczQBlGf.s:19     .text:000000000000000c .L0 
     /tmp/cczQBlGf.s:21     .text:000000000000000c .L0 
     /tmp/cczQBlGf.s:25     .text:0000000000000018 .L0 
     /tmp/cczQBlGf.s:26     .text:0000000000000018 .L0 
     /tmp/cczQBlGf.s:27     .text:0000000000000018 .L0 
     /tmp/cczQBlGf.s:29     .text:000000000000001c .L0 
     /tmp/cczQBlGf.s:32     .text:0000000000000020 .L0 
     /tmp/cczQBlGf.s:34     .text:0000000000000020 .L0 
     /tmp/cczQBlGf.s:43     .text:000000000000002c .L0 
     /tmp/cczQBlGf.s:51     .text:000000000000003c .L0 
     /tmp/cczQBlGf.s:52     .text:0000000000000040 .L0 
     /tmp/cczQBlGf.s:58     .text:0000000000000040 _ZN9Scheduler3getEv
     /tmp/cczQBlGf.s:61     .text:0000000000000040 .L0 
     /tmp/cczQBlGf.s:62     .text:0000000000000040 .L0 
     /tmp/cczQBlGf.s:63     .text:0000000000000044 .L0 
     /tmp/cczQBlGf.s:67     .text:0000000000000050 .L0 
     /tmp/cczQBlGf.s:68     .text:0000000000000050 .L0 
     /tmp/cczQBlGf.s:69     .text:0000000000000050 .L0 
     /tmp/cczQBlGf.s:71     .text:0000000000000054 .L0 
     /tmp/cczQBlGf.s:76     .text:0000000000000054 .L0 
     /tmp/cczQBlGf.s:77     .text:0000000000000054 .L0 
     /tmp/cczQBlGf.s:79     .text:000000000000005c .L0 
     /tmp/cczQBlGf.s:82     .text:0000000000000060 .L0 
     /tmp/cczQBlGf.s:84     .text:0000000000000064 .L0 
     /tmp/cczQBlGf.s:86     .text:000000000000006c .L0 
     /tmp/cczQBlGf.s:89     .text:0000000000000070 .L0 
     /tmp/cczQBlGf.s:94     .text:0000000000000074 .L0 
     /tmp/cczQBlGf.s:102    .text:000000000000007c .L0 
     /tmp/cczQBlGf.s:104    .text:0000000000000084 .L0 
     /tmp/cczQBlGf.s:105    .text:0000000000000084 .L0 
     /tmp/cczQBlGf.s:107    .text:0000000000000088 .L0 
     /tmp/cczQBlGf.s:108    .text:0000000000000088 .L0 
     /tmp/cczQBlGf.s:110    .text:000000000000008c .L0 
     /tmp/cczQBlGf.s:112    .text:0000000000000090 .L0 
     /tmp/cczQBlGf.s:116    .text:0000000000000094 .L0 
     /tmp/cczQBlGf.s:120    .text:0000000000000094 .L0 
     /tmp/cczQBlGf.s:125    .text:00000000000000a0 .L0 
     /tmp/cczQBlGf.s:130    .text:00000000000000a4 .L0 
     /tmp/cczQBlGf.s:131    .text:00000000000000a8 .L0 
     /tmp/cczQBlGf.s:137    .text:00000000000000a8 _ZN9Scheduler3putEP3TCB
     /tmp/cczQBlGf.s:140    .text:00000000000000a8 .L0 
     /tmp/cczQBlGf.s:142    .text:00000000000000a8 .L0 
     /tmp/cczQBlGf.s:143    .text:00000000000000ac .L0 
     /tmp/cczQBlGf.s:147    .text:00000000000000b8 .L0 
     /tmp/cczQBlGf.s:148    .text:00000000000000b8 .L0 
     /tmp/cczQBlGf.s:149    .text:00000000000000b8 .L0 
     /tmp/cczQBlGf.s:151    .text:00000000000000bc .L0 
     /tmp/cczQBlGf.s:159    .text:00000000000000c0 .L0 
     /tmp/cczQBlGf.s:160    .text:00000000000000c0 .L0 
     /tmp/cczQBlGf.s:169    .text:00000000000000cc .L0 
GAS LISTING /tmp/cczQBlGf.s 			page 9


     /tmp/cczQBlGf.s:175    .text:00000000000000d4 .L0 
     /tmp/cczQBlGf.s:177    .text:00000000000000dc .L0 
     /tmp/cczQBlGf.s:179    .text:00000000000000e0 .L0 
     /tmp/cczQBlGf.s:181    .text:00000000000000e4 .L0 
     /tmp/cczQBlGf.s:187    .text:00000000000000ec .L0 
     /tmp/cczQBlGf.s:188    .text:00000000000000f0 .L0 
     /tmp/cczQBlGf.s:189    .text:00000000000000f0 .L0 
     /tmp/cczQBlGf.s:191    .text:00000000000000f4 .L0 
     /tmp/cczQBlGf.s:192    .text:00000000000000f4 .L0 
     /tmp/cczQBlGf.s:194    .text:00000000000000f8 .L0 
     /tmp/cczQBlGf.s:197    .text:00000000000000fc .L0 
     /tmp/cczQBlGf.s:201    .text:0000000000000100 .L0 
     /tmp/cczQBlGf.s:205    .text:0000000000000100 .L0 
     /tmp/cczQBlGf.s:212    .text:0000000000000110 .L0 
     /tmp/cczQBlGf.s:213    .text:0000000000000114 .L0 
     /tmp/cczQBlGf.s:218    .text:0000000000000114 _GLOBAL__sub_I__ZN9Scheduler16readyThreadQueueE
     /tmp/cczQBlGf.s:221    .text:0000000000000114 .L0 
     /tmp/cczQBlGf.s:222    .text:0000000000000114 .L0 
     /tmp/cczQBlGf.s:223    .text:0000000000000118 .L0 
     /tmp/cczQBlGf.s:226    .text:0000000000000120 .L0 
     /tmp/cczQBlGf.s:227    .text:0000000000000120 .L0 
     /tmp/cczQBlGf.s:229    .text:0000000000000124 .L0 
     /tmp/cczQBlGf.s:231    .text:0000000000000124 .L0 
     /tmp/cczQBlGf.s:237    .text:000000000000013c .L0 
     /tmp/cczQBlGf.s:239    .text:0000000000000140 .L0 
     /tmp/cczQBlGf.s:240    .text:0000000000000140 .L0 
     /tmp/cczQBlGf.s:242    .text:0000000000000144 .L0 
     /tmp/cczQBlGf.s:244    .text:0000000000000148 .L0 
     /tmp/cczQBlGf.s:256    .bss:0000000000000000 _ZN9Scheduler16readyThreadQueueE
     /tmp/cczQBlGf.s:253    .bss:0000000000000000 .LANCHOR0
     /tmp/cczQBlGf.s:263    .text:0000000000000148 .L0 
     /tmp/cczQBlGf.s:43     .text:000000000000002c .L0 
     /tmp/cczQBlGf.s:77     .text:0000000000000054 .L0 
     /tmp/cczQBlGf.s:84     .text:0000000000000064 .L0 
     /tmp/cczQBlGf.s:120    .text:0000000000000094 .L0 
     /tmp/cczQBlGf.s:175    .text:00000000000000d4 .L0 
     /tmp/cczQBlGf.s:181    .text:00000000000000e4 .L0 
     /tmp/cczQBlGf.s:205    .text:0000000000000100 .L0 
     /tmp/cczQBlGf.s:31     .text:0000000000000020 .L4
     /tmp/cczQBlGf.s:23     .text:0000000000000014 .L1
     /tmp/cczQBlGf.s:123    .text:00000000000000a0 .L8
     /tmp/cczQBlGf.s:115    .text:0000000000000094 .L10
     /tmp/cczQBlGf.s:87     .text:0000000000000070 .L7
     /tmp/cczQBlGf.s:96     .text:000000000000007c .L5
     /tmp/cczQBlGf.s:200    .text:0000000000000100 .L12
     /tmp/cczQBlGf.s:183    .text:00000000000000ec .L11
     /tmp/cczQBlGf.s:1108   .debug_abbrev:0000000000000000 .Ldebug_abbrev0
     /tmp/cczQBlGf.s:2335   .debug_str:000000000000056d .LASF70
     /tmp/cczQBlGf.s:2353   .debug_str:00000000000006c0 .LASF71
     /tmp/cczQBlGf.s:2197   .debug_str:000000000000004b .LASF72
     /tmp/cczQBlGf.s:5      .text:0000000000000000 .Ltext0
     /tmp/cczQBlGf.s:259    .text:0000000000000148 .Letext0
     /tmp/cczQBlGf.s:2189   .debug_line:0000000000000000 .Ldebug_line0
     /tmp/cczQBlGf.s:2285   .debug_str:000000000000037e .LASF0
     /tmp/cczQBlGf.s:2293   .debug_str:00000000000003cb .LASF1
     /tmp/cczQBlGf.s:2271   .debug_str:0000000000000332 .LASF2
     /tmp/cczQBlGf.s:2247   .debug_str:0000000000000246 .LASF4
GAS LISTING /tmp/cczQBlGf.s 			page 10


     /tmp/cczQBlGf.s:2319   .debug_str:00000000000004f9 .LASF3
     /tmp/cczQBlGf.s:2199   .debug_str:000000000000006e .LASF5
     /tmp/cczQBlGf.s:2295   .debug_str:00000000000003de .LASF6
     /tmp/cczQBlGf.s:2283   .debug_str:000000000000036b .LASF7
     /tmp/cczQBlGf.s:2349   .debug_str:00000000000006a3 .LASF8
     /tmp/cczQBlGf.s:2239   .debug_str:000000000000020d .LASF9
     /tmp/cczQBlGf.s:2299   .debug_str:00000000000003fb .LASF10
     /tmp/cczQBlGf.s:2339   .debug_str:0000000000000664 .LASF11
     /tmp/cczQBlGf.s:2201   .debug_str:0000000000000075 .LASF12
     /tmp/cczQBlGf.s:2193   .debug_str:000000000000001e .LASF13
     /tmp/cczQBlGf.s:2211   .debug_str:00000000000000d2 .LASF14
     /tmp/cczQBlGf.s:2313   .debug_str:00000000000004ae .LASF15
     /tmp/cczQBlGf.s:2215   .debug_str:00000000000000ed .LASF16
     /tmp/cczQBlGf.s:2345   .debug_str:0000000000000693 .LASF50
     /tmp/cczQBlGf.s:2355   .debug_str:00000000000006d2 .LASF17
     /tmp/cczQBlGf.s:2329   .debug_str:000000000000054d .LASF18
     /tmp/cczQBlGf.s:2269   .debug_str:0000000000000322 .LASF23
     /tmp/cczQBlGf.s:2323   .debug_str:0000000000000512 .LASF19
     /tmp/cczQBlGf.s:2327   .debug_str:000000000000052c .LASF21
     /tmp/cczQBlGf.s:2301   .debug_str:000000000000040a .LASF20
     /tmp/cczQBlGf.s:2237   .debug_str:00000000000001ec .LASF22
     /tmp/cczQBlGf.s:2311   .debug_str:000000000000049e .LASF73
     /tmp/cczQBlGf.s:2267   .debug_str:00000000000002fa .LASF74
     /tmp/cczQBlGf.s:2223   .debug_str:0000000000000154 .LASF24
     /tmp/cczQBlGf.s:2227   .debug_str:000000000000018a .LASF25
     /tmp/cczQBlGf.s:2307   .debug_str:000000000000044b .LASF27
     /tmp/cczQBlGf.s:2203   .debug_str:0000000000000085 .LASF26
     /tmp/cczQBlGf.s:2337   .debug_str:0000000000000631 .LASF28
     /tmp/cczQBlGf.s:2213   .debug_str:00000000000000de .LASF29
     /tmp/cczQBlGf.s:2305   .debug_str:0000000000000418 .LASF30
     /tmp/cczQBlGf.s:2241   .debug_str:000000000000021b .LASF31
     /tmp/cczQBlGf.s:2331   .debug_str:0000000000000552 .LASF32
     /tmp/cczQBlGf.s:2297   .debug_str:00000000000003f1 .LASF33
     /tmp/cczQBlGf.s:2231   .debug_str:00000000000001b0 .LASF75
     /tmp/cczQBlGf.s:2243   .debug_str:000000000000022d .LASF76
     /tmp/cczQBlGf.s:2209   .debug_str:00000000000000ba .LASF77
     /tmp/cczQBlGf.s:2265   .debug_str:00000000000002f0 .LASF34
     /tmp/cczQBlGf.s:2245   .debug_str:0000000000000241 .LASF35
     /tmp/cczQBlGf.s:2287   .debug_str:000000000000038b .LASF36
     /tmp/cczQBlGf.s:2249   .debug_str:000000000000024d .LASF42
     /tmp/cczQBlGf.s:2281   .debug_str:0000000000000361 .LASF78
     /tmp/cczQBlGf.s:2357   .debug_str:00000000000006d7 .LASF79
     /tmp/cczQBlGf.s:2333   .debug_str:0000000000000564 .LASF37
     /tmp/cczQBlGf.s:2225   .debug_str:000000000000016d .LASF38
     /tmp/cczQBlGf.s:2275   .debug_str:000000000000034c .LASF39
     /tmp/cczQBlGf.s:2221   .debug_str:0000000000000138 .LASF40
     /tmp/cczQBlGf.s:2273   .debug_str:0000000000000340 .LASF41
     /tmp/cczQBlGf.s:2191   .debug_str:0000000000000000 .LASF43
     /tmp/cczQBlGf.s:2289   .debug_str:000000000000039e .LASF44
     /tmp/cczQBlGf.s:2195   .debug_str:000000000000002e .LASF45
     /tmp/cczQBlGf.s:2207   .debug_str:00000000000000b0 .LASF46
     /tmp/cczQBlGf.s:2259   .debug_str:00000000000002bd .LASF47
     /tmp/cczQBlGf.s:2261   .debug_str:00000000000002d8 .LASF48
     /tmp/cczQBlGf.s:2257   .debug_str:00000000000002a3 .LASF49
     /tmp/cczQBlGf.s:2279   .debug_str:0000000000000359 .LASF51
     /tmp/cczQBlGf.s:2343   .debug_str:000000000000068e .LASF52
     /tmp/cczQBlGf.s:2291   .debug_str:00000000000003a9 .LASF53
GAS LISTING /tmp/cczQBlGf.s 			page 11


     /tmp/cczQBlGf.s:2351   .debug_str:00000000000006b3 .LASF54
     /tmp/cczQBlGf.s:2233   .debug_str:00000000000001c1 .LASF55
     /tmp/cczQBlGf.s:2235   .debug_str:00000000000001dc .LASF56
     /tmp/cczQBlGf.s:2341   .debug_str:0000000000000673 .LASF57
     /tmp/cczQBlGf.s:2325   .debug_str:000000000000051c .LASF58
     /tmp/cczQBlGf.s:2205   .debug_str:0000000000000094 .LASF80
     /tmp/cczQBlGf.s:2251   .debug_str:0000000000000264 .LASF81
     /tmp/cczQBlGf.s:2229   .debug_str:0000000000000194 .LASF82
     /tmp/cczQBlGf.s:2217   .debug_str:0000000000000103 .LASF59
     /tmp/cczQBlGf.s:2277   .debug_str:0000000000000354 .LASF60
     /tmp/cczQBlGf.s:2255   .debug_str:0000000000000282 .LASF83
     /tmp/cczQBlGf.s:2219   .debug_str:0000000000000108 .LASF61
     /tmp/cczQBlGf.s:219    .text:0000000000000114 .LFB28
     /tmp/cczQBlGf.s:245    .text:0000000000000148 .LFE28
     /tmp/cczQBlGf.s:235    .text:0000000000000138 .LVL19
     /tmp/cczQBlGf.s:2309   .debug_str:0000000000000474 .LASF62
     /tmp/cczQBlGf.s:9      .text:0000000000000000 .LFB27
     /tmp/cczQBlGf.s:53     .text:0000000000000040 .LFE27
     /tmp/cczQBlGf.s:2263   .debug_str:00000000000002e1 .LASF63
     /tmp/cczQBlGf.s:2253   .debug_str:0000000000000277 .LASF64
     /tmp/cczQBlGf.s:38     .text:000000000000002c .LBB23
     /tmp/cczQBlGf.s:49     .text:000000000000003c .LBE23
     /tmp/cczQBlGf.s:2031   .debug_loc:0000000000000000 .LLST0
     /tmp/cczQBlGf.s:2303   .debug_str:0000000000000413 .LASF65
     /tmp/cczQBlGf.s:2317   .debug_str:00000000000004d7 .LASF68
     /tmp/cczQBlGf.s:2347   .debug_str:000000000000069b .LASF66
     /tmp/cczQBlGf.s:2321   .debug_str:000000000000050b .LASF67
     /tmp/cczQBlGf.s:2315   .debug_str:00000000000004c4 .LASF69
     /tmp/cczQBlGf.s:138    .text:00000000000000a8 .LFB16
     /tmp/cczQBlGf.s:214    .text:0000000000000114 .LFE16
     /tmp/cczQBlGf.s:2040   .debug_loc:000000000000002c .LLST5
     /tmp/cczQBlGf.s:155    .text:00000000000000c0 .LBB32
     /tmp/cczQBlGf.s:2175   .debug_ranges:0000000000000000 .Ldebug_ranges0
     /tmp/cczQBlGf.s:2062   .debug_loc:000000000000008b .LLST6
     /tmp/cczQBlGf.s:2077   .debug_loc:00000000000000d4 .LLST7
     /tmp/cczQBlGf.s:157    .text:00000000000000c0 .LBB34
     /tmp/cczQBlGf.s:165    .text:00000000000000cc .LBE34
     /tmp/cczQBlGf.s:2092   .debug_loc:000000000000011c .LLST8
     /tmp/cczQBlGf.s:163    .text:00000000000000cc .LVL13
     /tmp/cczQBlGf.s:166    .text:00000000000000cc .LBB36
     /tmp/cczQBlGf.s:173    .text:00000000000000d4 .LBE36
     /tmp/cczQBlGf.s:2100   .debug_loc:0000000000000140 .LLST9
     /tmp/cczQBlGf.s:2108   .debug_loc:0000000000000164 .LLST10
     /tmp/cczQBlGf.s:2115   .debug_loc:0000000000000187 .LLST11
     /tmp/cczQBlGf.s:59     .text:0000000000000040 .LFB15
     /tmp/cczQBlGf.s:132    .text:00000000000000a8 .LFE15
     /tmp/cczQBlGf.s:74     .text:0000000000000054 .LBB26
     /tmp/cczQBlGf.s:2122   .debug_loc:00000000000001aa .LLST1
     /tmp/cczQBlGf.s:2137   .debug_loc:00000000000001f2 .LLST2
     /tmp/cczQBlGf.s:2148   .debug_loc:0000000000000228 .LLST3
     /tmp/cczQBlGf.s:91     .text:0000000000000074 .LBB28
     /tmp/cczQBlGf.s:98     .text:000000000000007c .LBE28
     /tmp/cczQBlGf.s:2155   .debug_loc:000000000000024b .LLST4
     /tmp/cczQBlGf.s:95     .text:000000000000007c .LVL6
     /tmp/cczQBlGf.s:37     .text:000000000000002c .LVL1
     /tmp/cczQBlGf.s:46     .text:000000000000003c .LVL2
     /tmp/cczQBlGf.s:141    .text:00000000000000a8 .LVL10
GAS LISTING /tmp/cczQBlGf.s 			page 12


     /tmp/cczQBlGf.s:161    .text:00000000000000c4 .LVL12
     /tmp/cczQBlGf.s:195    .text:00000000000000f8 .LVL16
     /tmp/cczQBlGf.s:199    .text:0000000000000100 .LVL17
     /tmp/cczQBlGf.s:154    .text:00000000000000c0 .LVL11
     /tmp/cczQBlGf.s:182    .text:00000000000000ec .LVL15
     /tmp/cczQBlGf.s:208    .text:0000000000000110 .LVL18
     /tmp/cczQBlGf.s:171    .text:00000000000000d4 .LVL14
     /tmp/cczQBlGf.s:73     .text:0000000000000054 .LVL3
     /tmp/cczQBlGf.s:114    .text:0000000000000094 .LVL7
     /tmp/cczQBlGf.s:126    .text:00000000000000a4 .LVL9
     /tmp/cczQBlGf.s:80     .text:0000000000000060 .LVL4
     /tmp/cczQBlGf.s:122    .text:00000000000000a0 .LVL8
     /tmp/cczQBlGf.s:90     .text:0000000000000074 .LVL5
     /tmp/cczQBlGf.s:264    .debug_info:0000000000000000 .Ldebug_info0
     /tmp/cczQBlGf.s:100    .text:000000000000007c .LBE26
     /tmp/cczQBlGf.s:117    .text:0000000000000094 .LBB31
     /tmp/cczQBlGf.s:128    .text:00000000000000a4 .LBE31
     /tmp/cczQBlGf.s:185    .text:00000000000000ec .LBE32
     /tmp/cczQBlGf.s:202    .text:0000000000000100 .LBB39
     /tmp/cczQBlGf.s:210    .text:0000000000000110 .LBE39

UNDEFINED SYMBOLS
_ZN15MemoryAllocator8mem_freeEPv
_ZN15MemoryAllocator9mem_allocEm
