GAS LISTING /tmp/cc7aFkLY.s 			page 1


   1              		.file	"scheduler.cpp"
   2              		.option pic
   3              		.option norelax
   4              		.text
   5              	.Ltext0:
   6              		.align	2
   8              	_Z41__static_initialization_and_destruction_0ii:
   9              	.LFB28:
  10              		.file 1 "src/scheduler.cpp"
   1:src/scheduler.cpp **** #include "../h/scheduler.hpp"
   2:src/scheduler.cpp **** 
   3:src/scheduler.cpp **** List<TCB> Scheduler::readyThreadQueue;
   4:src/scheduler.cpp **** 
   5:src/scheduler.cpp **** TCB* Scheduler::get() {
   6:src/scheduler.cpp ****     return readyThreadQueue.removeFirst();
   7:src/scheduler.cpp **** }
   8:src/scheduler.cpp **** 
   9:src/scheduler.cpp **** void Scheduler::put(TCB* tcb) {
  10:src/scheduler.cpp ****     readyThreadQueue.addLast(tcb);
  11:src/scheduler.cpp **** }
  12:src/scheduler.cpp **** 
  13:src/scheduler.cpp **** void Scheduler::deleteThreadQueue() {
  14:src/scheduler.cpp ****     while(get());
  15:src/scheduler.cpp **** }
  11              		.loc 1 15 1
  12              		.cfi_startproc
  13              	.LVL0:
  14 0000 130101FF 		addi	sp,sp,-16
  15              		.cfi_def_cfa_offset 16
  16 0004 23348100 		sd	s0,8(sp)
  17              		.cfi_offset 8, -8
  18 0008 13040101 		addi	s0,sp,16
  19              		.cfi_def_cfa 8, 0
  20              		.loc 1 15 1 is_stmt 0
  21 000c 93071000 		li	a5,1
  22 0010 6308F500 		beq	a0,a5,.L4
  23              	.L1:
  24 0014 03348100 		ld	s0,8(sp)
  25              		.cfi_remember_state
  26              		.cfi_restore 8
  27              		.cfi_def_cfa 2, 16
  28 0018 13010101 		addi	sp,sp,16
  29              		.cfi_def_cfa_offset 0
  30 001c 67800000 		jr	ra
  31              	.L4:
  32              		.cfi_restore_state
  33              		.loc 1 15 1 discriminator 1
  34 0020 B7070100 		li	a5,65536
  35 0024 9387F7FF 		addi	a5,a5,-1
  36 0028 E396F5FE 		bne	a1,a5,.L1
  37              	.LVL1:
  38              	.LBB23:
  39              	.LBB24:
  40              	.LBB25:
  41              		.file 2 "src/../h/list.hpp"
   1:src/../h/list.hpp **** #ifndef LIST_H
   2:src/../h/list.hpp **** #define LIST_H
GAS LISTING /tmp/cc7aFkLY.s 			page 2


   3:src/../h/list.hpp **** 
   4:src/../h/list.hpp **** #include "MemoryAllocator.hpp"
   5:src/../h/list.hpp **** 
   6:src/../h/list.hpp **** template <typename T> class List {
   7:src/../h/list.hpp **** public:
   8:src/../h/list.hpp ****     List() : head(0), tail(0) {}
  42              		.loc 2 8 29
  43 002c 97070000 		lla	a5,.LANCHOR0
  43      93870700 
  44 0034 23B00700 		sd	zero,0(a5)
  45 0038 23B40700 		sd	zero,8(a5)
  46              	.LVL2:
  47              	.LBE25:
  48              	.LBE24:
  49              	.LBE23:
  50              		.loc 1 15 1
  51 003c 6FF09FFD 		j	.L1
  52              		.cfi_endproc
  53              	.LFE28:
  55              		.align	2
  56              		.globl	_ZN9Scheduler3getEv
  58              	_ZN9Scheduler3getEv:
  59              	.LFB15:
   5:src/scheduler.cpp ****     return readyThreadQueue.removeFirst();
  60              		.loc 1 5 23 is_stmt 1
  61              		.cfi_startproc
  62 0040 130101FE 		addi	sp,sp,-32
  63              		.cfi_def_cfa_offset 32
  64 0044 233C1100 		sd	ra,24(sp)
  65 0048 23388100 		sd	s0,16(sp)
  66 004c 23349100 		sd	s1,8(sp)
  67              		.cfi_offset 1, -8
  68              		.cfi_offset 8, -16
  69              		.cfi_offset 9, -24
  70 0050 13040102 		addi	s0,sp,32
  71              		.cfi_def_cfa 8, 0
   6:src/scheduler.cpp **** }
  72              		.loc 1 6 5
  73              	.LVL3:
  74              	.LBB26:
  75              	.LBB27:
   9:src/../h/list.hpp **** 
  10:src/../h/list.hpp ****     List(const List<T> &) = delete;
  11:src/../h/list.hpp ****     List<T> &operator=(const List<T> &) = delete;
  12:src/../h/list.hpp **** 
  13:src/../h/list.hpp ****     void addFirst(T* item) {
  14:src/../h/list.hpp ****         Element* element = new Element(item, head);
  15:src/../h/list.hpp ****         head = element;
  16:src/../h/list.hpp ****         if(!tail) tail = element;
  17:src/../h/list.hpp ****     }
  18:src/../h/list.hpp **** 
  19:src/../h/list.hpp ****     void addLast(T* item) {
  20:src/../h/list.hpp ****         Element* element = new Element(item, nullptr);
  21:src/../h/list.hpp ****         if(tail) {
  22:src/../h/list.hpp ****             tail->next = element;
  23:src/../h/list.hpp ****             tail = element;
  24:src/../h/list.hpp ****         } else head = tail = element;
GAS LISTING /tmp/cc7aFkLY.s 			page 3


  25:src/../h/list.hpp ****     }
  26:src/../h/list.hpp **** 
  27:src/../h/list.hpp ****     T* removeFirst() {
  28:src/../h/list.hpp ****         if(!head) return nullptr;
  76              		.loc 2 28 13 is_stmt 0
  77 0054 17050000 		ld	a0,.LANCHOR0
  77      03350500 
  78              		.loc 2 28 9
  79 005c 63020504 		beqz	a0,.L8
  80              	.LVL4:
  29:src/../h/list.hpp ****         Element* element = head;
  30:src/../h/list.hpp ****         head = head->next;
  81              		.loc 2 30 22
  82 0060 83378500 		ld	a5,8(a0)
  83              		.loc 2 30 9
  84 0064 17070000 		sd	a5,.LANCHOR0,a4
  84      2330F700 
  31:src/../h/list.hpp ****         if(!head) tail = nullptr;
  85              		.loc 2 31 9
  86 006c 63840702 		beqz	a5,.L10
  87              	.L7:
  32:src/../h/list.hpp **** 
  33:src/../h/list.hpp ****         T* result = element->item;
  88              		.loc 2 33 12
  89 0070 83340500 		ld	s1,0(a0)
  90              	.LVL5:
  91              	.LBB28:
  92              	.LBB29:
  34:src/../h/list.hpp ****         delete element;
  35:src/../h/list.hpp ****         return result;
  36:src/../h/list.hpp ****     }
  37:src/../h/list.hpp **** 
  38:src/../h/list.hpp ****     T* removeLast() {
  39:src/../h/list.hpp ****         if(!tail) return nullptr;
  40:src/../h/list.hpp **** 
  41:src/../h/list.hpp ****         Element* prev = nullptr;
  42:src/../h/list.hpp ****         for(Element* curr = head; curr != tail; prev = curr, curr = curr->next) {}
  43:src/../h/list.hpp **** 
  44:src/../h/list.hpp ****         Element* element = tail;
  45:src/../h/list.hpp ****         if(prev) prev->next = nullptr;
  46:src/../h/list.hpp ****         else head = nullptr;
  47:src/../h/list.hpp ****         tail = prev;
  48:src/../h/list.hpp **** 
  49:src/../h/list.hpp ****         T* result = element->item;
  50:src/../h/list.hpp ****         delete element;
  51:src/../h/list.hpp ****         return result;
  52:src/../h/list.hpp ****     }
  53:src/../h/list.hpp **** 
  54:src/../h/list.hpp ****     T* peekFirst() {
  55:src/../h/list.hpp ****         if(!head) return nullptr;
  56:src/../h/list.hpp ****         return head->item;
  57:src/../h/list.hpp ****     }
  58:src/../h/list.hpp **** 
  59:src/../h/list.hpp ****     T* peekLast() {
  60:src/../h/list.hpp ****         if(!tail) return nullptr;
  61:src/../h/list.hpp ****         return tail->item;
  62:src/../h/list.hpp ****     }
GAS LISTING /tmp/cc7aFkLY.s 			page 4


  63:src/../h/list.hpp **** 
  64:src/../h/list.hpp **** private:
  65:src/../h/list.hpp ****     struct Element {
  66:src/../h/list.hpp ****         T* item;
  67:src/../h/list.hpp ****         Element* next;
  68:src/../h/list.hpp **** 
  69:src/../h/list.hpp ****         Element(T* item, Element* next) : item(item), next(next) {}
  70:src/../h/list.hpp **** 
  71:src/../h/list.hpp ****         void* operator new(size_t size){
  72:src/../h/list.hpp ****             return MemoryAllocator::mem_alloc(size);
  73:src/../h/list.hpp ****         }
  74:src/../h/list.hpp **** 
  75:src/../h/list.hpp ****         void* operator new[](size_t size){
  76:src/../h/list.hpp ****             return MemoryAllocator::mem_alloc(size);
  77:src/../h/list.hpp ****         }
  78:src/../h/list.hpp **** 
  79:src/../h/list.hpp ****         void operator delete(void* ptr){
  80:src/../h/list.hpp ****             MemoryAllocator::mem_free(ptr);
  93              		.loc 2 80 38
  94 0074 97000000 		call	_ZN15MemoryAllocator8mem_freeEPv@plt
  94      E7800000 
  95              	.LVL6:
  96              	.L5:
  97              	.LBE29:
  98              	.LBE28:
  99              	.LBE27:
 100              	.LBE26:
   7:src/scheduler.cpp **** 
 101              		.loc 1 7 1
 102 007c 13850400 		mv	a0,s1
 103 0080 83308101 		ld	ra,24(sp)
 104              		.cfi_remember_state
 105              		.cfi_restore 1
 106 0084 03340101 		ld	s0,16(sp)
 107              		.cfi_restore 8
 108              		.cfi_def_cfa 2, 32
 109 0088 83348100 		ld	s1,8(sp)
 110              		.cfi_restore 9
 111 008c 13010102 		addi	sp,sp,32
 112              		.cfi_def_cfa_offset 0
 113 0090 67800000 		jr	ra
 114              	.LVL7:
 115              	.L10:
 116              		.cfi_restore_state
 117              	.LBB31:
 118              	.LBB30:
  31:src/../h/list.hpp **** 
 119              		.loc 2 31 19
 120 0094 97070000 		sd	zero,.LANCHOR0+8,a5
 120      23B00700 
 121 009c 6FF05FFD 		j	.L7
 122              	.LVL8:
 123              	.L8:
  28:src/../h/list.hpp ****         Element* element = head;
 124              		.loc 2 28 26
 125 00a0 93040500 		mv	s1,a0
 126              	.LVL9:
GAS LISTING /tmp/cc7aFkLY.s 			page 5


 127              	.LBE30:
 128              	.LBE31:
   6:src/scheduler.cpp **** }
 129              		.loc 1 6 41
 130 00a4 6FF09FFD 		j	.L5
 131              		.cfi_endproc
 132              	.LFE15:
 134              		.align	2
 135              		.globl	_ZN9Scheduler3putEP3TCB
 137              	_ZN9Scheduler3putEP3TCB:
 138              	.LFB16:
   9:src/scheduler.cpp ****     readyThreadQueue.addLast(tcb);
 139              		.loc 1 9 31 is_stmt 1
 140              		.cfi_startproc
 141              	.LVL10:
 142 00a8 130101FE 		addi	sp,sp,-32
 143              		.cfi_def_cfa_offset 32
 144 00ac 233C1100 		sd	ra,24(sp)
 145 00b0 23388100 		sd	s0,16(sp)
 146 00b4 23349100 		sd	s1,8(sp)
 147              		.cfi_offset 1, -8
 148              		.cfi_offset 8, -16
 149              		.cfi_offset 9, -24
 150 00b8 13040102 		addi	s0,sp,32
 151              		.cfi_def_cfa 8, 0
 152 00bc 93040500 		mv	s1,a0
  10:src/scheduler.cpp **** }
 153              		.loc 1 10 5
 154              	.LVL11:
 155              	.LBB32:
 156              	.LBB33:
 157              	.LBB34:
 158              	.LBB35:
  72:src/../h/list.hpp ****         }
 159              		.loc 2 72 46 is_stmt 0
 160 00c0 13050001 		li	a0,16
 161              	.LVL12:
 162 00c4 97000000 		call	_ZN15MemoryAllocator9mem_allocEm@plt
 162      E7800000 
 163              	.LVL13:
 164              	.LBE35:
 165              	.LBE34:
 166              	.LBB36:
 167              	.LBB37:
  69:src/../h/list.hpp **** 
 168              		.loc 2 69 64
 169 00cc 23309500 		sd	s1,0(a0)
 170 00d0 23340500 		sd	zero,8(a0)
 171              	.LVL14:
 172              	.LBE37:
 173              	.LBE36:
  21:src/../h/list.hpp ****             tail->next = element;
 174              		.loc 2 21 12
 175 00d4 97070000 		ld	a5,.LANCHOR0+8
 175      83B70700 
  21:src/../h/list.hpp ****             tail->next = element;
 176              		.loc 2 21 9
GAS LISTING /tmp/cc7aFkLY.s 			page 6


 177 00dc 63820702 		beqz	a5,.L12
  22:src/../h/list.hpp ****             tail = element;
 178              		.loc 2 22 13
 179 00e0 23B4A700 		sd	a0,8(a5)
  23:src/../h/list.hpp ****         } else head = tail = element;
 180              		.loc 2 23 13
 181 00e4 97070000 		sd	a0,.LANCHOR0+8,a5
 181      23B0A700 
 182              	.LVL15:
 183              	.L11:
 184              	.LBE33:
 185              	.LBE32:
  11:src/scheduler.cpp **** 
 186              		.loc 1 11 1
 187 00ec 83308101 		ld	ra,24(sp)
 188              		.cfi_remember_state
 189              		.cfi_restore 1
 190 00f0 03340101 		ld	s0,16(sp)
 191              		.cfi_restore 8
 192              		.cfi_def_cfa 2, 32
 193 00f4 83348100 		ld	s1,8(sp)
 194              		.cfi_restore 9
 195              	.LVL16:
 196 00f8 13010102 		addi	sp,sp,32
 197              		.cfi_def_cfa_offset 0
 198 00fc 67800000 		jr	ra
 199              	.LVL17:
 200              	.L12:
 201              		.cfi_restore_state
 202              	.LBB39:
 203              	.LBB38:
  24:src/../h/list.hpp ****     }
 204              		.loc 2 24 16
 205 0100 97070000 		lla	a5,.LANCHOR0
 205      93870700 
 206 0108 23B4A700 		sd	a0,8(a5)
 207 010c 23B0A700 		sd	a0,0(a5)
 208              	.LVL18:
 209              	.LBE38:
 210              	.LBE39:
  11:src/scheduler.cpp **** 
 211              		.loc 1 11 1
 212 0110 6FF0DFFD 		j	.L11
 213              		.cfi_endproc
 214              	.LFE16:
 216              		.align	2
 217              		.globl	_ZN9Scheduler17deleteThreadQueueEv
 219              	_ZN9Scheduler17deleteThreadQueueEv:
 220              	.LFB17:
  13:src/scheduler.cpp ****     while(get());
 221              		.loc 1 13 37 is_stmt 1
 222              		.cfi_startproc
 223 0114 130101FF 		addi	sp,sp,-16
 224              		.cfi_def_cfa_offset 16
 225 0118 23341100 		sd	ra,8(sp)
 226 011c 23308100 		sd	s0,0(sp)
 227              		.cfi_offset 1, -8
GAS LISTING /tmp/cc7aFkLY.s 			page 7


 228              		.cfi_offset 8, -16
 229 0120 13040101 		addi	s0,sp,16
 230              		.cfi_def_cfa 8, 0
 231              	.L16:
  14:src/scheduler.cpp **** }
 232              		.loc 1 14 5
  14:src/scheduler.cpp **** }
 233              		.loc 1 14 15
  14:src/scheduler.cpp **** }
 234              		.loc 1 14 14 is_stmt 0
 235 0124 97000000 		call	_ZN9Scheduler3getEv
 235      E7800000 
 236              	.LVL19:
  14:src/scheduler.cpp **** }
 237              		.loc 1 14 15
 238 012c E31C05FE 		bnez	a0,.L16
 239              		.loc 1 15 1
 240 0130 83308100 		ld	ra,8(sp)
 241              		.cfi_restore 1
 242 0134 03340100 		ld	s0,0(sp)
 243              		.cfi_restore 8
 244              		.cfi_def_cfa 2, 16
 245 0138 13010101 		addi	sp,sp,16
 246              		.cfi_def_cfa_offset 0
 247 013c 67800000 		jr	ra
 248              		.cfi_endproc
 249              	.LFE17:
 251              		.align	2
 253              	_GLOBAL__sub_I__ZN9Scheduler16readyThreadQueueE:
 254              	.LFB29:
 255              		.loc 1 15 1 is_stmt 1
 256              		.cfi_startproc
 257 0140 130101FF 		addi	sp,sp,-16
 258              		.cfi_def_cfa_offset 16
 259 0144 23341100 		sd	ra,8(sp)
 260 0148 23308100 		sd	s0,0(sp)
 261              		.cfi_offset 1, -8
 262              		.cfi_offset 8, -16
 263 014c 13040101 		addi	s0,sp,16
 264              		.cfi_def_cfa 8, 0
 265              		.loc 1 15 1 is_stmt 0
 266 0150 B7050100 		li	a1,65536
 267 0154 9385F5FF 		addi	a1,a1,-1
 268 0158 13051000 		li	a0,1
 269 015c 97000000 		call	_Z41__static_initialization_and_destruction_0ii
 269      E7800000 
 270              	.LVL20:
 271 0164 83308100 		ld	ra,8(sp)
 272              		.cfi_restore 1
 273 0168 03340100 		ld	s0,0(sp)
 274              		.cfi_restore 8
 275              		.cfi_def_cfa 2, 16
 276 016c 13010101 		addi	sp,sp,16
 277              		.cfi_def_cfa_offset 0
 278 0170 67800000 		jr	ra
 279              		.cfi_endproc
 280              	.LFE29:
GAS LISTING /tmp/cc7aFkLY.s 			page 8


 282              		.section	.init_array,"aw"
 283              		.align	3
 284 0000 00000000 		.dword	_GLOBAL__sub_I__ZN9Scheduler16readyThreadQueueE
 284      00000000 
 285              		.globl	_ZN9Scheduler16readyThreadQueueE
 286              		.bss
 287              		.align	3
 288              		.set	.LANCHOR0,. + 0
 291              	_ZN9Scheduler16readyThreadQueueE:
 292 0000 00000000 		.zero	16
 292      00000000 
 292      00000000 
 292      00000000 
 293              		.text
 294              	.Letext0:
 295              		.file 3 "src/../h/../lib/hw.h"
 296              		.file 4 "src/../h/MemoryAllocator.hpp"
 297              		.file 5 "src/../h/scheduler.hpp"
GAS LISTING /tmp/cc7aFkLY.s 			page 9


DEFINED SYMBOLS
                            *ABS*:0000000000000000 scheduler.cpp
     /tmp/cc7aFkLY.s:8      .text:0000000000000000 _Z41__static_initialization_and_destruction_0ii
     /tmp/cc7aFkLY.s:12     .text:0000000000000000 .L0 
     /tmp/cc7aFkLY.s:14     .text:0000000000000000 .L0 
     /tmp/cc7aFkLY.s:15     .text:0000000000000004 .L0 
     /tmp/cc7aFkLY.s:17     .text:0000000000000008 .L0 
     /tmp/cc7aFkLY.s:19     .text:000000000000000c .L0 
     /tmp/cc7aFkLY.s:21     .text:000000000000000c .L0 
     /tmp/cc7aFkLY.s:25     .text:0000000000000018 .L0 
     /tmp/cc7aFkLY.s:26     .text:0000000000000018 .L0 
     /tmp/cc7aFkLY.s:27     .text:0000000000000018 .L0 
     /tmp/cc7aFkLY.s:29     .text:000000000000001c .L0 
     /tmp/cc7aFkLY.s:32     .text:0000000000000020 .L0 
     /tmp/cc7aFkLY.s:34     .text:0000000000000020 .L0 
     /tmp/cc7aFkLY.s:43     .text:000000000000002c .L0 
     /tmp/cc7aFkLY.s:51     .text:000000000000003c .L0 
     /tmp/cc7aFkLY.s:52     .text:0000000000000040 .L0 
     /tmp/cc7aFkLY.s:58     .text:0000000000000040 _ZN9Scheduler3getEv
     /tmp/cc7aFkLY.s:61     .text:0000000000000040 .L0 
     /tmp/cc7aFkLY.s:62     .text:0000000000000040 .L0 
     /tmp/cc7aFkLY.s:63     .text:0000000000000044 .L0 
     /tmp/cc7aFkLY.s:67     .text:0000000000000050 .L0 
     /tmp/cc7aFkLY.s:68     .text:0000000000000050 .L0 
     /tmp/cc7aFkLY.s:69     .text:0000000000000050 .L0 
     /tmp/cc7aFkLY.s:71     .text:0000000000000054 .L0 
     /tmp/cc7aFkLY.s:76     .text:0000000000000054 .L0 
     /tmp/cc7aFkLY.s:77     .text:0000000000000054 .L0 
     /tmp/cc7aFkLY.s:79     .text:000000000000005c .L0 
     /tmp/cc7aFkLY.s:82     .text:0000000000000060 .L0 
     /tmp/cc7aFkLY.s:84     .text:0000000000000064 .L0 
     /tmp/cc7aFkLY.s:86     .text:000000000000006c .L0 
     /tmp/cc7aFkLY.s:89     .text:0000000000000070 .L0 
     /tmp/cc7aFkLY.s:94     .text:0000000000000074 .L0 
     /tmp/cc7aFkLY.s:102    .text:000000000000007c .L0 
     /tmp/cc7aFkLY.s:104    .text:0000000000000084 .L0 
     /tmp/cc7aFkLY.s:105    .text:0000000000000084 .L0 
     /tmp/cc7aFkLY.s:107    .text:0000000000000088 .L0 
     /tmp/cc7aFkLY.s:108    .text:0000000000000088 .L0 
     /tmp/cc7aFkLY.s:110    .text:000000000000008c .L0 
     /tmp/cc7aFkLY.s:112    .text:0000000000000090 .L0 
     /tmp/cc7aFkLY.s:116    .text:0000000000000094 .L0 
     /tmp/cc7aFkLY.s:120    .text:0000000000000094 .L0 
     /tmp/cc7aFkLY.s:125    .text:00000000000000a0 .L0 
     /tmp/cc7aFkLY.s:130    .text:00000000000000a4 .L0 
     /tmp/cc7aFkLY.s:131    .text:00000000000000a8 .L0 
     /tmp/cc7aFkLY.s:137    .text:00000000000000a8 _ZN9Scheduler3putEP3TCB
     /tmp/cc7aFkLY.s:140    .text:00000000000000a8 .L0 
     /tmp/cc7aFkLY.s:142    .text:00000000000000a8 .L0 
     /tmp/cc7aFkLY.s:143    .text:00000000000000ac .L0 
     /tmp/cc7aFkLY.s:147    .text:00000000000000b8 .L0 
     /tmp/cc7aFkLY.s:148    .text:00000000000000b8 .L0 
     /tmp/cc7aFkLY.s:149    .text:00000000000000b8 .L0 
     /tmp/cc7aFkLY.s:151    .text:00000000000000bc .L0 
     /tmp/cc7aFkLY.s:159    .text:00000000000000c0 .L0 
     /tmp/cc7aFkLY.s:160    .text:00000000000000c0 .L0 
     /tmp/cc7aFkLY.s:169    .text:00000000000000cc .L0 
GAS LISTING /tmp/cc7aFkLY.s 			page 10


     /tmp/cc7aFkLY.s:175    .text:00000000000000d4 .L0 
     /tmp/cc7aFkLY.s:177    .text:00000000000000dc .L0 
     /tmp/cc7aFkLY.s:179    .text:00000000000000e0 .L0 
     /tmp/cc7aFkLY.s:181    .text:00000000000000e4 .L0 
     /tmp/cc7aFkLY.s:187    .text:00000000000000ec .L0 
     /tmp/cc7aFkLY.s:188    .text:00000000000000f0 .L0 
     /tmp/cc7aFkLY.s:189    .text:00000000000000f0 .L0 
     /tmp/cc7aFkLY.s:191    .text:00000000000000f4 .L0 
     /tmp/cc7aFkLY.s:192    .text:00000000000000f4 .L0 
     /tmp/cc7aFkLY.s:194    .text:00000000000000f8 .L0 
     /tmp/cc7aFkLY.s:197    .text:00000000000000fc .L0 
     /tmp/cc7aFkLY.s:201    .text:0000000000000100 .L0 
     /tmp/cc7aFkLY.s:205    .text:0000000000000100 .L0 
     /tmp/cc7aFkLY.s:212    .text:0000000000000110 .L0 
     /tmp/cc7aFkLY.s:213    .text:0000000000000114 .L0 
     /tmp/cc7aFkLY.s:219    .text:0000000000000114 _ZN9Scheduler17deleteThreadQueueEv
     /tmp/cc7aFkLY.s:222    .text:0000000000000114 .L0 
     /tmp/cc7aFkLY.s:223    .text:0000000000000114 .L0 
     /tmp/cc7aFkLY.s:224    .text:0000000000000118 .L0 
     /tmp/cc7aFkLY.s:227    .text:0000000000000120 .L0 
     /tmp/cc7aFkLY.s:228    .text:0000000000000120 .L0 
     /tmp/cc7aFkLY.s:230    .text:0000000000000124 .L0 
     /tmp/cc7aFkLY.s:233    .text:0000000000000124 .L0 
     /tmp/cc7aFkLY.s:234    .text:0000000000000124 .L0 
     /tmp/cc7aFkLY.s:235    .text:0000000000000124 .L0 
     /tmp/cc7aFkLY.s:238    .text:000000000000012c .L0 
     /tmp/cc7aFkLY.s:240    .text:0000000000000130 .L0 
     /tmp/cc7aFkLY.s:241    .text:0000000000000134 .L0 
     /tmp/cc7aFkLY.s:243    .text:0000000000000138 .L0 
     /tmp/cc7aFkLY.s:244    .text:0000000000000138 .L0 
     /tmp/cc7aFkLY.s:246    .text:000000000000013c .L0 
     /tmp/cc7aFkLY.s:248    .text:0000000000000140 .L0 
     /tmp/cc7aFkLY.s:253    .text:0000000000000140 _GLOBAL__sub_I__ZN9Scheduler16readyThreadQueueE
     /tmp/cc7aFkLY.s:256    .text:0000000000000140 .L0 
     /tmp/cc7aFkLY.s:257    .text:0000000000000140 .L0 
     /tmp/cc7aFkLY.s:258    .text:0000000000000144 .L0 
     /tmp/cc7aFkLY.s:261    .text:000000000000014c .L0 
     /tmp/cc7aFkLY.s:262    .text:000000000000014c .L0 
     /tmp/cc7aFkLY.s:264    .text:0000000000000150 .L0 
     /tmp/cc7aFkLY.s:266    .text:0000000000000150 .L0 
     /tmp/cc7aFkLY.s:272    .text:0000000000000168 .L0 
     /tmp/cc7aFkLY.s:274    .text:000000000000016c .L0 
     /tmp/cc7aFkLY.s:275    .text:000000000000016c .L0 
     /tmp/cc7aFkLY.s:277    .text:0000000000000170 .L0 
     /tmp/cc7aFkLY.s:279    .text:0000000000000174 .L0 
     /tmp/cc7aFkLY.s:291    .bss:0000000000000000 _ZN9Scheduler16readyThreadQueueE
     /tmp/cc7aFkLY.s:288    .bss:0000000000000000 .LANCHOR0
     /tmp/cc7aFkLY.s:298    .text:0000000000000174 .L0 
     /tmp/cc7aFkLY.s:43     .text:000000000000002c .L0 
     /tmp/cc7aFkLY.s:77     .text:0000000000000054 .L0 
     /tmp/cc7aFkLY.s:84     .text:0000000000000064 .L0 
     /tmp/cc7aFkLY.s:120    .text:0000000000000094 .L0 
     /tmp/cc7aFkLY.s:175    .text:00000000000000d4 .L0 
     /tmp/cc7aFkLY.s:181    .text:00000000000000e4 .L0 
     /tmp/cc7aFkLY.s:205    .text:0000000000000100 .L0 
     /tmp/cc7aFkLY.s:31     .text:0000000000000020 .L4
     /tmp/cc7aFkLY.s:23     .text:0000000000000014 .L1
GAS LISTING /tmp/cc7aFkLY.s 			page 11


     /tmp/cc7aFkLY.s:123    .text:00000000000000a0 .L8
     /tmp/cc7aFkLY.s:115    .text:0000000000000094 .L10
     /tmp/cc7aFkLY.s:87     .text:0000000000000070 .L7
     /tmp/cc7aFkLY.s:96     .text:000000000000007c .L5
     /tmp/cc7aFkLY.s:200    .text:0000000000000100 .L12
     /tmp/cc7aFkLY.s:183    .text:00000000000000ec .L11
     /tmp/cc7aFkLY.s:231    .text:0000000000000124 .L16
     /tmp/cc7aFkLY.s:1164   .debug_abbrev:0000000000000000 .Ldebug_abbrev0
     /tmp/cc7aFkLY.s:2393   .debug_str:000000000000059d .LASF74
     /tmp/cc7aFkLY.s:2411   .debug_str:00000000000006f0 .LASF75
     /tmp/cc7aFkLY.s:2253   .debug_str:000000000000004b .LASF76
     /tmp/cc7aFkLY.s:5      .text:0000000000000000 .Ltext0
     /tmp/cc7aFkLY.s:294    .text:0000000000000174 .Letext0
     /tmp/cc7aFkLY.s:2245   .debug_line:0000000000000000 .Ldebug_line0
     /tmp/cc7aFkLY.s:2343   .debug_str:0000000000000390 .LASF0
     /tmp/cc7aFkLY.s:2351   .debug_str:00000000000003dd .LASF1
     /tmp/cc7aFkLY.s:2329   .debug_str:0000000000000344 .LASF2
     /tmp/cc7aFkLY.s:2303   .debug_str:0000000000000246 .LASF4
     /tmp/cc7aFkLY.s:2377   .debug_str:0000000000000529 .LASF3
     /tmp/cc7aFkLY.s:2255   .debug_str:000000000000006e .LASF5
     /tmp/cc7aFkLY.s:2353   .debug_str:00000000000003f0 .LASF6
     /tmp/cc7aFkLY.s:2341   .debug_str:000000000000037d .LASF7
     /tmp/cc7aFkLY.s:2407   .debug_str:00000000000006d3 .LASF8
     /tmp/cc7aFkLY.s:2295   .debug_str:000000000000020d .LASF9
     /tmp/cc7aFkLY.s:2357   .debug_str:000000000000040d .LASF10
     /tmp/cc7aFkLY.s:2397   .debug_str:0000000000000694 .LASF11
     /tmp/cc7aFkLY.s:2257   .debug_str:0000000000000075 .LASF12
     /tmp/cc7aFkLY.s:2249   .debug_str:000000000000001e .LASF13
     /tmp/cc7aFkLY.s:2267   .debug_str:00000000000000d2 .LASF14
     /tmp/cc7aFkLY.s:2371   .debug_str:00000000000004de .LASF15
     /tmp/cc7aFkLY.s:2271   .debug_str:00000000000000ed .LASF16
     /tmp/cc7aFkLY.s:2403   .debug_str:00000000000006c3 .LASF54
     /tmp/cc7aFkLY.s:2415   .debug_str:0000000000000707 .LASF17
     /tmp/cc7aFkLY.s:2387   .debug_str:000000000000057d .LASF18
     /tmp/cc7aFkLY.s:2327   .debug_str:0000000000000334 .LASF23
     /tmp/cc7aFkLY.s:2381   .debug_str:0000000000000542 .LASF19
     /tmp/cc7aFkLY.s:2385   .debug_str:000000000000055c .LASF21
     /tmp/cc7aFkLY.s:2359   .debug_str:000000000000041c .LASF20
     /tmp/cc7aFkLY.s:2293   .debug_str:00000000000001ec .LASF22
     /tmp/cc7aFkLY.s:2369   .debug_str:00000000000004ce .LASF34
     /tmp/cc7aFkLY.s:2325   .debug_str:000000000000030c .LASF36
     /tmp/cc7aFkLY.s:2279   .debug_str:0000000000000154 .LASF24
     /tmp/cc7aFkLY.s:2283   .debug_str:000000000000018a .LASF25
     /tmp/cc7aFkLY.s:2365   .debug_str:000000000000047b .LASF27
     /tmp/cc7aFkLY.s:2259   .debug_str:0000000000000085 .LASF26
     /tmp/cc7aFkLY.s:2395   .debug_str:0000000000000661 .LASF28
     /tmp/cc7aFkLY.s:2269   .debug_str:00000000000000de .LASF29
     /tmp/cc7aFkLY.s:2363   .debug_str:0000000000000448 .LASF30
     /tmp/cc7aFkLY.s:2297   .debug_str:000000000000021b .LASF31
     /tmp/cc7aFkLY.s:2389   .debug_str:0000000000000582 .LASF32
     /tmp/cc7aFkLY.s:2355   .debug_str:0000000000000403 .LASF33
     /tmp/cc7aFkLY.s:2287   .debug_str:00000000000001b0 .LASF77
     /tmp/cc7aFkLY.s:2317   .debug_str:00000000000002d8 .LASF35
     /tmp/cc7aFkLY.s:2361   .debug_str:0000000000000425 .LASF37
     /tmp/cc7aFkLY.s:2299   .debug_str:000000000000022d .LASF78
     /tmp/cc7aFkLY.s:2265   .debug_str:00000000000000ba .LASF79
     /tmp/cc7aFkLY.s:2323   .debug_str:0000000000000302 .LASF38
GAS LISTING /tmp/cc7aFkLY.s 			page 12


     /tmp/cc7aFkLY.s:2301   .debug_str:0000000000000241 .LASF39
     /tmp/cc7aFkLY.s:2345   .debug_str:000000000000039d .LASF40
     /tmp/cc7aFkLY.s:2305   .debug_str:000000000000024d .LASF46
     /tmp/cc7aFkLY.s:2339   .debug_str:0000000000000373 .LASF80
     /tmp/cc7aFkLY.s:2417   .debug_str:000000000000070c .LASF81
     /tmp/cc7aFkLY.s:2391   .debug_str:0000000000000594 .LASF41
     /tmp/cc7aFkLY.s:2281   .debug_str:000000000000016d .LASF42
     /tmp/cc7aFkLY.s:2333   .debug_str:000000000000035e .LASF43
     /tmp/cc7aFkLY.s:2277   .debug_str:0000000000000138 .LASF44
     /tmp/cc7aFkLY.s:2331   .debug_str:0000000000000352 .LASF45
     /tmp/cc7aFkLY.s:2247   .debug_str:0000000000000000 .LASF47
     /tmp/cc7aFkLY.s:2347   .debug_str:00000000000003b0 .LASF48
     /tmp/cc7aFkLY.s:2251   .debug_str:000000000000002e .LASF49
     /tmp/cc7aFkLY.s:2263   .debug_str:00000000000000b0 .LASF50
     /tmp/cc7aFkLY.s:2315   .debug_str:00000000000002bd .LASF51
     /tmp/cc7aFkLY.s:2319   .debug_str:00000000000002ea .LASF52
     /tmp/cc7aFkLY.s:2313   .debug_str:00000000000002a3 .LASF53
     /tmp/cc7aFkLY.s:2337   .debug_str:000000000000036b .LASF55
     /tmp/cc7aFkLY.s:2401   .debug_str:00000000000006be .LASF56
     /tmp/cc7aFkLY.s:2349   .debug_str:00000000000003bb .LASF57
     /tmp/cc7aFkLY.s:2409   .debug_str:00000000000006e3 .LASF58
     /tmp/cc7aFkLY.s:2289   .debug_str:00000000000001c1 .LASF59
     /tmp/cc7aFkLY.s:2291   .debug_str:00000000000001dc .LASF60
     /tmp/cc7aFkLY.s:2399   .debug_str:00000000000006a3 .LASF61
     /tmp/cc7aFkLY.s:2383   .debug_str:000000000000054c .LASF62
     /tmp/cc7aFkLY.s:2261   .debug_str:0000000000000094 .LASF82
     /tmp/cc7aFkLY.s:2307   .debug_str:0000000000000264 .LASF83
     /tmp/cc7aFkLY.s:2285   .debug_str:0000000000000194 .LASF84
     /tmp/cc7aFkLY.s:2273   .debug_str:0000000000000103 .LASF63
     /tmp/cc7aFkLY.s:2335   .debug_str:0000000000000366 .LASF64
     /tmp/cc7aFkLY.s:2311   .debug_str:0000000000000282 .LASF85
     /tmp/cc7aFkLY.s:2275   .debug_str:0000000000000108 .LASF65
     /tmp/cc7aFkLY.s:254    .text:0000000000000140 .LFB29
     /tmp/cc7aFkLY.s:280    .text:0000000000000174 .LFE29
     /tmp/cc7aFkLY.s:270    .text:0000000000000164 .LVL20
     /tmp/cc7aFkLY.s:2367   .debug_str:00000000000004a4 .LASF66
     /tmp/cc7aFkLY.s:9      .text:0000000000000000 .LFB28
     /tmp/cc7aFkLY.s:53     .text:0000000000000040 .LFE28
     /tmp/cc7aFkLY.s:2321   .debug_str:00000000000002f3 .LASF67
     /tmp/cc7aFkLY.s:2309   .debug_str:0000000000000277 .LASF68
     /tmp/cc7aFkLY.s:38     .text:000000000000002c .LBB23
     /tmp/cc7aFkLY.s:49     .text:000000000000003c .LBE23
     /tmp/cc7aFkLY.s:2087   .debug_loc:0000000000000000 .LLST0
     /tmp/cc7aFkLY.s:2413   .debug_str:0000000000000702 .LASF69
     /tmp/cc7aFkLY.s:2375   .debug_str:0000000000000507 .LASF72
     /tmp/cc7aFkLY.s:2405   .debug_str:00000000000006cb .LASF70
     /tmp/cc7aFkLY.s:2379   .debug_str:000000000000053b .LASF71
     /tmp/cc7aFkLY.s:2373   .debug_str:00000000000004f4 .LASF73
     /tmp/cc7aFkLY.s:220    .text:0000000000000114 .LFB17
     /tmp/cc7aFkLY.s:249    .text:0000000000000140 .LFE17
     /tmp/cc7aFkLY.s:236    .text:000000000000012c .LVL19
     /tmp/cc7aFkLY.s:138    .text:00000000000000a8 .LFB16
     /tmp/cc7aFkLY.s:214    .text:0000000000000114 .LFE16
     /tmp/cc7aFkLY.s:2096   .debug_loc:000000000000002c .LLST5
     /tmp/cc7aFkLY.s:155    .text:00000000000000c0 .LBB32
     /tmp/cc7aFkLY.s:2231   .debug_ranges:0000000000000000 .Ldebug_ranges0
     /tmp/cc7aFkLY.s:2118   .debug_loc:000000000000008b .LLST6
GAS LISTING /tmp/cc7aFkLY.s 			page 13


     /tmp/cc7aFkLY.s:2133   .debug_loc:00000000000000d4 .LLST7
     /tmp/cc7aFkLY.s:157    .text:00000000000000c0 .LBB34
     /tmp/cc7aFkLY.s:165    .text:00000000000000cc .LBE34
     /tmp/cc7aFkLY.s:2148   .debug_loc:000000000000011c .LLST8
     /tmp/cc7aFkLY.s:163    .text:00000000000000cc .LVL13
     /tmp/cc7aFkLY.s:166    .text:00000000000000cc .LBB36
     /tmp/cc7aFkLY.s:173    .text:00000000000000d4 .LBE36
     /tmp/cc7aFkLY.s:2156   .debug_loc:0000000000000140 .LLST9
     /tmp/cc7aFkLY.s:2164   .debug_loc:0000000000000164 .LLST10
     /tmp/cc7aFkLY.s:2171   .debug_loc:0000000000000187 .LLST11
     /tmp/cc7aFkLY.s:59     .text:0000000000000040 .LFB15
     /tmp/cc7aFkLY.s:132    .text:00000000000000a8 .LFE15
     /tmp/cc7aFkLY.s:74     .text:0000000000000054 .LBB26
     /tmp/cc7aFkLY.s:2178   .debug_loc:00000000000001aa .LLST1
     /tmp/cc7aFkLY.s:2193   .debug_loc:00000000000001f2 .LLST2
     /tmp/cc7aFkLY.s:2204   .debug_loc:0000000000000228 .LLST3
     /tmp/cc7aFkLY.s:91     .text:0000000000000074 .LBB28
     /tmp/cc7aFkLY.s:98     .text:000000000000007c .LBE28
     /tmp/cc7aFkLY.s:2211   .debug_loc:000000000000024b .LLST4
     /tmp/cc7aFkLY.s:95     .text:000000000000007c .LVL6
     /tmp/cc7aFkLY.s:37     .text:000000000000002c .LVL1
     /tmp/cc7aFkLY.s:46     .text:000000000000003c .LVL2
     /tmp/cc7aFkLY.s:141    .text:00000000000000a8 .LVL10
     /tmp/cc7aFkLY.s:161    .text:00000000000000c4 .LVL12
     /tmp/cc7aFkLY.s:195    .text:00000000000000f8 .LVL16
     /tmp/cc7aFkLY.s:199    .text:0000000000000100 .LVL17
     /tmp/cc7aFkLY.s:154    .text:00000000000000c0 .LVL11
     /tmp/cc7aFkLY.s:182    .text:00000000000000ec .LVL15
     /tmp/cc7aFkLY.s:208    .text:0000000000000110 .LVL18
     /tmp/cc7aFkLY.s:171    .text:00000000000000d4 .LVL14
     /tmp/cc7aFkLY.s:73     .text:0000000000000054 .LVL3
     /tmp/cc7aFkLY.s:114    .text:0000000000000094 .LVL7
     /tmp/cc7aFkLY.s:126    .text:00000000000000a4 .LVL9
     /tmp/cc7aFkLY.s:80     .text:0000000000000060 .LVL4
     /tmp/cc7aFkLY.s:122    .text:00000000000000a0 .LVL8
     /tmp/cc7aFkLY.s:90     .text:0000000000000074 .LVL5
     /tmp/cc7aFkLY.s:299    .debug_info:0000000000000000 .Ldebug_info0
     /tmp/cc7aFkLY.s:100    .text:000000000000007c .LBE26
     /tmp/cc7aFkLY.s:117    .text:0000000000000094 .LBB31
     /tmp/cc7aFkLY.s:128    .text:00000000000000a4 .LBE31
     /tmp/cc7aFkLY.s:185    .text:00000000000000ec .LBE32
     /tmp/cc7aFkLY.s:202    .text:0000000000000100 .LBB39
     /tmp/cc7aFkLY.s:210    .text:0000000000000110 .LBE39

UNDEFINED SYMBOLS
_ZN15MemoryAllocator8mem_freeEPv
_ZN15MemoryAllocator9mem_allocEm
