GAS LISTING /tmp/ccIupz92.s 			page 1


   1              		.file	"syscall_c.cpp"
   2              		.option pic
   3              		.option norelax
   4              		.text
   5              	.Ltext0:
   6              		.align	2
   7              		.globl	_Z9mem_allocm
   9              	_Z9mem_allocm:
  10              	.LFB54:
  11              		.file 1 "src/syscall_c.cpp"
   1:src/syscall_c.cpp **** #include "../h/syscall_c.hpp"
   2:src/syscall_c.cpp **** #include "../lib/hw.h"
   3:src/syscall_c.cpp **** #include "../h/riscv.hpp"
   4:src/syscall_c.cpp **** 
   5:src/syscall_c.cpp **** void* mem_alloc(size_t size) {
  12              		.loc 1 5 30
  13              		.cfi_startproc
  14              	.LVL0:
  15 0000 130101FE 		addi	sp,sp,-32
  16              		.cfi_def_cfa_offset 32
  17 0004 233C8100 		sd	s0,24(sp)
  18              		.cfi_offset 8, -8
  19 0008 13040102 		addi	s0,sp,32
  20              		.cfi_def_cfa 8, 0
   6:src/syscall_c.cpp **** 
   7:src/syscall_c.cpp ****     __asm__ volatile("mv a1, %0" : : "r"(size));
  21              		.loc 1 7 5
  22              		.loc 1 7 48 is_stmt 0
  23              	#APP
  24              	# 7 "src/syscall_c.cpp" 1
   8              	    Riscv::w_a0(0x01);
  25              		mv a1, a0
  26              	# 0 "" 2
  27              		.loc 1 8 5 is_stmt 1
  28              	.LVL1:
  29              	#NO_APP
  30              	.LBB56:
  31              	.LBB57:
  32              		.file 2 "src/../h/riscv.hpp"
   1:src/../h/riscv.hpp **** #ifndef RISCV_H
   2:src/../h/riscv.hpp **** #define RISCV_H
   3:src/../h/riscv.hpp **** 
   4:src/../h/riscv.hpp **** #include "../lib/hw.h"
   5:src/../h/riscv.hpp **** 
   6:src/../h/riscv.hpp **** class Riscv {
   7:src/../h/riscv.hpp **** public:
   8:src/../h/riscv.hpp ****     static int ERROR;
   9:src/../h/riscv.hpp **** 
  10:src/../h/riscv.hpp ****     // Stavljanje/skidanje registara x3,...,x31 na stek/sa steka
  11:src/../h/riscv.hpp ****     static void pushRegisters();
  12:src/../h/riscv.hpp ****     static void popRegisters();
  13:src/../h/riscv.hpp **** 
  14:src/../h/riscv.hpp ****     // Uzimanje vrednosti sstatus.spp i sstatus.spie bita (nije inline funkcija)
  15:src/../h/riscv.hpp ****     static void popSppSpie();
  16:src/../h/riscv.hpp **** 
  17:src/../h/riscv.hpp ****     // Citanje vrednosti registra scause
  18:src/../h/riscv.hpp ****     static uint64 r_scause();
GAS LISTING /tmp/ccIupz92.s 			page 2


  19:src/../h/riscv.hpp **** 
  20:src/../h/riscv.hpp ****     // Upisivanje u registar scause
  21:src/../h/riscv.hpp ****     static void w_scause(uint64 scause);
  22:src/../h/riscv.hpp **** 
  23:src/../h/riscv.hpp ****     // Citanje registra sepc
  24:src/../h/riscv.hpp ****     static uint64 r_sepc();
  25:src/../h/riscv.hpp **** 
  26:src/../h/riscv.hpp ****     // Upisivanje u registar sepc
  27:src/../h/riscv.hpp ****     static void w_sepc(uint64 sepc);
  28:src/../h/riscv.hpp **** 
  29:src/../h/riscv.hpp ****     // Citanje registra stvec
  30:src/../h/riscv.hpp ****     static uint64 r_stvec();
  31:src/../h/riscv.hpp **** 
  32:src/../h/riscv.hpp ****     // Upisivanje u registar stvec
  33:src/../h/riscv.hpp ****     static void w_stvec(uint64 stvec);
  34:src/../h/riscv.hpp **** 
  35:src/../h/riscv.hpp ****     // Citanje registra stval
  36:src/../h/riscv.hpp ****     static uint64 r_stval();
  37:src/../h/riscv.hpp **** 
  38:src/../h/riscv.hpp ****     // Upisivanje u registar stval
  39:src/../h/riscv.hpp ****     static void w_stval(uint64 stval);
  40:src/../h/riscv.hpp **** 
  41:src/../h/riscv.hpp ****     enum BitMaskSip {
  42:src/../h/riscv.hpp ****         SIP_SSIP = (1 << 1),
  43:src/../h/riscv.hpp ****         SIP_STIP = (1 << 5),
  44:src/../h/riscv.hpp ****         SIP_SEIP = (1 << 9)
  45:src/../h/riscv.hpp ****     };
  46:src/../h/riscv.hpp **** 
  47:src/../h/riscv.hpp ****     // Postavi masku za registar sip
  48:src/../h/riscv.hpp ****     static void ms_sip(uint64 mask);
  49:src/../h/riscv.hpp **** 
  50:src/../h/riscv.hpp ****     // Obrisi masku iz registra sip
  51:src/../h/riscv.hpp ****     static void mc_sip(uint64 mask);
  52:src/../h/riscv.hpp **** 
  53:src/../h/riscv.hpp ****     // Citanje registra sip
  54:src/../h/riscv.hpp ****     static uint64 r_sip();
  55:src/../h/riscv.hpp **** 
  56:src/../h/riscv.hpp ****     // Upisivanje u registar sip
  57:src/../h/riscv.hpp ****     static void w_sip(uint64 sip);
  58:src/../h/riscv.hpp **** 
  59:src/../h/riscv.hpp ****     enum BitMaskSstatus {
  60:src/../h/riscv.hpp ****         SSTATUS_SIE = (1 << 1),
  61:src/../h/riscv.hpp ****         SSTATUS_SPIE = (1 << 5),
  62:src/../h/riscv.hpp ****         SSTATUS_SPP = (1 << 8),
  63:src/../h/riscv.hpp ****     };
  64:src/../h/riscv.hpp **** 
  65:src/../h/riscv.hpp ****     // Postavi masku za registar sstatus
  66:src/../h/riscv.hpp ****     static void ms_sstatus(uint64 mask);
  67:src/../h/riscv.hpp **** 
  68:src/../h/riscv.hpp ****     // Obrisi masku iz registra sstatus
  69:src/../h/riscv.hpp ****     static void mc_sstatus(uint64 mask);
  70:src/../h/riscv.hpp **** 
  71:src/../h/riscv.hpp ****     // Citanje registra sstatus
  72:src/../h/riscv.hpp ****     static uint64 r_sstatus();
  73:src/../h/riscv.hpp **** 
  74:src/../h/riscv.hpp ****     // Upisivanje u registar sstatus
  75:src/../h/riscv.hpp ****     static void w_sstatus(uint64 sstatus);
GAS LISTING /tmp/ccIupz92.s 			page 3


  76:src/../h/riscv.hpp **** 
  77:src/../h/riscv.hpp ****     // Supervizorska prekidna rutina
  78:src/../h/riscv.hpp ****     static void supervisorTrap();
  79:src/../h/riscv.hpp **** 
  80:src/../h/riscv.hpp ****     // Citanje registra a0
  81:src/../h/riscv.hpp ****     static uint64 r_a0();
  82:src/../h/riscv.hpp **** 
  83:src/../h/riscv.hpp ****     // Upisivanje u registar a0
  84:src/../h/riscv.hpp ****     static void w_a0(uint64 value);
  85:src/../h/riscv.hpp **** 
  86:src/../h/riscv.hpp ****     static void exitEmulator();
  87:src/../h/riscv.hpp **** 
  88:src/../h/riscv.hpp **** private:
  89:src/../h/riscv.hpp ****     // Rukovalac prekidnom rutinom
  90:src/../h/riscv.hpp ****     static void handleSupervisorTrap();
  91:src/../h/riscv.hpp **** };
  92:src/../h/riscv.hpp **** 
  93:src/../h/riscv.hpp **** inline uint64 Riscv::r_scause() {
  94:src/../h/riscv.hpp ****     uint64 volatile scause;
  95:src/../h/riscv.hpp ****     __asm__ volatile("csrr %0, scause" : "=r"(scause));
  96:src/../h/riscv.hpp ****     return scause;
  97:src/../h/riscv.hpp **** }
  98:src/../h/riscv.hpp **** 
  99:src/../h/riscv.hpp **** inline void Riscv::w_scause(uint64 scause) {
 100:src/../h/riscv.hpp ****     __asm__ volatile("csrw scause, %0" : : "r"(scause));
 101:src/../h/riscv.hpp **** }
 102:src/../h/riscv.hpp **** 
 103:src/../h/riscv.hpp **** inline uint64 Riscv::r_sepc() {
 104:src/../h/riscv.hpp ****     uint64 volatile sepc;
 105:src/../h/riscv.hpp ****     __asm__ volatile("csrr %0, sepc" : "=r"(sepc));
 106:src/../h/riscv.hpp ****     return sepc;
 107:src/../h/riscv.hpp **** }
 108:src/../h/riscv.hpp **** 
 109:src/../h/riscv.hpp **** inline void Riscv::w_sepc(uint64 sepc) {
 110:src/../h/riscv.hpp ****     __asm__ volatile("csrw sepc, %0" : : "r"(sepc));
 111:src/../h/riscv.hpp **** }
 112:src/../h/riscv.hpp **** 
 113:src/../h/riscv.hpp **** inline uint64 Riscv::r_stvec() {
 114:src/../h/riscv.hpp ****     uint64 volatile stvec;
 115:src/../h/riscv.hpp ****     __asm__ volatile("csrr %0, stvec" : "=r"(stvec));
 116:src/../h/riscv.hpp ****     return stvec;
 117:src/../h/riscv.hpp **** }
 118:src/../h/riscv.hpp **** 
 119:src/../h/riscv.hpp **** inline void Riscv::w_stvec(uint64 stvec) {
 120:src/../h/riscv.hpp ****     __asm__ volatile("csrw stvec, %0" : : "r"(stvec));
 121:src/../h/riscv.hpp **** }
 122:src/../h/riscv.hpp **** 
 123:src/../h/riscv.hpp **** inline uint64 Riscv::r_stval() {
 124:src/../h/riscv.hpp ****     uint64 volatile stval;
 125:src/../h/riscv.hpp ****     __asm__ volatile("csrr %0, stval" : "=r"(stval));
 126:src/../h/riscv.hpp ****     return stval;
 127:src/../h/riscv.hpp **** }
 128:src/../h/riscv.hpp **** 
 129:src/../h/riscv.hpp **** inline void Riscv::w_stval(uint64 stval) {
 130:src/../h/riscv.hpp ****     __asm__ volatile("csrw stval, %0" : : "r"(stval));
 131:src/../h/riscv.hpp **** }
 132:src/../h/riscv.hpp **** 
GAS LISTING /tmp/ccIupz92.s 			page 4


 133:src/../h/riscv.hpp **** inline void Riscv::ms_sip(uint64 mask) {
 134:src/../h/riscv.hpp ****     __asm__ volatile("csrs sip, %0" : : "r"(mask));
 135:src/../h/riscv.hpp **** }
 136:src/../h/riscv.hpp **** 
 137:src/../h/riscv.hpp **** inline void Riscv::mc_sip(uint64 mask) {
 138:src/../h/riscv.hpp ****     __asm__ volatile("csrc sip, %0" : : "r"(mask));
 139:src/../h/riscv.hpp **** }
 140:src/../h/riscv.hpp **** 
 141:src/../h/riscv.hpp **** inline uint64 Riscv::r_sip() {
 142:src/../h/riscv.hpp ****     uint64 volatile sip;
 143:src/../h/riscv.hpp ****     __asm__ volatile("csrr %0, sip" : "=r"(sip));
 144:src/../h/riscv.hpp ****     return sip;
 145:src/../h/riscv.hpp **** }
 146:src/../h/riscv.hpp **** 
 147:src/../h/riscv.hpp **** inline void Riscv::w_sip(uint64 sip) {
 148:src/../h/riscv.hpp ****     __asm__ volatile("csrc sip, %0" : : "r"(sip));
 149:src/../h/riscv.hpp **** }
 150:src/../h/riscv.hpp **** 
 151:src/../h/riscv.hpp **** inline void Riscv::ms_sstatus(uint64 mask) {
 152:src/../h/riscv.hpp ****     __asm__ volatile("csrs sstatus, %0" : : "r"(mask));
 153:src/../h/riscv.hpp **** }
 154:src/../h/riscv.hpp **** 
 155:src/../h/riscv.hpp **** inline void Riscv::mc_sstatus(uint64 mask) {
 156:src/../h/riscv.hpp ****     __asm__ volatile("csrc sstatus, %0" : : "r"(mask));
 157:src/../h/riscv.hpp **** }
 158:src/../h/riscv.hpp **** 
 159:src/../h/riscv.hpp **** inline uint64 Riscv::r_sstatus() {
 160:src/../h/riscv.hpp ****     uint64 volatile sstatus;
 161:src/../h/riscv.hpp ****     __asm__ volatile("csrr %0, sstatus" : "=r"(sstatus));
 162:src/../h/riscv.hpp ****     return sstatus;
 163:src/../h/riscv.hpp **** }
 164:src/../h/riscv.hpp **** 
 165:src/../h/riscv.hpp **** inline void Riscv::w_sstatus(uint64 sstatus) {
 166:src/../h/riscv.hpp ****     __asm__ volatile("csrc sstatus, %0" : : "r"(sstatus));
 167:src/../h/riscv.hpp **** }
 168:src/../h/riscv.hpp **** 
 169:src/../h/riscv.hpp **** inline uint64 Riscv::r_a0() {
 170:src/../h/riscv.hpp ****     uint64 volatile a0;
 171:src/../h/riscv.hpp ****     __asm__ volatile("mv %0, a0" : "=r"(a0));
 172:src/../h/riscv.hpp ****     return a0;
 173:src/../h/riscv.hpp **** }
 174:src/../h/riscv.hpp **** 
 175:src/../h/riscv.hpp **** inline void Riscv::w_a0(uint64 value) {
 176:src/../h/riscv.hpp ****     __asm__ volatile("mv a0, %0" : : "r"(value));
  33              		.loc 2 176 5
  34              		.loc 2 176 49 is_stmt 0
  35 0010 93071000 		li	a5,1
  36              	#APP
  37              	# 176 "src/../h/riscv.hpp" 1
 177              	}
  38              		mv a0, a5
  39              	# 0 "" 2
  40              	.LVL2:
  41              	#NO_APP
  42              	.LBE57:
  43              	.LBE56:
   9:src/syscall_c.cpp ****     __asm__ volatile("ecall");
GAS LISTING /tmp/ccIupz92.s 			page 5


  44              		.loc 1 9 5 is_stmt 1
  45              		.loc 1 9 30 is_stmt 0
  46              	#APP
  47              	# 9 "src/syscall_c.cpp" 1
  10              	
  11:src/syscall_c.cpp ****     void* ret;
  48              		ecall
  49              	# 0 "" 2
  50              		.loc 1 11 5 is_stmt 1
  12:src/syscall_c.cpp ****     ret = (void*) Riscv::r_a0();
  51              		.loc 1 12 5
  52              	#NO_APP
  53              	.LBB58:
  54              	.LBB59:
 170:src/../h/riscv.hpp ****     __asm__ volatile("mv %0, a0" : "=r"(a0));
  55              		.loc 2 170 5
 171:src/../h/riscv.hpp ****     return a0;
  56              		.loc 2 171 5
 171:src/../h/riscv.hpp ****     return a0;
  57              		.loc 2 171 45 is_stmt 0
  58              	#APP
  59              	# 171 "src/../h/riscv.hpp" 1
  60              		mv a5, a0
  61              	# 0 "" 2
  62              	#NO_APP
  63 0020 2334F4FE 		sd	a5,-24(s0)
 172:src/../h/riscv.hpp **** }
  64              		.loc 2 172 5 is_stmt 1
 172:src/../h/riscv.hpp **** }
  65              		.loc 2 172 12 is_stmt 0
  66 0024 033584FE 		ld	a0,-24(s0)
  67              	.LVL3:
  68              	.LBE59:
  69              	.LBE58:
  13:src/syscall_c.cpp ****     return ret;
  70              		.loc 1 13 5 is_stmt 1
  14:src/syscall_c.cpp **** }
  71              		.loc 1 14 1 is_stmt 0
  72 0028 03348101 		ld	s0,24(sp)
  73              		.cfi_restore 8
  74              		.cfi_def_cfa 2, 32
  75 002c 13010102 		addi	sp,sp,32
  76              		.cfi_def_cfa_offset 0
  77 0030 67800000 		jr	ra
  78              		.cfi_endproc
  79              	.LFE54:
  81              		.align	2
  82              		.globl	_Z8mem_freePv
  84              	_Z8mem_freePv:
  85              	.LFB55:
  15:src/syscall_c.cpp **** 
  16:src/syscall_c.cpp **** int mem_free(void* ptr) {
  86              		.loc 1 16 25 is_stmt 1
  87              		.cfi_startproc
  88              	.LVL4:
  89 0034 130101FE 		addi	sp,sp,-32
  90              		.cfi_def_cfa_offset 32
GAS LISTING /tmp/ccIupz92.s 			page 6


  91 0038 233C8100 		sd	s0,24(sp)
  92              		.cfi_offset 8, -8
  93 003c 13040102 		addi	s0,sp,32
  94              		.cfi_def_cfa 8, 0
  17:src/syscall_c.cpp ****     __asm__ volatile("mv a1, %0" : : "r"(ptr));
  95              		.loc 1 17 5
  96              		.loc 1 17 47 is_stmt 0
  97              	#APP
  98              	# 17 "src/syscall_c.cpp" 1
  18              	    Riscv::w_a0(0x02);
  99              		mv a1, a0
 100              	# 0 "" 2
 101              		.loc 1 18 5 is_stmt 1
 102              	.LVL5:
 103              	#NO_APP
 104              	.LBB60:
 105              	.LBB61:
 176:src/../h/riscv.hpp **** }
 106              		.loc 2 176 5
 176:src/../h/riscv.hpp **** }
 107              		.loc 2 176 49 is_stmt 0
 108 0044 93072000 		li	a5,2
 109              	#APP
 110              	# 176 "src/../h/riscv.hpp" 1
 111              		mv a0, a5
 112              	# 0 "" 2
 113              	.LVL6:
 114              	#NO_APP
 115              	.LBE61:
 116              	.LBE60:
  19:src/syscall_c.cpp ****     __asm__ volatile("ecall");
 117              		.loc 1 19 5 is_stmt 1
 118              		.loc 1 19 30 is_stmt 0
 119              	#APP
 120              	# 19 "src/syscall_c.cpp" 1
  20              	
  21:src/syscall_c.cpp ****     int ret = (int) Riscv::r_a0();
 121              		ecall
 122              	# 0 "" 2
 123              		.loc 1 21 5 is_stmt 1
 124              	#NO_APP
 125              	.LBB62:
 126              	.LBB63:
 170:src/../h/riscv.hpp ****     __asm__ volatile("mv %0, a0" : "=r"(a0));
 127              		.loc 2 170 5
 171:src/../h/riscv.hpp ****     return a0;
 128              		.loc 2 171 5
 171:src/../h/riscv.hpp ****     return a0;
 129              		.loc 2 171 45 is_stmt 0
 130              	#APP
 131              	# 171 "src/../h/riscv.hpp" 1
 132              		mv a5, a0
 133              	# 0 "" 2
 134              	#NO_APP
 135 0054 2334F4FE 		sd	a5,-24(s0)
 172:src/../h/riscv.hpp **** }
 136              		.loc 2 172 5 is_stmt 1
GAS LISTING /tmp/ccIupz92.s 			page 7


 172:src/../h/riscv.hpp **** }
 137              		.loc 2 172 12 is_stmt 0
 138 0058 033584FE 		ld	a0,-24(s0)
 139              	.LVL7:
 140              	.LBE63:
 141              	.LBE62:
  22:src/syscall_c.cpp ****     return ret;
 142              		.loc 1 22 5 is_stmt 1
  23:src/syscall_c.cpp **** }
 143              		.loc 1 23 1 is_stmt 0
 144 005c 1B050500 		sext.w	a0,a0
 145 0060 03348101 		ld	s0,24(sp)
 146              		.cfi_restore 8
 147              		.cfi_def_cfa 2, 32
 148 0064 13010102 		addi	sp,sp,32
 149              		.cfi_def_cfa_offset 0
 150 0068 67800000 		jr	ra
 151              		.cfi_endproc
 152              	.LFE55:
 154              		.align	2
 155              		.globl	_Z13thread_createPP3TCBPFvPvES2_
 157              	_Z13thread_createPP3TCBPFvPvES2_:
 158              	.LFB56:
  24:src/syscall_c.cpp **** 
  25:src/syscall_c.cpp **** int thread_create(thread_t* handle, void (*start_routine)(void*), void* arg) {
 159              		.loc 1 25 78 is_stmt 1
 160              		.cfi_startproc
 161              	.LVL8:
 162 006c 130101FE 		addi	sp,sp,-32
 163              		.cfi_def_cfa_offset 32
 164 0070 233C8100 		sd	s0,24(sp)
 165              		.cfi_offset 8, -8
 166 0074 13040102 		addi	s0,sp,32
 167              		.cfi_def_cfa 8, 0
  26:src/syscall_c.cpp ****     __asm__ volatile("mv a7, %0" : : "r"(arg));
 168              		.loc 1 26 5
 169              		.loc 1 26 47 is_stmt 0
 170              	#APP
 171              	# 26 "src/syscall_c.cpp" 1
  27              	    __asm__ volatile("mv a2, %0" : : "r"(start_routine));
 172              		mv a7, a2
 173              	# 0 "" 2
 174              		.loc 1 27 5 is_stmt 1
 175              		.loc 1 27 57 is_stmt 0
 176              	# 27 "src/syscall_c.cpp" 1
  28              	    __asm__ volatile("mv a1, %0" : : "r"(handle));
 177              		mv a2, a1
 178              	# 0 "" 2
 179              		.loc 1 28 5 is_stmt 1
 180              		.loc 1 28 50 is_stmt 0
 181              	# 28 "src/syscall_c.cpp" 1
  29              	    Riscv::w_a0(0x11);
 182              		mv a1, a0
 183              	# 0 "" 2
 184              		.loc 1 29 5 is_stmt 1
 185              	.LVL9:
 186              	#NO_APP
GAS LISTING /tmp/ccIupz92.s 			page 8


 187              	.LBB64:
 188              	.LBB65:
 176:src/../h/riscv.hpp **** }
 189              		.loc 2 176 5
 176:src/../h/riscv.hpp **** }
 190              		.loc 2 176 49 is_stmt 0
 191 0084 93071001 		li	a5,17
 192              	#APP
 193              	# 176 "src/../h/riscv.hpp" 1
 194              		mv a0, a5
 195              	# 0 "" 2
 196              	.LVL10:
 197              	#NO_APP
 198              	.LBE65:
 199              	.LBE64:
  30:src/syscall_c.cpp **** 
  31:src/syscall_c.cpp ****     __asm__ volatile("ecall");
 200              		.loc 1 31 5 is_stmt 1
 201              		.loc 1 31 30 is_stmt 0
 202              	#APP
 203              	# 31 "src/syscall_c.cpp" 1
  32              	
  33:src/syscall_c.cpp ****     int ret = (int) Riscv::r_a0();
 204              		ecall
 205              	# 0 "" 2
 206              		.loc 1 33 5 is_stmt 1
 207              	#NO_APP
 208              	.LBB66:
 209              	.LBB67:
 170:src/../h/riscv.hpp ****     __asm__ volatile("mv %0, a0" : "=r"(a0));
 210              		.loc 2 170 5
 171:src/../h/riscv.hpp ****     return a0;
 211              		.loc 2 171 5
 171:src/../h/riscv.hpp ****     return a0;
 212              		.loc 2 171 45 is_stmt 0
 213              	#APP
 214              	# 171 "src/../h/riscv.hpp" 1
 215              		mv a5, a0
 216              	# 0 "" 2
 217              	#NO_APP
 218 0094 2334F4FE 		sd	a5,-24(s0)
 172:src/../h/riscv.hpp **** }
 219              		.loc 2 172 5 is_stmt 1
 172:src/../h/riscv.hpp **** }
 220              		.loc 2 172 12 is_stmt 0
 221 0098 033584FE 		ld	a0,-24(s0)
 222              	.LVL11:
 223              	.LBE67:
 224              	.LBE66:
  34:src/syscall_c.cpp ****     return ret;
 225              		.loc 1 34 5 is_stmt 1
  35:src/syscall_c.cpp **** }
 226              		.loc 1 35 1 is_stmt 0
 227 009c 1B050500 		sext.w	a0,a0
 228 00a0 03348101 		ld	s0,24(sp)
 229              		.cfi_restore 8
 230              		.cfi_def_cfa 2, 32
GAS LISTING /tmp/ccIupz92.s 			page 9


 231 00a4 13010102 		addi	sp,sp,32
 232              		.cfi_def_cfa_offset 0
 233 00a8 67800000 		jr	ra
 234              		.cfi_endproc
 235              	.LFE56:
 237              		.align	2
 238              		.globl	_Z11thread_exitv
 240              	_Z11thread_exitv:
 241              	.LFB57:
  36:src/syscall_c.cpp **** 
  37:src/syscall_c.cpp **** int thread_exit() {
 242              		.loc 1 37 19 is_stmt 1
 243              		.cfi_startproc
 244 00ac 130101FE 		addi	sp,sp,-32
 245              		.cfi_def_cfa_offset 32
 246 00b0 233C8100 		sd	s0,24(sp)
 247              		.cfi_offset 8, -8
 248 00b4 13040102 		addi	s0,sp,32
 249              		.cfi_def_cfa 8, 0
  38:src/syscall_c.cpp ****     Riscv::w_a0(0x12);
 250              		.loc 1 38 5
 251              	.LVL12:
 252              	.LBB68:
 253              	.LBB69:
 176:src/../h/riscv.hpp **** }
 254              		.loc 2 176 5
 176:src/../h/riscv.hpp **** }
 255              		.loc 2 176 49 is_stmt 0
 256 00b8 93072001 		li	a5,18
 257              	#APP
 258              	# 176 "src/../h/riscv.hpp" 1
 259              		mv a0, a5
 260              	# 0 "" 2
 261              	.LVL13:
 262              	#NO_APP
 263              	.LBE69:
 264              	.LBE68:
  39:src/syscall_c.cpp ****     __asm__ volatile("ecall");
 265              		.loc 1 39 5 is_stmt 1
 266              		.loc 1 39 30 is_stmt 0
 267              	#APP
 268              	# 39 "src/syscall_c.cpp" 1
  40              	
  41:src/syscall_c.cpp ****     int ret = (int) Riscv::r_a0();
 269              		ecall
 270              	# 0 "" 2
 271              		.loc 1 41 5 is_stmt 1
 272              	#NO_APP
 273              	.LBB70:
 274              	.LBB71:
 170:src/../h/riscv.hpp ****     __asm__ volatile("mv %0, a0" : "=r"(a0));
 275              		.loc 2 170 5
 171:src/../h/riscv.hpp ****     return a0;
 276              		.loc 2 171 5
 171:src/../h/riscv.hpp ****     return a0;
 277              		.loc 2 171 45 is_stmt 0
 278              	#APP
GAS LISTING /tmp/ccIupz92.s 			page 10


 279              	# 171 "src/../h/riscv.hpp" 1
 280              		mv a5, a0
 281              	# 0 "" 2
 282              	#NO_APP
 283 00c8 2334F4FE 		sd	a5,-24(s0)
 172:src/../h/riscv.hpp **** }
 284              		.loc 2 172 5 is_stmt 1
 172:src/../h/riscv.hpp **** }
 285              		.loc 2 172 12 is_stmt 0
 286 00cc 033584FE 		ld	a0,-24(s0)
 287              	.LVL14:
 288              	.LBE71:
 289              	.LBE70:
  42:src/syscall_c.cpp ****     return ret;
 290              		.loc 1 42 5 is_stmt 1
  43:src/syscall_c.cpp **** }
 291              		.loc 1 43 1 is_stmt 0
 292 00d0 1B050500 		sext.w	a0,a0
 293 00d4 03348101 		ld	s0,24(sp)
 294              		.cfi_restore 8
 295              		.cfi_def_cfa 2, 32
 296 00d8 13010102 		addi	sp,sp,32
 297              		.cfi_def_cfa_offset 0
 298 00dc 67800000 		jr	ra
 299              		.cfi_endproc
 300              	.LFE57:
 302              		.align	2
 303              		.globl	_Z15thread_dispatchv
 305              	_Z15thread_dispatchv:
 306              	.LFB58:
  44:src/syscall_c.cpp **** 
  45:src/syscall_c.cpp **** 
  46:src/syscall_c.cpp **** void thread_dispatch() {
 307              		.loc 1 46 24 is_stmt 1
 308              		.cfi_startproc
 309 00e0 130101FF 		addi	sp,sp,-16
 310              		.cfi_def_cfa_offset 16
 311 00e4 23348100 		sd	s0,8(sp)
 312              		.cfi_offset 8, -8
 313 00e8 13040101 		addi	s0,sp,16
 314              		.cfi_def_cfa 8, 0
  47:src/syscall_c.cpp ****     Riscv::w_a0(0x13);
 315              		.loc 1 47 5
 316              	.LVL15:
 317              	.LBB72:
 318              	.LBB73:
 176:src/../h/riscv.hpp **** }
 319              		.loc 2 176 5
 176:src/../h/riscv.hpp **** }
 320              		.loc 2 176 49 is_stmt 0
 321 00ec 93073001 		li	a5,19
 322              	#APP
 323              	# 176 "src/../h/riscv.hpp" 1
 324              		mv a0, a5
 325              	# 0 "" 2
 326              	.LVL16:
 327              	#NO_APP
GAS LISTING /tmp/ccIupz92.s 			page 11


 328              	.LBE73:
 329              	.LBE72:
  48:src/syscall_c.cpp ****     __asm__ volatile("ecall");
 330              		.loc 1 48 5 is_stmt 1
 331              		.loc 1 48 30 is_stmt 0
 332              	#APP
 333              	# 48 "src/syscall_c.cpp" 1
  49              	}
 334              		ecall
 335              	# 0 "" 2
 336              		.loc 1 49 1
 337              	#NO_APP
 338 00f8 03348100 		ld	s0,8(sp)
 339              		.cfi_restore 8
 340              		.cfi_def_cfa 2, 16
 341 00fc 13010101 		addi	sp,sp,16
 342              		.cfi_def_cfa_offset 0
 343 0100 67800000 		jr	ra
 344              		.cfi_endproc
 345              	.LFE58:
 347              		.align	2
 348              		.globl	_Z27thread_create_without_startPP3TCBPFvPvES2_
 350              	_Z27thread_create_without_startPP3TCBPFvPvES2_:
 351              	.LFB59:
  50:src/syscall_c.cpp **** 
  51:src/syscall_c.cpp **** int thread_create_without_start(thread_t* handle, void (*start_routine)(void*), void* arg) {
 352              		.loc 1 51 92 is_stmt 1
 353              		.cfi_startproc
 354              	.LVL17:
 355 0104 130101FE 		addi	sp,sp,-32
 356              		.cfi_def_cfa_offset 32
 357 0108 233C8100 		sd	s0,24(sp)
 358              		.cfi_offset 8, -8
 359 010c 13040102 		addi	s0,sp,32
 360              		.cfi_def_cfa 8, 0
  52:src/syscall_c.cpp ****     __asm__ volatile("mv a7, %0" : : "r"(arg));
 361              		.loc 1 52 5
 362              		.loc 1 52 47 is_stmt 0
 363              	#APP
 364              	# 52 "src/syscall_c.cpp" 1
  53              	    __asm__ volatile("mv a2, %0" : : "r"(start_routine));
 365              		mv a7, a2
 366              	# 0 "" 2
 367              		.loc 1 53 5 is_stmt 1
 368              		.loc 1 53 57 is_stmt 0
 369              	# 53 "src/syscall_c.cpp" 1
  54              	    __asm__ volatile("mv a1, %0" : : "r"(handle));
 370              		mv a2, a1
 371              	# 0 "" 2
 372              		.loc 1 54 5 is_stmt 1
 373              		.loc 1 54 50 is_stmt 0
 374              	# 54 "src/syscall_c.cpp" 1
  55              	    Riscv::w_a0(0x10);
 375              		mv a1, a0
 376              	# 0 "" 2
 377              		.loc 1 55 5 is_stmt 1
 378              	.LVL18:
GAS LISTING /tmp/ccIupz92.s 			page 12


 379              	#NO_APP
 380              	.LBB74:
 381              	.LBB75:
 176:src/../h/riscv.hpp **** }
 382              		.loc 2 176 5
 176:src/../h/riscv.hpp **** }
 383              		.loc 2 176 49 is_stmt 0
 384 011c 93070001 		li	a5,16
 385              	#APP
 386              	# 176 "src/../h/riscv.hpp" 1
 387              		mv a0, a5
 388              	# 0 "" 2
 389              	.LVL19:
 390              	#NO_APP
 391              	.LBE75:
 392              	.LBE74:
  56:src/syscall_c.cpp ****     __asm__ volatile("ecall");
 393              		.loc 1 56 5 is_stmt 1
 394              		.loc 1 56 30 is_stmt 0
 395              	#APP
 396              	# 56 "src/syscall_c.cpp" 1
  57              	
  58:src/syscall_c.cpp ****     int ret = (int) Riscv::r_a0();
 397              		ecall
 398              	# 0 "" 2
 399              		.loc 1 58 5 is_stmt 1
 400              	#NO_APP
 401              	.LBB76:
 402              	.LBB77:
 170:src/../h/riscv.hpp ****     __asm__ volatile("mv %0, a0" : "=r"(a0));
 403              		.loc 2 170 5
 171:src/../h/riscv.hpp ****     return a0;
 404              		.loc 2 171 5
 171:src/../h/riscv.hpp ****     return a0;
 405              		.loc 2 171 45 is_stmt 0
 406              	#APP
 407              	# 171 "src/../h/riscv.hpp" 1
 408              		mv a5, a0
 409              	# 0 "" 2
 410              	#NO_APP
 411 012c 2334F4FE 		sd	a5,-24(s0)
 172:src/../h/riscv.hpp **** }
 412              		.loc 2 172 5 is_stmt 1
 172:src/../h/riscv.hpp **** }
 413              		.loc 2 172 12 is_stmt 0
 414 0130 033584FE 		ld	a0,-24(s0)
 415              	.LVL20:
 416              	.LBE77:
 417              	.LBE76:
  59:src/syscall_c.cpp ****     return ret;
 418              		.loc 1 59 5 is_stmt 1
  60:src/syscall_c.cpp **** 
  61:src/syscall_c.cpp **** }
 419              		.loc 1 61 1 is_stmt 0
 420 0134 1B050500 		sext.w	a0,a0
 421 0138 03348101 		ld	s0,24(sp)
 422              		.cfi_restore 8
GAS LISTING /tmp/ccIupz92.s 			page 13


 423              		.cfi_def_cfa 2, 32
 424 013c 13010102 		addi	sp,sp,32
 425              		.cfi_def_cfa_offset 0
 426 0140 67800000 		jr	ra
 427              		.cfi_endproc
 428              	.LFE59:
 430              		.align	2
 431              		.globl	_Z12thread_startP3TCB
 433              	_Z12thread_startP3TCB:
 434              	.LFB60:
  62:src/syscall_c.cpp **** 
  63:src/syscall_c.cpp **** void thread_start(TCB* tcb) {
 435              		.loc 1 63 29 is_stmt 1
 436              		.cfi_startproc
 437              	.LVL21:
 438 0144 130101FF 		addi	sp,sp,-16
 439              		.cfi_def_cfa_offset 16
 440 0148 23348100 		sd	s0,8(sp)
 441              		.cfi_offset 8, -8
 442 014c 13040101 		addi	s0,sp,16
 443              		.cfi_def_cfa 8, 0
  64:src/syscall_c.cpp ****     __asm__ volatile("mv a1, %0" : : "r"(tcb));
 444              		.loc 1 64 5
 445              		.loc 1 64 47 is_stmt 0
 446              	#APP
 447              	# 64 "src/syscall_c.cpp" 1
  65              	    Riscv::w_a0(0x09);
 448              		mv a1, a0
 449              	# 0 "" 2
 450              		.loc 1 65 5 is_stmt 1
 451              	.LVL22:
 452              	#NO_APP
 453              	.LBB78:
 454              	.LBB79:
 176:src/../h/riscv.hpp **** }
 455              		.loc 2 176 5
 176:src/../h/riscv.hpp **** }
 456              		.loc 2 176 49 is_stmt 0
 457 0154 93079000 		li	a5,9
 458              	#APP
 459              	# 176 "src/../h/riscv.hpp" 1
 460              		mv a0, a5
 461              	# 0 "" 2
 462              	.LVL23:
 463              	#NO_APP
 464              	.LBE79:
 465              	.LBE78:
  66:src/syscall_c.cpp ****     __asm__ volatile("ecall");
 466              		.loc 1 66 5 is_stmt 1
 467              		.loc 1 66 30 is_stmt 0
 468              	#APP
 469              	# 66 "src/syscall_c.cpp" 1
  67              	}
 470              		ecall
 471              	# 0 "" 2
 472              		.loc 1 67 1
 473              	#NO_APP
GAS LISTING /tmp/ccIupz92.s 			page 14


 474 0160 03348100 		ld	s0,8(sp)
 475              		.cfi_restore 8
 476              		.cfi_def_cfa 2, 16
 477 0164 13010101 		addi	sp,sp,16
 478              		.cfi_def_cfa_offset 0
 479 0168 67800000 		jr	ra
 480              		.cfi_endproc
 481              	.LFE60:
 483              		.align	2
 484              		.globl	_Z8sem_openPP11MySemaphorej
 486              	_Z8sem_openPP11MySemaphorej:
 487              	.LFB61:
  68:src/syscall_c.cpp **** 
  69:src/syscall_c.cpp **** int sem_open(sem_t* handle, unsigned init) {
 488              		.loc 1 69 44 is_stmt 1
 489              		.cfi_startproc
 490              	.LVL24:
 491 016c 130101FE 		addi	sp,sp,-32
 492              		.cfi_def_cfa_offset 32
 493 0170 233C8100 		sd	s0,24(sp)
 494              		.cfi_offset 8, -8
 495 0174 13040102 		addi	s0,sp,32
 496              		.cfi_def_cfa 8, 0
  70:src/syscall_c.cpp ****     __asm__ volatile("mv a2, %0" : : "r"(init));
 497              		.loc 1 70 5
 498              		.loc 1 70 48 is_stmt 0
 499              	#APP
 500              	# 70 "src/syscall_c.cpp" 1
  71              	    __asm__ volatile("mv a1, %0" : : "r"(handle));
 501              		mv a2, a1
 502              	# 0 "" 2
 503              		.loc 1 71 5 is_stmt 1
 504              		.loc 1 71 50 is_stmt 0
 505              	# 71 "src/syscall_c.cpp" 1
  72              	    Riscv::w_a0(0x21);
 506              		mv a1, a0
 507              	# 0 "" 2
 508              		.loc 1 72 5 is_stmt 1
 509              	.LVL25:
 510              	#NO_APP
 511              	.LBB80:
 512              	.LBB81:
 176:src/../h/riscv.hpp **** }
 513              		.loc 2 176 5
 176:src/../h/riscv.hpp **** }
 514              		.loc 2 176 49 is_stmt 0
 515 0180 93071002 		li	a5,33
 516              	#APP
 517              	# 176 "src/../h/riscv.hpp" 1
 518              		mv a0, a5
 519              	# 0 "" 2
 520              	.LVL26:
 521              	#NO_APP
 522              	.LBE81:
 523              	.LBE80:
  73:src/syscall_c.cpp ****     __asm__ volatile("ecall");
 524              		.loc 1 73 5 is_stmt 1
GAS LISTING /tmp/ccIupz92.s 			page 15


 525              		.loc 1 73 30 is_stmt 0
 526              	#APP
 527              	# 73 "src/syscall_c.cpp" 1
  74              	
  75:src/syscall_c.cpp ****     int ret = (int) Riscv::r_a0();
 528              		ecall
 529              	# 0 "" 2
 530              		.loc 1 75 5 is_stmt 1
 531              	#NO_APP
 532              	.LBB82:
 533              	.LBB83:
 170:src/../h/riscv.hpp ****     __asm__ volatile("mv %0, a0" : "=r"(a0));
 534              		.loc 2 170 5
 171:src/../h/riscv.hpp ****     return a0;
 535              		.loc 2 171 5
 171:src/../h/riscv.hpp ****     return a0;
 536              		.loc 2 171 45 is_stmt 0
 537              	#APP
 538              	# 171 "src/../h/riscv.hpp" 1
 539              		mv a5, a0
 540              	# 0 "" 2
 541              	#NO_APP
 542 0190 2334F4FE 		sd	a5,-24(s0)
 172:src/../h/riscv.hpp **** }
 543              		.loc 2 172 5 is_stmt 1
 172:src/../h/riscv.hpp **** }
 544              		.loc 2 172 12 is_stmt 0
 545 0194 033584FE 		ld	a0,-24(s0)
 546              	.LVL27:
 547              	.LBE83:
 548              	.LBE82:
  76:src/syscall_c.cpp ****     return ret;
 549              		.loc 1 76 5 is_stmt 1
  77:src/syscall_c.cpp **** }
 550              		.loc 1 77 1 is_stmt 0
 551 0198 1B050500 		sext.w	a0,a0
 552 019c 03348101 		ld	s0,24(sp)
 553              		.cfi_restore 8
 554              		.cfi_def_cfa 2, 32
 555 01a0 13010102 		addi	sp,sp,32
 556              		.cfi_def_cfa_offset 0
 557 01a4 67800000 		jr	ra
 558              		.cfi_endproc
 559              	.LFE61:
 561              		.align	2
 562              		.globl	_Z9sem_closeP11MySemaphore
 564              	_Z9sem_closeP11MySemaphore:
 565              	.LFB62:
  78:src/syscall_c.cpp **** 
  79:src/syscall_c.cpp **** int sem_close(sem_t handle) {
 566              		.loc 1 79 29 is_stmt 1
 567              		.cfi_startproc
 568              	.LVL28:
 569 01a8 130101FE 		addi	sp,sp,-32
 570              		.cfi_def_cfa_offset 32
 571 01ac 233C8100 		sd	s0,24(sp)
 572              		.cfi_offset 8, -8
GAS LISTING /tmp/ccIupz92.s 			page 16


 573 01b0 13040102 		addi	s0,sp,32
 574              		.cfi_def_cfa 8, 0
  80:src/syscall_c.cpp ****     __asm__ volatile("mv a1, %0" : : "r"(handle));
 575              		.loc 1 80 5
 576              		.loc 1 80 50 is_stmt 0
 577              	#APP
 578              	# 80 "src/syscall_c.cpp" 1
  81              	    Riscv::w_a0(0x22);
 579              		mv a1, a0
 580              	# 0 "" 2
 581              		.loc 1 81 5 is_stmt 1
 582              	.LVL29:
 583              	#NO_APP
 584              	.LBB84:
 585              	.LBB85:
 176:src/../h/riscv.hpp **** }
 586              		.loc 2 176 5
 176:src/../h/riscv.hpp **** }
 587              		.loc 2 176 49 is_stmt 0
 588 01b8 93072002 		li	a5,34
 589              	#APP
 590              	# 176 "src/../h/riscv.hpp" 1
 591              		mv a0, a5
 592              	# 0 "" 2
 593              	.LVL30:
 594              	#NO_APP
 595              	.LBE85:
 596              	.LBE84:
  82:src/syscall_c.cpp ****     __asm__ volatile("ecall");
 597              		.loc 1 82 5 is_stmt 1
 598              		.loc 1 82 30 is_stmt 0
 599              	#APP
 600              	# 82 "src/syscall_c.cpp" 1
  83              	
  84:src/syscall_c.cpp ****     int ret = (int) Riscv::r_a0();
 601              		ecall
 602              	# 0 "" 2
 603              		.loc 1 84 5 is_stmt 1
 604              	#NO_APP
 605              	.LBB86:
 606              	.LBB87:
 170:src/../h/riscv.hpp ****     __asm__ volatile("mv %0, a0" : "=r"(a0));
 607              		.loc 2 170 5
 171:src/../h/riscv.hpp ****     return a0;
 608              		.loc 2 171 5
 171:src/../h/riscv.hpp ****     return a0;
 609              		.loc 2 171 45 is_stmt 0
 610              	#APP
 611              	# 171 "src/../h/riscv.hpp" 1
 612              		mv a5, a0
 613              	# 0 "" 2
 614              	#NO_APP
 615 01c8 2334F4FE 		sd	a5,-24(s0)
 172:src/../h/riscv.hpp **** }
 616              		.loc 2 172 5 is_stmt 1
 172:src/../h/riscv.hpp **** }
 617              		.loc 2 172 12 is_stmt 0
GAS LISTING /tmp/ccIupz92.s 			page 17


 618 01cc 033584FE 		ld	a0,-24(s0)
 619              	.LVL31:
 620              	.LBE87:
 621              	.LBE86:
  85:src/syscall_c.cpp ****     return ret;
 622              		.loc 1 85 5 is_stmt 1
  86:src/syscall_c.cpp **** }
 623              		.loc 1 86 1 is_stmt 0
 624 01d0 1B050500 		sext.w	a0,a0
 625 01d4 03348101 		ld	s0,24(sp)
 626              		.cfi_restore 8
 627              		.cfi_def_cfa 2, 32
 628 01d8 13010102 		addi	sp,sp,32
 629              		.cfi_def_cfa_offset 0
 630 01dc 67800000 		jr	ra
 631              		.cfi_endproc
 632              	.LFE62:
 634              		.align	2
 635              		.globl	_Z8sem_waitP11MySemaphore
 637              	_Z8sem_waitP11MySemaphore:
 638              	.LFB63:
  87:src/syscall_c.cpp **** 
  88:src/syscall_c.cpp **** int sem_wait(sem_t id) {
 639              		.loc 1 88 24 is_stmt 1
 640              		.cfi_startproc
 641              	.LVL32:
 642 01e0 130101FE 		addi	sp,sp,-32
 643              		.cfi_def_cfa_offset 32
 644 01e4 233C8100 		sd	s0,24(sp)
 645              		.cfi_offset 8, -8
 646 01e8 13040102 		addi	s0,sp,32
 647              		.cfi_def_cfa 8, 0
  89:src/syscall_c.cpp ****     __asm__ volatile("mv a1, %0" : : "r"(id));
 648              		.loc 1 89 5
 649              		.loc 1 89 46 is_stmt 0
 650              	#APP
 651              	# 89 "src/syscall_c.cpp" 1
  90              	    Riscv::w_a0(0x23);
 652              		mv a1, a0
 653              	# 0 "" 2
 654              		.loc 1 90 5 is_stmt 1
 655              	.LVL33:
 656              	#NO_APP
 657              	.LBB88:
 658              	.LBB89:
 176:src/../h/riscv.hpp **** }
 659              		.loc 2 176 5
 176:src/../h/riscv.hpp **** }
 660              		.loc 2 176 49 is_stmt 0
 661 01f0 93073002 		li	a5,35
 662              	#APP
 663              	# 176 "src/../h/riscv.hpp" 1
 664              		mv a0, a5
 665              	# 0 "" 2
 666              	.LVL34:
 667              	#NO_APP
 668              	.LBE89:
GAS LISTING /tmp/ccIupz92.s 			page 18


 669              	.LBE88:
  91:src/syscall_c.cpp ****     __asm__ volatile("ecall");
 670              		.loc 1 91 5 is_stmt 1
 671              		.loc 1 91 30 is_stmt 0
 672              	#APP
 673              	# 91 "src/syscall_c.cpp" 1
  92              	
  93:src/syscall_c.cpp ****     int ret = (int) Riscv::r_a0();
 674              		ecall
 675              	# 0 "" 2
 676              		.loc 1 93 5 is_stmt 1
 677              	#NO_APP
 678              	.LBB90:
 679              	.LBB91:
 170:src/../h/riscv.hpp ****     __asm__ volatile("mv %0, a0" : "=r"(a0));
 680              		.loc 2 170 5
 171:src/../h/riscv.hpp ****     return a0;
 681              		.loc 2 171 5
 171:src/../h/riscv.hpp ****     return a0;
 682              		.loc 2 171 45 is_stmt 0
 683              	#APP
 684              	# 171 "src/../h/riscv.hpp" 1
 685              		mv a5, a0
 686              	# 0 "" 2
 687              	#NO_APP
 688 0200 2334F4FE 		sd	a5,-24(s0)
 172:src/../h/riscv.hpp **** }
 689              		.loc 2 172 5 is_stmt 1
 172:src/../h/riscv.hpp **** }
 690              		.loc 2 172 12 is_stmt 0
 691 0204 033584FE 		ld	a0,-24(s0)
 692              	.LVL35:
 693              	.LBE91:
 694              	.LBE90:
  94:src/syscall_c.cpp ****     return ret;
 695              		.loc 1 94 5 is_stmt 1
  95:src/syscall_c.cpp **** }
 696              		.loc 1 95 1 is_stmt 0
 697 0208 1B050500 		sext.w	a0,a0
 698 020c 03348101 		ld	s0,24(sp)
 699              		.cfi_restore 8
 700              		.cfi_def_cfa 2, 32
 701 0210 13010102 		addi	sp,sp,32
 702              		.cfi_def_cfa_offset 0
 703 0214 67800000 		jr	ra
 704              		.cfi_endproc
 705              	.LFE63:
 707              		.align	2
 708              		.globl	_Z10sem_signalP11MySemaphore
 710              	_Z10sem_signalP11MySemaphore:
 711              	.LFB64:
  96:src/syscall_c.cpp **** 
  97:src/syscall_c.cpp **** int sem_signal(sem_t id) {
 712              		.loc 1 97 26 is_stmt 1
 713              		.cfi_startproc
 714              	.LVL36:
 715 0218 130101FE 		addi	sp,sp,-32
GAS LISTING /tmp/ccIupz92.s 			page 19


 716              		.cfi_def_cfa_offset 32
 717 021c 233C8100 		sd	s0,24(sp)
 718              		.cfi_offset 8, -8
 719 0220 13040102 		addi	s0,sp,32
 720              		.cfi_def_cfa 8, 0
  98:src/syscall_c.cpp ****     __asm__ volatile("mv a1, %0" : : "r"(id));
 721              		.loc 1 98 5
 722              		.loc 1 98 46 is_stmt 0
 723              	#APP
 724              	# 98 "src/syscall_c.cpp" 1
  99              	    Riscv::w_a0(0x24);
 725              		mv a1, a0
 726              	# 0 "" 2
 727              		.loc 1 99 5 is_stmt 1
 728              	.LVL37:
 729              	#NO_APP
 730              	.LBB92:
 731              	.LBB93:
 176:src/../h/riscv.hpp **** }
 732              		.loc 2 176 5
 176:src/../h/riscv.hpp **** }
 733              		.loc 2 176 49 is_stmt 0
 734 0228 93074002 		li	a5,36
 735              	#APP
 736              	# 176 "src/../h/riscv.hpp" 1
 737              		mv a0, a5
 738              	# 0 "" 2
 739              	.LVL38:
 740              	#NO_APP
 741              	.LBE93:
 742              	.LBE92:
 100:src/syscall_c.cpp ****     __asm__ volatile("ecall");
 743              		.loc 1 100 5 is_stmt 1
 744              		.loc 1 100 30 is_stmt 0
 745              	#APP
 746              	# 100 "src/syscall_c.cpp" 1
 101              	
 102:src/syscall_c.cpp ****     int ret = (int) Riscv::r_a0();
 747              		ecall
 748              	# 0 "" 2
 749              		.loc 1 102 5 is_stmt 1
 750              	#NO_APP
 751              	.LBB94:
 752              	.LBB95:
 170:src/../h/riscv.hpp ****     __asm__ volatile("mv %0, a0" : "=r"(a0));
 753              		.loc 2 170 5
 171:src/../h/riscv.hpp ****     return a0;
 754              		.loc 2 171 5
 171:src/../h/riscv.hpp ****     return a0;
 755              		.loc 2 171 45 is_stmt 0
 756              	#APP
 757              	# 171 "src/../h/riscv.hpp" 1
 758              		mv a5, a0
 759              	# 0 "" 2
 760              	#NO_APP
 761 0238 2334F4FE 		sd	a5,-24(s0)
 172:src/../h/riscv.hpp **** }
GAS LISTING /tmp/ccIupz92.s 			page 20


 762              		.loc 2 172 5 is_stmt 1
 172:src/../h/riscv.hpp **** }
 763              		.loc 2 172 12 is_stmt 0
 764 023c 033584FE 		ld	a0,-24(s0)
 765              	.LVL39:
 766              	.LBE95:
 767              	.LBE94:
 103:src/syscall_c.cpp ****     return ret;
 768              		.loc 1 103 5 is_stmt 1
 104:src/syscall_c.cpp **** }
 769              		.loc 1 104 1 is_stmt 0
 770 0240 1B050500 		sext.w	a0,a0
 771 0244 03348101 		ld	s0,24(sp)
 772              		.cfi_restore 8
 773              		.cfi_def_cfa 2, 32
 774 0248 13010102 		addi	sp,sp,32
 775              		.cfi_def_cfa_offset 0
 776 024c 67800000 		jr	ra
 777              		.cfi_endproc
 778              	.LFE64:
 780              		.align	2
 781              		.globl	_Z13sem_timedwaitP11MySemaphorem
 783              	_Z13sem_timedwaitP11MySemaphorem:
 784              	.LFB65:
 105:src/syscall_c.cpp **** 
 106:src/syscall_c.cpp **** int sem_timedwait(sem_t id, time_t timeout) {
 785              		.loc 1 106 45 is_stmt 1
 786              		.cfi_startproc
 787              	.LVL40:
 788 0250 130101FE 		addi	sp,sp,-32
 789              		.cfi_def_cfa_offset 32
 790 0254 233C8100 		sd	s0,24(sp)
 791              		.cfi_offset 8, -8
 792 0258 13040102 		addi	s0,sp,32
 793              		.cfi_def_cfa 8, 0
 107:src/syscall_c.cpp ****     __asm__ volatile("mv a2, %0" : : "r"(timeout));
 794              		.loc 1 107 5
 795              		.loc 1 107 51 is_stmt 0
 796              	#APP
 797              	# 107 "src/syscall_c.cpp" 1
 108              	    __asm__ volatile("mv a1, %0" : : "r"(id));
 798              		mv a2, a1
 799              	# 0 "" 2
 800              		.loc 1 108 5 is_stmt 1
 801              		.loc 1 108 46 is_stmt 0
 802              	# 108 "src/syscall_c.cpp" 1
 109              	    Riscv::w_a0(0x25);
 803              		mv a1, a0
 804              	# 0 "" 2
 805              		.loc 1 109 5 is_stmt 1
 806              	.LVL41:
 807              	#NO_APP
 808              	.LBB96:
 809              	.LBB97:
 176:src/../h/riscv.hpp **** }
 810              		.loc 2 176 5
 176:src/../h/riscv.hpp **** }
GAS LISTING /tmp/ccIupz92.s 			page 21


 811              		.loc 2 176 49 is_stmt 0
 812 0264 93075002 		li	a5,37
 813              	#APP
 814              	# 176 "src/../h/riscv.hpp" 1
 815              		mv a0, a5
 816              	# 0 "" 2
 817              	.LVL42:
 818              	#NO_APP
 819              	.LBE97:
 820              	.LBE96:
 110:src/syscall_c.cpp ****     __asm__ volatile("ecall");
 821              		.loc 1 110 5 is_stmt 1
 822              		.loc 1 110 30 is_stmt 0
 823              	#APP
 824              	# 110 "src/syscall_c.cpp" 1
 111              	
 112:src/syscall_c.cpp ****     int ret = (int) Riscv::r_a0();
 825              		ecall
 826              	# 0 "" 2
 827              		.loc 1 112 5 is_stmt 1
 828              	#NO_APP
 829              	.LBB98:
 830              	.LBB99:
 170:src/../h/riscv.hpp ****     __asm__ volatile("mv %0, a0" : "=r"(a0));
 831              		.loc 2 170 5
 171:src/../h/riscv.hpp ****     return a0;
 832              		.loc 2 171 5
 171:src/../h/riscv.hpp ****     return a0;
 833              		.loc 2 171 45 is_stmt 0
 834              	#APP
 835              	# 171 "src/../h/riscv.hpp" 1
 836              		mv a5, a0
 837              	# 0 "" 2
 838              	#NO_APP
 839 0274 2334F4FE 		sd	a5,-24(s0)
 172:src/../h/riscv.hpp **** }
 840              		.loc 2 172 5 is_stmt 1
 172:src/../h/riscv.hpp **** }
 841              		.loc 2 172 12 is_stmt 0
 842 0278 033584FE 		ld	a0,-24(s0)
 843              	.LVL43:
 844              	.LBE99:
 845              	.LBE98:
 113:src/syscall_c.cpp ****     return ret;
 846              		.loc 1 113 5 is_stmt 1
 114:src/syscall_c.cpp **** }
 847              		.loc 1 114 1 is_stmt 0
 848 027c 1B050500 		sext.w	a0,a0
 849 0280 03348101 		ld	s0,24(sp)
 850              		.cfi_restore 8
 851              		.cfi_def_cfa 2, 32
 852 0284 13010102 		addi	sp,sp,32
 853              		.cfi_def_cfa_offset 0
 854 0288 67800000 		jr	ra
 855              		.cfi_endproc
 856              	.LFE65:
 858              		.align	2
GAS LISTING /tmp/ccIupz92.s 			page 22


 859              		.globl	_Z11sem_trywaitP11MySemaphore
 861              	_Z11sem_trywaitP11MySemaphore:
 862              	.LFB66:
 115:src/syscall_c.cpp **** 
 116:src/syscall_c.cpp **** int sem_trywait(sem_t id) {
 863              		.loc 1 116 27 is_stmt 1
 864              		.cfi_startproc
 865              	.LVL44:
 866 028c 130101FE 		addi	sp,sp,-32
 867              		.cfi_def_cfa_offset 32
 868 0290 233C8100 		sd	s0,24(sp)
 869              		.cfi_offset 8, -8
 870 0294 13040102 		addi	s0,sp,32
 871              		.cfi_def_cfa 8, 0
 117:src/syscall_c.cpp ****     __asm__ volatile("mv a1, %0" : : "r"(id));
 872              		.loc 1 117 5
 873              		.loc 1 117 46 is_stmt 0
 874              	#APP
 875              	# 117 "src/syscall_c.cpp" 1
 118              	    Riscv::w_a0(0x26);
 876              		mv a1, a0
 877              	# 0 "" 2
 878              		.loc 1 118 5 is_stmt 1
 879              	.LVL45:
 880              	#NO_APP
 881              	.LBB100:
 882              	.LBB101:
 176:src/../h/riscv.hpp **** }
 883              		.loc 2 176 5
 176:src/../h/riscv.hpp **** }
 884              		.loc 2 176 49 is_stmt 0
 885 029c 93076002 		li	a5,38
 886              	#APP
 887              	# 176 "src/../h/riscv.hpp" 1
 888              		mv a0, a5
 889              	# 0 "" 2
 890              	.LVL46:
 891              	#NO_APP
 892              	.LBE101:
 893              	.LBE100:
 119:src/syscall_c.cpp ****     __asm__ volatile("ecall");
 894              		.loc 1 119 5 is_stmt 1
 895              		.loc 1 119 30 is_stmt 0
 896              	#APP
 897              	# 119 "src/syscall_c.cpp" 1
 120              	
 121:src/syscall_c.cpp ****     int ret = (int) Riscv::r_a0();
 898              		ecall
 899              	# 0 "" 2
 900              		.loc 1 121 5 is_stmt 1
 901              	#NO_APP
 902              	.LBB102:
 903              	.LBB103:
 170:src/../h/riscv.hpp ****     __asm__ volatile("mv %0, a0" : "=r"(a0));
 904              		.loc 2 170 5
 171:src/../h/riscv.hpp ****     return a0;
 905              		.loc 2 171 5
GAS LISTING /tmp/ccIupz92.s 			page 23


 171:src/../h/riscv.hpp ****     return a0;
 906              		.loc 2 171 45 is_stmt 0
 907              	#APP
 908              	# 171 "src/../h/riscv.hpp" 1
 909              		mv a5, a0
 910              	# 0 "" 2
 911              	#NO_APP
 912 02ac 2334F4FE 		sd	a5,-24(s0)
 172:src/../h/riscv.hpp **** }
 913              		.loc 2 172 5 is_stmt 1
 172:src/../h/riscv.hpp **** }
 914              		.loc 2 172 12 is_stmt 0
 915 02b0 033584FE 		ld	a0,-24(s0)
 916              	.LVL47:
 917              	.LBE103:
 918              	.LBE102:
 122:src/syscall_c.cpp ****     return ret;
 919              		.loc 1 122 5 is_stmt 1
 123:src/syscall_c.cpp **** }
 920              		.loc 1 123 1 is_stmt 0
 921 02b4 1B050500 		sext.w	a0,a0
 922 02b8 03348101 		ld	s0,24(sp)
 923              		.cfi_restore 8
 924              		.cfi_def_cfa 2, 32
 925 02bc 13010102 		addi	sp,sp,32
 926              		.cfi_def_cfa_offset 0
 927 02c0 67800000 		jr	ra
 928              		.cfi_endproc
 929              	.LFE66:
 931              		.align	2
 932              		.globl	_Z4getcv
 934              	_Z4getcv:
 935              	.LFB67:
 124:src/syscall_c.cpp **** 
 125:src/syscall_c.cpp **** 
 126:src/syscall_c.cpp **** char getc() {
 936              		.loc 1 126 13 is_stmt 1
 937              		.cfi_startproc
 938 02c4 130101FE 		addi	sp,sp,-32
 939              		.cfi_def_cfa_offset 32
 940 02c8 233C8100 		sd	s0,24(sp)
 941              		.cfi_offset 8, -8
 942 02cc 13040102 		addi	s0,sp,32
 943              		.cfi_def_cfa 8, 0
 127:src/syscall_c.cpp ****     Riscv::w_a0(0x41);
 944              		.loc 1 127 5
 945              	.LVL48:
 946              	.LBB104:
 947              	.LBB105:
 176:src/../h/riscv.hpp **** }
 948              		.loc 2 176 5
 176:src/../h/riscv.hpp **** }
 949              		.loc 2 176 49 is_stmt 0
 950 02d0 93071004 		li	a5,65
 951              	#APP
 952              	# 176 "src/../h/riscv.hpp" 1
 953              		mv a0, a5
GAS LISTING /tmp/ccIupz92.s 			page 24


 954              	# 0 "" 2
 955              	.LVL49:
 956              	#NO_APP
 957              	.LBE105:
 958              	.LBE104:
 128:src/syscall_c.cpp ****     __asm__ volatile("ecall");
 959              		.loc 1 128 5 is_stmt 1
 960              		.loc 1 128 30 is_stmt 0
 961              	#APP
 962              	# 128 "src/syscall_c.cpp" 1
 129              	
 130:src/syscall_c.cpp ****     char ret = (char) Riscv::r_a0();
 963              		ecall
 964              	# 0 "" 2
 965              		.loc 1 130 5 is_stmt 1
 966              	#NO_APP
 967              	.LBB106:
 968              	.LBB107:
 170:src/../h/riscv.hpp ****     __asm__ volatile("mv %0, a0" : "=r"(a0));
 969              		.loc 2 170 5
 171:src/../h/riscv.hpp ****     return a0;
 970              		.loc 2 171 5
 171:src/../h/riscv.hpp ****     return a0;
 971              		.loc 2 171 45 is_stmt 0
 972              	#APP
 973              	# 171 "src/../h/riscv.hpp" 1
 974              		mv a5, a0
 975              	# 0 "" 2
 976              	#NO_APP
 977 02e0 2334F4FE 		sd	a5,-24(s0)
 172:src/../h/riscv.hpp **** }
 978              		.loc 2 172 5 is_stmt 1
 172:src/../h/riscv.hpp **** }
 979              		.loc 2 172 12 is_stmt 0
 980 02e4 033584FE 		ld	a0,-24(s0)
 981              	.LVL50:
 982              	.LBE107:
 983              	.LBE106:
 131:src/syscall_c.cpp ****     return ret;
 984              		.loc 1 131 5 is_stmt 1
 132:src/syscall_c.cpp **** }
 985              		.loc 1 132 1 is_stmt 0
 986 02e8 1375F50F 		andi	a0,a0,0xff
 987 02ec 03348101 		ld	s0,24(sp)
 988              		.cfi_restore 8
 989              		.cfi_def_cfa 2, 32
 990 02f0 13010102 		addi	sp,sp,32
 991              		.cfi_def_cfa_offset 0
 992 02f4 67800000 		jr	ra
 993              		.cfi_endproc
 994              	.LFE67:
 996              		.align	2
 997              		.globl	_Z4putcc
 999              	_Z4putcc:
 1000              	.LFB68:
 133:src/syscall_c.cpp **** 
 134:src/syscall_c.cpp **** void putc(char ch) {
GAS LISTING /tmp/ccIupz92.s 			page 25


 1001              		.loc 1 134 20 is_stmt 1
 1002              		.cfi_startproc
 1003              	.LVL51:
 1004 02f8 130101FF 		addi	sp,sp,-16
 1005              		.cfi_def_cfa_offset 16
 1006 02fc 23348100 		sd	s0,8(sp)
 1007              		.cfi_offset 8, -8
 1008 0300 13040101 		addi	s0,sp,16
 1009              		.cfi_def_cfa 8, 0
 135:src/syscall_c.cpp ****     __asm__ volatile("mv a1, %0" : : "r"(ch));
 1010              		.loc 1 135 5
 1011              		.loc 1 135 46 is_stmt 0
 1012              	#APP
 1013              	# 135 "src/syscall_c.cpp" 1
 136              	    Riscv::w_a0(0x42);
 1014              		mv a1, a0
 1015              	# 0 "" 2
 1016              		.loc 1 136 5 is_stmt 1
 1017              	.LVL52:
 1018              	#NO_APP
 1019              	.LBB108:
 1020              	.LBB109:
 176:src/../h/riscv.hpp **** }
 1021              		.loc 2 176 5
 176:src/../h/riscv.hpp **** }
 1022              		.loc 2 176 49 is_stmt 0
 1023 0308 93072004 		li	a5,66
 1024              	#APP
 1025              	# 176 "src/../h/riscv.hpp" 1
 1026              		mv a0, a5
 1027              	# 0 "" 2
 1028              	.LVL53:
 1029              	#NO_APP
 1030              	.LBE109:
 1031              	.LBE108:
 137:src/syscall_c.cpp ****     __asm__ volatile("ecall");
 1032              		.loc 1 137 5 is_stmt 1
 1033              		.loc 1 137 30 is_stmt 0
 1034              	#APP
 1035              	# 137 "src/syscall_c.cpp" 1
 138              	}...
 1036              		ecall
 1037              	# 0 "" 2
 1038              		.loc 1 138 1
 1039              	#NO_APP
 1040 0314 03348100 		ld	s0,8(sp)
 1041              		.cfi_restore 8
 1042              		.cfi_def_cfa 2, 16
 1043 0318 13010101 		addi	sp,sp,16
 1044              		.cfi_def_cfa_offset 0
 1045 031c 67800000 		jr	ra
 1046              		.cfi_endproc
 1047              	.LFE68:
 1049              	.Letext0:
 1050              		.file 3 "src/../h/../lib/hw.h"
 1051              		.file 4 "src/../h/../h/list.hpp"
 1052              		.file 5 "src/../h/tcb.hpp"
GAS LISTING /tmp/ccIupz92.s 			page 26


 1053              		.file 6 "src/../h/../h/mySemaphore.hpp"
 1054              		.file 7 "src/../h/syscall_c.hpp"
GAS LISTING /tmp/ccIupz92.s 			page 27


DEFINED SYMBOLS
                            *ABS*:0000000000000000 syscall_c.cpp
     /tmp/ccIupz92.s:9      .text:0000000000000000 _Z9mem_allocm
     /tmp/ccIupz92.s:13     .text:0000000000000000 .L0 
     /tmp/ccIupz92.s:15     .text:0000000000000000 .L0 
     /tmp/ccIupz92.s:16     .text:0000000000000004 .L0 
     /tmp/ccIupz92.s:18     .text:0000000000000008 .L0 
     /tmp/ccIupz92.s:20     .text:000000000000000c .L0 
     /tmp/ccIupz92.s:22     .text:000000000000000c .L0 
   src/syscall_c.cpp:7      .text:000000000000000c .L0 
     /tmp/ccIupz92.s:33     .text:0000000000000010 .L0 
     /tmp/ccIupz92.s:34     .text:0000000000000010 .L0 
     /tmp/ccIupz92.s:35     .text:0000000000000010 .L0 
     /tmp/ccIupz92.s:45     .text:0000000000000018 .L0 
   src/syscall_c.cpp:9      .text:0000000000000018 .L0 
     /tmp/ccIupz92.s:51     .text:000000000000001c .L0 
     /tmp/ccIupz92.s:55     .text:000000000000001c .L0 
     /tmp/ccIupz92.s:56     .text:000000000000001c .L0 
     /tmp/ccIupz92.s:57     .text:000000000000001c .L0 
  src/../h/riscv.hpp:171    .text:000000000000001c .L0 
     /tmp/ccIupz92.s:65     .text:0000000000000024 .L0 
     /tmp/ccIupz92.s:66     .text:0000000000000024 .L0 
     /tmp/ccIupz92.s:71     .text:0000000000000028 .L0 
     /tmp/ccIupz92.s:72     .text:0000000000000028 .L0 
     /tmp/ccIupz92.s:73     .text:000000000000002c .L0 
     /tmp/ccIupz92.s:74     .text:000000000000002c .L0 
     /tmp/ccIupz92.s:76     .text:0000000000000030 .L0 
     /tmp/ccIupz92.s:78     .text:0000000000000034 .L0 
     /tmp/ccIupz92.s:84     .text:0000000000000034 _Z8mem_freePv
     /tmp/ccIupz92.s:87     .text:0000000000000034 .L0 
     /tmp/ccIupz92.s:89     .text:0000000000000034 .L0 
     /tmp/ccIupz92.s:90     .text:0000000000000038 .L0 
     /tmp/ccIupz92.s:92     .text:000000000000003c .L0 
     /tmp/ccIupz92.s:94     .text:0000000000000040 .L0 
     /tmp/ccIupz92.s:96     .text:0000000000000040 .L0 
   src/syscall_c.cpp:17     .text:0000000000000040 .L0 
     /tmp/ccIupz92.s:106    .text:0000000000000044 .L0 
     /tmp/ccIupz92.s:107    .text:0000000000000044 .L0 
     /tmp/ccIupz92.s:108    .text:0000000000000044 .L0 
     /tmp/ccIupz92.s:118    .text:000000000000004c .L0 
   src/syscall_c.cpp:19     .text:000000000000004c .L0 
     /tmp/ccIupz92.s:127    .text:0000000000000050 .L0 
     /tmp/ccIupz92.s:128    .text:0000000000000050 .L0 
     /tmp/ccIupz92.s:129    .text:0000000000000050 .L0 
  src/../h/riscv.hpp:171    .text:0000000000000050 .L0 
     /tmp/ccIupz92.s:137    .text:0000000000000058 .L0 
     /tmp/ccIupz92.s:138    .text:0000000000000058 .L0 
     /tmp/ccIupz92.s:143    .text:000000000000005c .L0 
     /tmp/ccIupz92.s:144    .text:000000000000005c .L0 
     /tmp/ccIupz92.s:146    .text:0000000000000064 .L0 
     /tmp/ccIupz92.s:147    .text:0000000000000064 .L0 
     /tmp/ccIupz92.s:149    .text:0000000000000068 .L0 
     /tmp/ccIupz92.s:151    .text:000000000000006c .L0 
     /tmp/ccIupz92.s:157    .text:000000000000006c _Z13thread_createPP3TCBPFvPvES2_
     /tmp/ccIupz92.s:160    .text:000000000000006c .L0 
     /tmp/ccIupz92.s:162    .text:000000000000006c .L0 
     /tmp/ccIupz92.s:163    .text:0000000000000070 .L0 
GAS LISTING /tmp/ccIupz92.s 			page 28


     /tmp/ccIupz92.s:165    .text:0000000000000074 .L0 
     /tmp/ccIupz92.s:167    .text:0000000000000078 .L0 
     /tmp/ccIupz92.s:169    .text:0000000000000078 .L0 
   src/syscall_c.cpp:26     .text:0000000000000078 .L0 
     /tmp/ccIupz92.s:175    .text:000000000000007c .L0 
   src/syscall_c.cpp:27     .text:000000000000007c .L0 
     /tmp/ccIupz92.s:180    .text:0000000000000080 .L0 
   src/syscall_c.cpp:28     .text:0000000000000080 .L0 
     /tmp/ccIupz92.s:189    .text:0000000000000084 .L0 
     /tmp/ccIupz92.s:190    .text:0000000000000084 .L0 
     /tmp/ccIupz92.s:191    .text:0000000000000084 .L0 
     /tmp/ccIupz92.s:201    .text:000000000000008c .L0 
   src/syscall_c.cpp:31     .text:000000000000008c .L0 
     /tmp/ccIupz92.s:210    .text:0000000000000090 .L0 
     /tmp/ccIupz92.s:211    .text:0000000000000090 .L0 
     /tmp/ccIupz92.s:212    .text:0000000000000090 .L0 
  src/../h/riscv.hpp:171    .text:0000000000000090 .L0 
     /tmp/ccIupz92.s:220    .text:0000000000000098 .L0 
     /tmp/ccIupz92.s:221    .text:0000000000000098 .L0 
     /tmp/ccIupz92.s:226    .text:000000000000009c .L0 
     /tmp/ccIupz92.s:227    .text:000000000000009c .L0 
     /tmp/ccIupz92.s:229    .text:00000000000000a4 .L0 
     /tmp/ccIupz92.s:230    .text:00000000000000a4 .L0 
     /tmp/ccIupz92.s:232    .text:00000000000000a8 .L0 
     /tmp/ccIupz92.s:234    .text:00000000000000ac .L0 
     /tmp/ccIupz92.s:240    .text:00000000000000ac _Z11thread_exitv
     /tmp/ccIupz92.s:243    .text:00000000000000ac .L0 
     /tmp/ccIupz92.s:244    .text:00000000000000ac .L0 
     /tmp/ccIupz92.s:245    .text:00000000000000b0 .L0 
     /tmp/ccIupz92.s:247    .text:00000000000000b4 .L0 
     /tmp/ccIupz92.s:249    .text:00000000000000b8 .L0 
     /tmp/ccIupz92.s:254    .text:00000000000000b8 .L0 
     /tmp/ccIupz92.s:255    .text:00000000000000b8 .L0 
     /tmp/ccIupz92.s:256    .text:00000000000000b8 .L0 
     /tmp/ccIupz92.s:266    .text:00000000000000c0 .L0 
   src/syscall_c.cpp:39     .text:00000000000000c0 .L0 
     /tmp/ccIupz92.s:275    .text:00000000000000c4 .L0 
     /tmp/ccIupz92.s:276    .text:00000000000000c4 .L0 
     /tmp/ccIupz92.s:277    .text:00000000000000c4 .L0 
  src/../h/riscv.hpp:171    .text:00000000000000c4 .L0 
     /tmp/ccIupz92.s:285    .text:00000000000000cc .L0 
     /tmp/ccIupz92.s:286    .text:00000000000000cc .L0 
     /tmp/ccIupz92.s:291    .text:00000000000000d0 .L0 
     /tmp/ccIupz92.s:292    .text:00000000000000d0 .L0 
     /tmp/ccIupz92.s:294    .text:00000000000000d8 .L0 
     /tmp/ccIupz92.s:295    .text:00000000000000d8 .L0 
     /tmp/ccIupz92.s:297    .text:00000000000000dc .L0 
     /tmp/ccIupz92.s:299    .text:00000000000000e0 .L0 
     /tmp/ccIupz92.s:305    .text:00000000000000e0 _Z15thread_dispatchv
     /tmp/ccIupz92.s:308    .text:00000000000000e0 .L0 
     /tmp/ccIupz92.s:309    .text:00000000000000e0 .L0 
     /tmp/ccIupz92.s:310    .text:00000000000000e4 .L0 
     /tmp/ccIupz92.s:312    .text:00000000000000e8 .L0 
     /tmp/ccIupz92.s:314    .text:00000000000000ec .L0 
     /tmp/ccIupz92.s:319    .text:00000000000000ec .L0 
     /tmp/ccIupz92.s:320    .text:00000000000000ec .L0 
     /tmp/ccIupz92.s:321    .text:00000000000000ec .L0 
GAS LISTING /tmp/ccIupz92.s 			page 29


     /tmp/ccIupz92.s:331    .text:00000000000000f4 .L0 
   src/syscall_c.cpp:48     .text:00000000000000f4 .L0 
     /tmp/ccIupz92.s:338    .text:00000000000000f8 .L0 
     /tmp/ccIupz92.s:339    .text:00000000000000fc .L0 
     /tmp/ccIupz92.s:340    .text:00000000000000fc .L0 
     /tmp/ccIupz92.s:342    .text:0000000000000100 .L0 
     /tmp/ccIupz92.s:344    .text:0000000000000104 .L0 
     /tmp/ccIupz92.s:350    .text:0000000000000104 _Z27thread_create_without_startPP3TCBPFvPvES2_
     /tmp/ccIupz92.s:353    .text:0000000000000104 .L0 
     /tmp/ccIupz92.s:355    .text:0000000000000104 .L0 
     /tmp/ccIupz92.s:356    .text:0000000000000108 .L0 
     /tmp/ccIupz92.s:358    .text:000000000000010c .L0 
     /tmp/ccIupz92.s:360    .text:0000000000000110 .L0 
     /tmp/ccIupz92.s:362    .text:0000000000000110 .L0 
   src/syscall_c.cpp:52     .text:0000000000000110 .L0 
     /tmp/ccIupz92.s:368    .text:0000000000000114 .L0 
   src/syscall_c.cpp:53     .text:0000000000000114 .L0 
     /tmp/ccIupz92.s:373    .text:0000000000000118 .L0 
   src/syscall_c.cpp:54     .text:0000000000000118 .L0 
     /tmp/ccIupz92.s:382    .text:000000000000011c .L0 
     /tmp/ccIupz92.s:383    .text:000000000000011c .L0 
     /tmp/ccIupz92.s:384    .text:000000000000011c .L0 
     /tmp/ccIupz92.s:394    .text:0000000000000124 .L0 
   src/syscall_c.cpp:56     .text:0000000000000124 .L0 
     /tmp/ccIupz92.s:403    .text:0000000000000128 .L0 
     /tmp/ccIupz92.s:404    .text:0000000000000128 .L0 
     /tmp/ccIupz92.s:405    .text:0000000000000128 .L0 
  src/../h/riscv.hpp:171    .text:0000000000000128 .L0 
     /tmp/ccIupz92.s:413    .text:0000000000000130 .L0 
     /tmp/ccIupz92.s:414    .text:0000000000000130 .L0 
     /tmp/ccIupz92.s:419    .text:0000000000000134 .L0 
     /tmp/ccIupz92.s:420    .text:0000000000000134 .L0 
     /tmp/ccIupz92.s:422    .text:000000000000013c .L0 
     /tmp/ccIupz92.s:423    .text:000000000000013c .L0 
     /tmp/ccIupz92.s:425    .text:0000000000000140 .L0 
     /tmp/ccIupz92.s:427    .text:0000000000000144 .L0 
     /tmp/ccIupz92.s:433    .text:0000000000000144 _Z12thread_startP3TCB
     /tmp/ccIupz92.s:436    .text:0000000000000144 .L0 
     /tmp/ccIupz92.s:438    .text:0000000000000144 .L0 
     /tmp/ccIupz92.s:439    .text:0000000000000148 .L0 
     /tmp/ccIupz92.s:441    .text:000000000000014c .L0 
     /tmp/ccIupz92.s:443    .text:0000000000000150 .L0 
     /tmp/ccIupz92.s:445    .text:0000000000000150 .L0 
   src/syscall_c.cpp:64     .text:0000000000000150 .L0 
     /tmp/ccIupz92.s:455    .text:0000000000000154 .L0 
     /tmp/ccIupz92.s:456    .text:0000000000000154 .L0 
     /tmp/ccIupz92.s:457    .text:0000000000000154 .L0 
     /tmp/ccIupz92.s:467    .text:000000000000015c .L0 
   src/syscall_c.cpp:66     .text:000000000000015c .L0 
     /tmp/ccIupz92.s:474    .text:0000000000000160 .L0 
     /tmp/ccIupz92.s:475    .text:0000000000000164 .L0 
     /tmp/ccIupz92.s:476    .text:0000000000000164 .L0 
     /tmp/ccIupz92.s:478    .text:0000000000000168 .L0 
     /tmp/ccIupz92.s:480    .text:000000000000016c .L0 
     /tmp/ccIupz92.s:486    .text:000000000000016c _Z8sem_openPP11MySemaphorej
     /tmp/ccIupz92.s:489    .text:000000000000016c .L0 
     /tmp/ccIupz92.s:491    .text:000000000000016c .L0 
GAS LISTING /tmp/ccIupz92.s 			page 30


     /tmp/ccIupz92.s:492    .text:0000000000000170 .L0 
     /tmp/ccIupz92.s:494    .text:0000000000000174 .L0 
     /tmp/ccIupz92.s:496    .text:0000000000000178 .L0 
     /tmp/ccIupz92.s:498    .text:0000000000000178 .L0 
   src/syscall_c.cpp:70     .text:0000000000000178 .L0 
     /tmp/ccIupz92.s:504    .text:000000000000017c .L0 
   src/syscall_c.cpp:71     .text:000000000000017c .L0 
     /tmp/ccIupz92.s:513    .text:0000000000000180 .L0 
     /tmp/ccIupz92.s:514    .text:0000000000000180 .L0 
     /tmp/ccIupz92.s:515    .text:0000000000000180 .L0 
     /tmp/ccIupz92.s:525    .text:0000000000000188 .L0 
   src/syscall_c.cpp:73     .text:0000000000000188 .L0 
     /tmp/ccIupz92.s:534    .text:000000000000018c .L0 
     /tmp/ccIupz92.s:535    .text:000000000000018c .L0 
     /tmp/ccIupz92.s:536    .text:000000000000018c .L0 
  src/../h/riscv.hpp:171    .text:000000000000018c .L0 
     /tmp/ccIupz92.s:544    .text:0000000000000194 .L0 
     /tmp/ccIupz92.s:545    .text:0000000000000194 .L0 
     /tmp/ccIupz92.s:550    .text:0000000000000198 .L0 
     /tmp/ccIupz92.s:551    .text:0000000000000198 .L0 
     /tmp/ccIupz92.s:553    .text:00000000000001a0 .L0 
     /tmp/ccIupz92.s:554    .text:00000000000001a0 .L0 
     /tmp/ccIupz92.s:556    .text:00000000000001a4 .L0 
     /tmp/ccIupz92.s:558    .text:00000000000001a8 .L0 
     /tmp/ccIupz92.s:564    .text:00000000000001a8 _Z9sem_closeP11MySemaphore
     /tmp/ccIupz92.s:567    .text:00000000000001a8 .L0 
     /tmp/ccIupz92.s:569    .text:00000000000001a8 .L0 
     /tmp/ccIupz92.s:570    .text:00000000000001ac .L0 
     /tmp/ccIupz92.s:572    .text:00000000000001b0 .L0 
     /tmp/ccIupz92.s:574    .text:00000000000001b4 .L0 
     /tmp/ccIupz92.s:576    .text:00000000000001b4 .L0 
   src/syscall_c.cpp:80     .text:00000000000001b4 .L0 
     /tmp/ccIupz92.s:586    .text:00000000000001b8 .L0 
     /tmp/ccIupz92.s:587    .text:00000000000001b8 .L0 
     /tmp/ccIupz92.s:588    .text:00000000000001b8 .L0 
     /tmp/ccIupz92.s:598    .text:00000000000001c0 .L0 
   src/syscall_c.cpp:82     .text:00000000000001c0 .L0 
     /tmp/ccIupz92.s:607    .text:00000000000001c4 .L0 
     /tmp/ccIupz92.s:608    .text:00000000000001c4 .L0 
     /tmp/ccIupz92.s:609    .text:00000000000001c4 .L0 
  src/../h/riscv.hpp:171    .text:00000000000001c4 .L0 
     /tmp/ccIupz92.s:617    .text:00000000000001cc .L0 
     /tmp/ccIupz92.s:618    .text:00000000000001cc .L0 
     /tmp/ccIupz92.s:623    .text:00000000000001d0 .L0 
     /tmp/ccIupz92.s:624    .text:00000000000001d0 .L0 
     /tmp/ccIupz92.s:626    .text:00000000000001d8 .L0 
     /tmp/ccIupz92.s:627    .text:00000000000001d8 .L0 
     /tmp/ccIupz92.s:629    .text:00000000000001dc .L0 
     /tmp/ccIupz92.s:631    .text:00000000000001e0 .L0 
     /tmp/ccIupz92.s:637    .text:00000000000001e0 _Z8sem_waitP11MySemaphore
     /tmp/ccIupz92.s:640    .text:00000000000001e0 .L0 
     /tmp/ccIupz92.s:642    .text:00000000000001e0 .L0 
     /tmp/ccIupz92.s:643    .text:00000000000001e4 .L0 
     /tmp/ccIupz92.s:645    .text:00000000000001e8 .L0 
     /tmp/ccIupz92.s:647    .text:00000000000001ec .L0 
     /tmp/ccIupz92.s:649    .text:00000000000001ec .L0 
   src/syscall_c.cpp:89     .text:00000000000001ec .L0 
GAS LISTING /tmp/ccIupz92.s 			page 31


     /tmp/ccIupz92.s:659    .text:00000000000001f0 .L0 
     /tmp/ccIupz92.s:660    .text:00000000000001f0 .L0 
     /tmp/ccIupz92.s:661    .text:00000000000001f0 .L0 
     /tmp/ccIupz92.s:671    .text:00000000000001f8 .L0 
   src/syscall_c.cpp:91     .text:00000000000001f8 .L0 
     /tmp/ccIupz92.s:680    .text:00000000000001fc .L0 
     /tmp/ccIupz92.s:681    .text:00000000000001fc .L0 
     /tmp/ccIupz92.s:682    .text:00000000000001fc .L0 
  src/../h/riscv.hpp:171    .text:00000000000001fc .L0 
     /tmp/ccIupz92.s:690    .text:0000000000000204 .L0 
     /tmp/ccIupz92.s:691    .text:0000000000000204 .L0 
     /tmp/ccIupz92.s:696    .text:0000000000000208 .L0 
     /tmp/ccIupz92.s:697    .text:0000000000000208 .L0 
     /tmp/ccIupz92.s:699    .text:0000000000000210 .L0 
     /tmp/ccIupz92.s:700    .text:0000000000000210 .L0 
     /tmp/ccIupz92.s:702    .text:0000000000000214 .L0 
     /tmp/ccIupz92.s:704    .text:0000000000000218 .L0 
     /tmp/ccIupz92.s:710    .text:0000000000000218 _Z10sem_signalP11MySemaphore
     /tmp/ccIupz92.s:713    .text:0000000000000218 .L0 
     /tmp/ccIupz92.s:715    .text:0000000000000218 .L0 
     /tmp/ccIupz92.s:716    .text:000000000000021c .L0 
     /tmp/ccIupz92.s:718    .text:0000000000000220 .L0 
     /tmp/ccIupz92.s:720    .text:0000000000000224 .L0 
     /tmp/ccIupz92.s:722    .text:0000000000000224 .L0 
   src/syscall_c.cpp:98     .text:0000000000000224 .L0 
     /tmp/ccIupz92.s:732    .text:0000000000000228 .L0 
     /tmp/ccIupz92.s:733    .text:0000000000000228 .L0 
     /tmp/ccIupz92.s:734    .text:0000000000000228 .L0 
     /tmp/ccIupz92.s:744    .text:0000000000000230 .L0 
   src/syscall_c.cpp:100    .text:0000000000000230 .L0 
     /tmp/ccIupz92.s:753    .text:0000000000000234 .L0 
     /tmp/ccIupz92.s:754    .text:0000000000000234 .L0 
     /tmp/ccIupz92.s:755    .text:0000000000000234 .L0 
  src/../h/riscv.hpp:171    .text:0000000000000234 .L0 
     /tmp/ccIupz92.s:763    .text:000000000000023c .L0 
     /tmp/ccIupz92.s:764    .text:000000000000023c .L0 
     /tmp/ccIupz92.s:769    .text:0000000000000240 .L0 
     /tmp/ccIupz92.s:770    .text:0000000000000240 .L0 
     /tmp/ccIupz92.s:772    .text:0000000000000248 .L0 
     /tmp/ccIupz92.s:773    .text:0000000000000248 .L0 
     /tmp/ccIupz92.s:775    .text:000000000000024c .L0 
     /tmp/ccIupz92.s:777    .text:0000000000000250 .L0 
     /tmp/ccIupz92.s:783    .text:0000000000000250 _Z13sem_timedwaitP11MySemaphorem
     /tmp/ccIupz92.s:786    .text:0000000000000250 .L0 
     /tmp/ccIupz92.s:788    .text:0000000000000250 .L0 
     /tmp/ccIupz92.s:789    .text:0000000000000254 .L0 
     /tmp/ccIupz92.s:791    .text:0000000000000258 .L0 
     /tmp/ccIupz92.s:793    .text:000000000000025c .L0 
     /tmp/ccIupz92.s:795    .text:000000000000025c .L0 
   src/syscall_c.cpp:107    .text:000000000000025c .L0 
     /tmp/ccIupz92.s:801    .text:0000000000000260 .L0 
   src/syscall_c.cpp:108    .text:0000000000000260 .L0 
     /tmp/ccIupz92.s:810    .text:0000000000000264 .L0 
     /tmp/ccIupz92.s:811    .text:0000000000000264 .L0 
     /tmp/ccIupz92.s:812    .text:0000000000000264 .L0 
     /tmp/ccIupz92.s:822    .text:000000000000026c .L0 
   src/syscall_c.cpp:110    .text:000000000000026c .L0 
GAS LISTING /tmp/ccIupz92.s 			page 32


     /tmp/ccIupz92.s:831    .text:0000000000000270 .L0 
     /tmp/ccIupz92.s:832    .text:0000000000000270 .L0 
     /tmp/ccIupz92.s:833    .text:0000000000000270 .L0 
  src/../h/riscv.hpp:171    .text:0000000000000270 .L0 
     /tmp/ccIupz92.s:841    .text:0000000000000278 .L0 
     /tmp/ccIupz92.s:842    .text:0000000000000278 .L0 
     /tmp/ccIupz92.s:847    .text:000000000000027c .L0 
     /tmp/ccIupz92.s:848    .text:000000000000027c .L0 
     /tmp/ccIupz92.s:850    .text:0000000000000284 .L0 
     /tmp/ccIupz92.s:851    .text:0000000000000284 .L0 
     /tmp/ccIupz92.s:853    .text:0000000000000288 .L0 
     /tmp/ccIupz92.s:855    .text:000000000000028c .L0 
     /tmp/ccIupz92.s:861    .text:000000000000028c _Z11sem_trywaitP11MySemaphore
     /tmp/ccIupz92.s:864    .text:000000000000028c .L0 
     /tmp/ccIupz92.s:866    .text:000000000000028c .L0 
     /tmp/ccIupz92.s:867    .text:0000000000000290 .L0 
     /tmp/ccIupz92.s:869    .text:0000000000000294 .L0 
     /tmp/ccIupz92.s:871    .text:0000000000000298 .L0 
     /tmp/ccIupz92.s:873    .text:0000000000000298 .L0 
   src/syscall_c.cpp:117    .text:0000000000000298 .L0 
     /tmp/ccIupz92.s:883    .text:000000000000029c .L0 
     /tmp/ccIupz92.s:884    .text:000000000000029c .L0 
     /tmp/ccIupz92.s:885    .text:000000000000029c .L0 
     /tmp/ccIupz92.s:895    .text:00000000000002a4 .L0 
   src/syscall_c.cpp:119    .text:00000000000002a4 .L0 
     /tmp/ccIupz92.s:904    .text:00000000000002a8 .L0 
     /tmp/ccIupz92.s:905    .text:00000000000002a8 .L0 
     /tmp/ccIupz92.s:906    .text:00000000000002a8 .L0 
  src/../h/riscv.hpp:171    .text:00000000000002a8 .L0 
     /tmp/ccIupz92.s:914    .text:00000000000002b0 .L0 
     /tmp/ccIupz92.s:915    .text:00000000000002b0 .L0 
     /tmp/ccIupz92.s:920    .text:00000000000002b4 .L0 
     /tmp/ccIupz92.s:921    .text:00000000000002b4 .L0 
     /tmp/ccIupz92.s:923    .text:00000000000002bc .L0 
     /tmp/ccIupz92.s:924    .text:00000000000002bc .L0 
     /tmp/ccIupz92.s:926    .text:00000000000002c0 .L0 
     /tmp/ccIupz92.s:928    .text:00000000000002c4 .L0 
     /tmp/ccIupz92.s:934    .text:00000000000002c4 _Z4getcv
     /tmp/ccIupz92.s:937    .text:00000000000002c4 .L0 
     /tmp/ccIupz92.s:938    .text:00000000000002c4 .L0 
     /tmp/ccIupz92.s:939    .text:00000000000002c8 .L0 
     /tmp/ccIupz92.s:941    .text:00000000000002cc .L0 
     /tmp/ccIupz92.s:943    .text:00000000000002d0 .L0 
     /tmp/ccIupz92.s:948    .text:00000000000002d0 .L0 
     /tmp/ccIupz92.s:949    .text:00000000000002d0 .L0 
     /tmp/ccIupz92.s:950    .text:00000000000002d0 .L0 
     /tmp/ccIupz92.s:960    .text:00000000000002d8 .L0 
   src/syscall_c.cpp:128    .text:00000000000002d8 .L0 
     /tmp/ccIupz92.s:969    .text:00000000000002dc .L0 
     /tmp/ccIupz92.s:970    .text:00000000000002dc .L0 
     /tmp/ccIupz92.s:971    .text:00000000000002dc .L0 
  src/../h/riscv.hpp:171    .text:00000000000002dc .L0 
     /tmp/ccIupz92.s:979    .text:00000000000002e4 .L0 
     /tmp/ccIupz92.s:980    .text:00000000000002e4 .L0 
     /tmp/ccIupz92.s:985    .text:00000000000002e8 .L0 
     /tmp/ccIupz92.s:986    .text:00000000000002e8 .L0 
     /tmp/ccIupz92.s:988    .text:00000000000002f0 .L0 
GAS LISTING /tmp/ccIupz92.s 			page 33


     /tmp/ccIupz92.s:989    .text:00000000000002f0 .L0 
     /tmp/ccIupz92.s:991    .text:00000000000002f4 .L0 
     /tmp/ccIupz92.s:993    .text:00000000000002f8 .L0 
     /tmp/ccIupz92.s:999    .text:00000000000002f8 _Z4putcc
     /tmp/ccIupz92.s:1002   .text:00000000000002f8 .L0 
     /tmp/ccIupz92.s:1004   .text:00000000000002f8 .L0 
     /tmp/ccIupz92.s:1005   .text:00000000000002fc .L0 
     /tmp/ccIupz92.s:1007   .text:0000000000000300 .L0 
     /tmp/ccIupz92.s:1009   .text:0000000000000304 .L0 
     /tmp/ccIupz92.s:1011   .text:0000000000000304 .L0 
   src/syscall_c.cpp:135    .text:0000000000000304 .L0 
     /tmp/ccIupz92.s:1021   .text:0000000000000308 .L0 
     /tmp/ccIupz92.s:1022   .text:0000000000000308 .L0 
     /tmp/ccIupz92.s:1023   .text:0000000000000308 .L0 
     /tmp/ccIupz92.s:1033   .text:0000000000000310 .L0 
   src/syscall_c.cpp:137    .text:0000000000000310 .L0 
     /tmp/ccIupz92.s:1040   .text:0000000000000314 .L0 
     /tmp/ccIupz92.s:1041   .text:0000000000000318 .L0 
     /tmp/ccIupz92.s:1042   .text:0000000000000318 .L0 
     /tmp/ccIupz92.s:1044   .text:000000000000031c .L0 
     /tmp/ccIupz92.s:1046   .text:0000000000000320 .L0 
     /tmp/ccIupz92.s:1055   .text:0000000000000320 .L0 
     /tmp/ccIupz92.s:2930   .debug_abbrev:0000000000000000 .Ldebug_abbrev0
     /tmp/ccIupz92.s:4427   .debug_str:00000000000009a3 .LASF191
     /tmp/ccIupz92.s:4285   .debug_str:0000000000000588 .LASF192
     /tmp/ccIupz92.s:4199   .debug_str:00000000000002ef .LASF193
     /tmp/ccIupz92.s:5      .text:0000000000000000 .Ltext0
     /tmp/ccIupz92.s:1049   .text:0000000000000320 .Letext0
     /tmp/ccIupz92.s:4113   .debug_line:0000000000000000 .Ldebug_line0
     /tmp/ccIupz92.s:4231   .debug_str:00000000000003e4 .LASF0
     /tmp/ccIupz92.s:4261   .debug_str:00000000000004ea .LASF1
     /tmp/ccIupz92.s:4369   .debug_str:0000000000000812 .LASF2
     /tmp/ccIupz92.s:4375   .debug_str:0000000000000842 .LASF4
     /tmp/ccIupz92.s:4239   .debug_str:0000000000000418 .LASF3
     /tmp/ccIupz92.s:4131   .debug_str:000000000000009a .LASF5
     /tmp/ccIupz92.s:4337   .debug_str:0000000000000723 .LASF6
     /tmp/ccIupz92.s:4323   .debug_str:00000000000006ad .LASF7
     /tmp/ccIupz92.s:4249   .debug_str:0000000000000476 .LASF8
     /tmp/ccIupz92.s:4207   .debug_str:000000000000033d .LASF9
     /tmp/ccIupz92.s:4213   .debug_str:000000000000036f .LASF10
     /tmp/ccIupz92.s:4159   .debug_str:000000000000017d .LASF11
     /tmp/ccIupz92.s:4203   .debug_str:0000000000000329 .LASF12
     /tmp/ccIupz92.s:4173   .debug_str:000000000000021d .LASF13
     /tmp/ccIupz92.s:4157   .debug_str:000000000000016d .LASF14
     /tmp/ccIupz92.s:4407   .debug_str:0000000000000937 .LASF15
     /tmp/ccIupz92.s:4193   .debug_str:00000000000002a2 .LASF16
     /tmp/ccIupz92.s:4397   .debug_str:00000000000008f1 .LASF17
     /tmp/ccIupz92.s:4475   .debug_str:0000000000000bb8 .LASF64
     /tmp/ccIupz92.s:4307   .debug_str:0000000000000633 .LASF115
     /tmp/ccIupz92.s:4383   .debug_str:0000000000000868 .LASF18
     /tmp/ccIupz92.s:4197   .debug_str:00000000000002d4 .LASF20
     /tmp/ccIupz92.s:4233   .debug_str:00000000000003f1 .LASF19
     /tmp/ccIupz92.s:4489   .debug_str:0000000000000c13 .LASF21
     /tmp/ccIupz92.s:4219   .debug_str:0000000000000396 .LASF22
     /tmp/ccIupz92.s:4227   .debug_str:00000000000003c6 .LASF23
     /tmp/ccIupz92.s:4453   .debug_str:0000000000000b16 .LASF24
     /tmp/ccIupz92.s:4445   .debug_str:0000000000000ad2 .LASF26
GAS LISTING /tmp/ccIupz92.s 			page 34


     /tmp/ccIupz92.s:4365   .debug_str:00000000000007fe .LASF28
     /tmp/ccIupz92.s:4311   .debug_str:000000000000064d .LASF30
     /tmp/ccIupz92.s:4347   .debug_str:000000000000077b .LASF25
     /tmp/ccIupz92.s:4349   .debug_str:0000000000000782 .LASF27
     /tmp/ccIupz92.s:4305   .debug_str:000000000000062c .LASF29
     /tmp/ccIupz92.s:4251   .debug_str:0000000000000489 .LASF31
     /tmp/ccIupz92.s:4493   .debug_str:0000000000000c37 .LASF32
     /tmp/ccIupz92.s:4433   .debug_str:0000000000000a80 .LASF33
     /tmp/ccIupz92.s:4301   .debug_str:000000000000061f .LASF34
     /tmp/ccIupz92.s:4309   .debug_str:0000000000000639 .LASF35
     /tmp/ccIupz92.s:4269   .debug_str:0000000000000529 .LASF36
     /tmp/ccIupz92.s:4353   .debug_str:000000000000079f .LASF37
     /tmp/ccIupz92.s:4511   .debug_str:0000000000000cd1 .LASF38
     /tmp/ccIupz92.s:4237   .debug_str:0000000000000404 .LASF39
     /tmp/ccIupz92.s:4403   .debug_str:000000000000091f .LASF40
     /tmp/ccIupz92.s:4379   .debug_str:000000000000084e .LASF41
     /tmp/ccIupz92.s:4381   .debug_str:0000000000000861 .LASF42
     /tmp/ccIupz92.s:4161   .debug_str:000000000000018c .LASF43
     /tmp/ccIupz92.s:4189   .debug_str:0000000000000282 .LASF44
     /tmp/ccIupz92.s:4223   .debug_str:00000000000003a7 .LASF45
     /tmp/ccIupz92.s:4235   .debug_str:00000000000003fe .LASF46
     /tmp/ccIupz92.s:4181   .debug_str:0000000000000247 .LASF47
     /tmp/ccIupz92.s:4133   .debug_str:00000000000000a1 .LASF48
     /tmp/ccIupz92.s:4373   .debug_str:000000000000082a .LASF49
     /tmp/ccIupz92.s:4367   .debug_str:0000000000000807 .LASF50
     /tmp/ccIupz92.s:4509   .debug_str:0000000000000cb9 .LASF51
     /tmp/ccIupz92.s:4477   .debug_str:0000000000000bbe .LASF52
     /tmp/ccIupz92.s:4499   .debug_str:0000000000000c4b .LASF53
     /tmp/ccIupz92.s:4467   .debug_str:0000000000000b80 .LASF54
     /tmp/ccIupz92.s:4289   .debug_str:00000000000005bb .LASF55
     /tmp/ccIupz92.s:4451   .debug_str:0000000000000b07 .LASF56
     /tmp/ccIupz92.s:4211   .debug_str:0000000000000353 .LASF57
     /tmp/ccIupz92.s:4483   .debug_str:0000000000000bd8 .LASF58
     /tmp/ccIupz92.s:4317   .debug_str:0000000000000688 .LASF59
     /tmp/ccIupz92.s:4241   .debug_str:000000000000042a .LASF60
     /tmp/ccIupz92.s:4405   .debug_str:0000000000000926 .LASF61
     /tmp/ccIupz92.s:4129   .debug_str:000000000000008d .LASF62
     /tmp/ccIupz92.s:4191   .debug_str:0000000000000288 .LASF63
     /tmp/ccIupz92.s:4333   .debug_str:0000000000000702 .LASF124
     /tmp/ccIupz92.s:4245   .debug_str:0000000000000437 .LASF126
     /tmp/ccIupz92.s:4327   .debug_str:00000000000006cd .LASF65
     /tmp/ccIupz92.s:4295   .debug_str:00000000000005ed .LASF66
     /tmp/ccIupz92.s:4399   .debug_str:0000000000000907 .LASF68
     /tmp/ccIupz92.s:4201   .debug_str:0000000000000312 .LASF73
     /tmp/ccIupz92.s:4371   .debug_str:0000000000000820 .LASF156
     /tmp/ccIupz92.s:4361   .debug_str:00000000000007d7 .LASF158
     /tmp/ccIupz92.s:4255   .debug_str:00000000000004b6 .LASF67
     /tmp/ccIupz92.s:4149   .debug_str:000000000000010a .LASF69
     /tmp/ccIupz92.s:4271   .debug_str:0000000000000531 .LASF70
     /tmp/ccIupz92.s:4195   .debug_str:00000000000002b8 .LASF71
     /tmp/ccIupz92.s:4319   .debug_str:0000000000000699 .LASF72
     /tmp/ccIupz92.s:4471   .debug_str:0000000000000b93 .LASF74
     /tmp/ccIupz92.s:4389   .debug_str:00000000000008b6 .LASF75
     /tmp/ccIupz92.s:4247   .debug_str:0000000000000459 .LASF76
     /tmp/ccIupz92.s:4515   .debug_str:0000000000000ce2 .LASF77
     /tmp/ccIupz92.s:4507   .debug_str:0000000000000c9e .LASF78
     /tmp/ccIupz92.s:4355   .debug_str:00000000000007b3 .LASF79
GAS LISTING /tmp/ccIupz92.s 			page 35


     /tmp/ccIupz92.s:4125   .debug_str:000000000000004b .LASF80
     /tmp/ccIupz92.s:4479   .debug_str:0000000000000bc8 .LASF194
     /tmp/ccIupz92.s:4401   .debug_str:000000000000091a .LASF81
     /tmp/ccIupz92.s:4303   .debug_str:0000000000000627 .LASF82
     /tmp/ccIupz92.s:4413   .debug_str:0000000000000953 .LASF195
     /tmp/ccIupz92.s:4431   .debug_str:0000000000000a7b .LASF83
     /tmp/ccIupz92.s:4481   .debug_str:0000000000000bd0 .LASF84
     /tmp/ccIupz92.s:4377   .debug_str:0000000000000849 .LASF85
     /tmp/ccIupz92.s:4441   .debug_str:0000000000000abe .LASF86
     /tmp/ccIupz92.s:4415   .debug_str:000000000000095b .LASF87
     /tmp/ccIupz92.s:4297   .debug_str:00000000000005f2 .LASF88
     /tmp/ccIupz92.s:4143   .debug_str:00000000000000d4 .LASF89
     /tmp/ccIupz92.s:4447   .debug_str:0000000000000ae7 .LASF90
     /tmp/ccIupz92.s:4491   .debug_str:0000000000000c2d .LASF91
     /tmp/ccIupz92.s:4153   .debug_str:0000000000000140 .LASF92
     /tmp/ccIupz92.s:4417   .debug_str:0000000000000966 .LASF93
     /tmp/ccIupz92.s:4169   .debug_str:00000000000001ed .LASF94
     /tmp/ccIupz92.s:4141   .debug_str:00000000000000cc .LASF95
     /tmp/ccIupz92.s:4343   .debug_str:000000000000074f .LASF96
     /tmp/ccIupz92.s:4321   .debug_str:00000000000006a5 .LASF97
     /tmp/ccIupz92.s:4293   .debug_str:00000000000005db .LASF98
     /tmp/ccIupz92.s:4391   .debug_str:00000000000008c1 .LASF99
     /tmp/ccIupz92.s:4283   .debug_str:0000000000000571 .LASF100
     /tmp/ccIupz92.s:4279   .debug_str:000000000000055a .LASF101
     /tmp/ccIupz92.s:4299   .debug_str:0000000000000609 .LASF102
     /tmp/ccIupz92.s:4179   .debug_str:0000000000000240 .LASF103
     /tmp/ccIupz92.s:4487   .debug_str:0000000000000c01 .LASF104
     /tmp/ccIupz92.s:4265   .debug_str:0000000000000503 .LASF105
     /tmp/ccIupz92.s:4457   .debug_str:0000000000000b2d .LASF106
     /tmp/ccIupz92.s:4225   .debug_str:00000000000003b9 .LASF107
     /tmp/ccIupz92.s:4459   .debug_str:0000000000000b46 .LASF108
     /tmp/ccIupz92.s:4315   .debug_str:0000000000000683 .LASF196
     /tmp/ccIupz92.s:4393   .debug_str:00000000000008cc .LASF109
     /tmp/ccIupz92.s:4167   .debug_str:00000000000001be .LASF110
     /tmp/ccIupz92.s:4421   .debug_str:0000000000000976 .LASF111
     /tmp/ccIupz92.s:4423   .debug_str:0000000000000982 .LASF112
     /tmp/ccIupz92.s:4263   .debug_str:00000000000004fd .LASF113
     /tmp/ccIupz92.s:4363   .debug_str:00000000000007ee .LASF114
     /tmp/ccIupz92.s:4425   .debug_str:000000000000099b .LASF116
     /tmp/ccIupz92.s:4429   .debug_str:0000000000000a67 .LASF197
     /tmp/ccIupz92.s:4119   .debug_str:0000000000000023 .LASF117
     /tmp/ccIupz92.s:4277   .debug_str:0000000000000554 .LASF118
     /tmp/ccIupz92.s:4443   .debug_str:0000000000000aca .LASF119
     /tmp/ccIupz92.s:4359   .debug_str:00000000000007cc .LASF120
     /tmp/ccIupz92.s:4205   .debug_str:0000000000000338 .LASF121
     /tmp/ccIupz92.s:4395   .debug_str:00000000000008e8 .LASF122
     /tmp/ccIupz92.s:4339   .debug_str:000000000000072a .LASF123
     /tmp/ccIupz92.s:4147   .debug_str:00000000000000fc .LASF125
     /tmp/ccIupz92.s:4267   .debug_str:0000000000000510 .LASF127
     /tmp/ccIupz92.s:4177   .debug_str:0000000000000232 .LASF198
     /tmp/ccIupz92.s:4127   .debug_str:0000000000000065 .LASF199
     /tmp/ccIupz92.s:4183   .debug_str:0000000000000259 .LASF128
     /tmp/ccIupz92.s:4165   .debug_str:00000000000001ab .LASF129
     /tmp/ccIupz92.s:4385   .debug_str:0000000000000876 .LASF200
     /tmp/ccIupz92.s:4163   .debug_str:000000000000019f .LASF130
     /tmp/ccIupz92.s:4117   .debug_str:000000000000000e .LASF131
     /tmp/ccIupz92.s:4185   .debug_str:0000000000000262 .LASF132
GAS LISTING /tmp/ccIupz92.s 			page 36


     /tmp/ccIupz92.s:4155   .debug_str:0000000000000155 .LASF133
     /tmp/ccIupz92.s:4411   .debug_str:000000000000094c .LASF134
     /tmp/ccIupz92.s:4171   .debug_str:0000000000000203 .LASF135
     /tmp/ccIupz92.s:4331   .debug_str:00000000000006f2 .LASF136
     /tmp/ccIupz92.s:4485   .debug_str:0000000000000bdd .LASF137
     /tmp/ccIupz92.s:4435   .debug_str:0000000000000a94 .LASF138
     /tmp/ccIupz92.s:4259   .debug_str:00000000000004cd .LASF139
     /tmp/ccIupz92.s:4137   .debug_str:00000000000000c1 .LASF140
     /tmp/ccIupz92.s:4151   .debug_str:0000000000000127 .LASF141
     /tmp/ccIupz92.s:4463   .debug_str:0000000000000b6f .LASF142
     /tmp/ccIupz92.s:4329   .debug_str:00000000000006d7 .LASF143
     /tmp/ccIupz92.s:4229   .debug_str:00000000000003de .LASF144
     /tmp/ccIupz92.s:4345   .debug_str:0000000000000762 .LASF145
     /tmp/ccIupz92.s:4123   .debug_str:0000000000000043 .LASF146
     /tmp/ccIupz92.s:4187   .debug_str:0000000000000267 .LASF147
     /tmp/ccIupz92.s:4473   .debug_str:0000000000000bb1 .LASF148
     /tmp/ccIupz92.s:4221   .debug_str:00000000000003a1 .LASF149
     /tmp/ccIupz92.s:4275   .debug_str:000000000000054f .LASF150
     /tmp/ccIupz92.s:4465   .debug_str:0000000000000b77 .LASF151
     /tmp/ccIupz92.s:4209   .debug_str:000000000000034d .LASF152
     /tmp/ccIupz92.s:4439   .debug_str:0000000000000ab9 .LASF153
     /tmp/ccIupz92.s:4409   .debug_str:0000000000000943 .LASF154
     /tmp/ccIupz92.s:1000   .text:00000000000002f8 .LFB68
     /tmp/ccIupz92.s:1047   .text:0000000000000320 .LFE68
     /tmp/ccIupz92.s:1019   .text:0000000000000308 .LBB108
     /tmp/ccIupz92.s:1031   .text:0000000000000310 .LBE108
     /tmp/ccIupz92.s:3832   .debug_loc:0000000000000000 .LLST24
     /tmp/ccIupz92.s:4419   .debug_str:0000000000000971 .LASF155
     /tmp/ccIupz92.s:4495   .debug_str:0000000000000c3f .LASF157
     /tmp/ccIupz92.s:4461   .debug_str:0000000000000b66 .LASF159
     /tmp/ccIupz92.s:935    .text:00000000000002c4 .LFB67
     /tmp/ccIupz92.s:994    .text:00000000000002f8 .LFE67
     /tmp/ccIupz92.s:946    .text:00000000000002d0 .LBB104
     /tmp/ccIupz92.s:958    .text:00000000000002d8 .LBE104
     /tmp/ccIupz92.s:3841   .debug_loc:0000000000000025 .LLST23
     /tmp/ccIupz92.s:967    .text:00000000000002dc .LBB106
     /tmp/ccIupz92.s:983    .text:00000000000002e8 .LBE106
     /tmp/ccIupz92.s:4335   .debug_str:0000000000000717 .LASF160
     /tmp/ccIupz92.s:4505   .debug_str:0000000000000c80 .LASF161
     /tmp/ccIupz92.s:862    .text:000000000000028c .LFB66
     /tmp/ccIupz92.s:929    .text:00000000000002c4 .LFE66
     /tmp/ccIupz92.s:3850   .debug_loc:000000000000004a .LLST21
     /tmp/ccIupz92.s:881    .text:000000000000029c .LBB100
     /tmp/ccIupz92.s:893    .text:00000000000002a4 .LBE100
     /tmp/ccIupz92.s:3864   .debug_loc:0000000000000083 .LLST22
     /tmp/ccIupz92.s:902    .text:00000000000002a8 .LBB102
     /tmp/ccIupz92.s:918    .text:00000000000002b4 .LBE102
     /tmp/ccIupz92.s:4115   .debug_str:0000000000000000 .LASF162
     /tmp/ccIupz92.s:4287   .debug_str:000000000000059a .LASF163
     /tmp/ccIupz92.s:784    .text:0000000000000250 .LFB65
     /tmp/ccIupz92.s:856    .text:000000000000028c .LFE65
     /tmp/ccIupz92.s:3873   .debug_loc:00000000000000a8 .LLST19
     /tmp/ccIupz92.s:4243   .debug_str:000000000000042f .LASF164
     /tmp/ccIupz92.s:808    .text:0000000000000264 .LBB96
     /tmp/ccIupz92.s:820    .text:000000000000026c .LBE96
     /tmp/ccIupz92.s:3887   .debug_loc:00000000000000e1 .LLST20
     /tmp/ccIupz92.s:829    .text:0000000000000270 .LBB98
GAS LISTING /tmp/ccIupz92.s 			page 37


     /tmp/ccIupz92.s:845    .text:000000000000027c .LBE98
     /tmp/ccIupz92.s:4217   .debug_str:000000000000038b .LASF165
     /tmp/ccIupz92.s:4341   .debug_str:0000000000000732 .LASF166
     /tmp/ccIupz92.s:711    .text:0000000000000218 .LFB64
     /tmp/ccIupz92.s:778    .text:0000000000000250 .LFE64
     /tmp/ccIupz92.s:3896   .debug_loc:0000000000000106 .LLST17
     /tmp/ccIupz92.s:730    .text:0000000000000228 .LBB92
     /tmp/ccIupz92.s:742    .text:0000000000000230 .LBE92
     /tmp/ccIupz92.s:3910   .debug_loc:000000000000013f .LLST18
     /tmp/ccIupz92.s:751    .text:0000000000000234 .LBB94
     /tmp/ccIupz92.s:767    .text:0000000000000240 .LBE94
     /tmp/ccIupz92.s:4513   .debug_str:0000000000000cd9 .LASF167
     /tmp/ccIupz92.s:4253   .debug_str:000000000000049c .LASF168
     /tmp/ccIupz92.s:638    .text:00000000000001e0 .LFB63
     /tmp/ccIupz92.s:705    .text:0000000000000218 .LFE63
     /tmp/ccIupz92.s:3919   .debug_loc:0000000000000164 .LLST15
     /tmp/ccIupz92.s:657    .text:00000000000001f0 .LBB88
     /tmp/ccIupz92.s:669    .text:00000000000001f8 .LBE88
     /tmp/ccIupz92.s:3933   .debug_loc:000000000000019d .LLST16
     /tmp/ccIupz92.s:678    .text:00000000000001fc .LBB90
     /tmp/ccIupz92.s:694    .text:0000000000000208 .LBE90
     /tmp/ccIupz92.s:4351   .debug_str:0000000000000795 .LASF169
     /tmp/ccIupz92.s:4121   .debug_str:0000000000000028 .LASF170
     /tmp/ccIupz92.s:565    .text:00000000000001a8 .LFB62
     /tmp/ccIupz92.s:632    .text:00000000000001e0 .LFE62
     /tmp/ccIupz92.s:4497   .debug_str:0000000000000c44 .LASF171
     /tmp/ccIupz92.s:3942   .debug_loc:00000000000001c2 .LLST13
     /tmp/ccIupz92.s:584    .text:00000000000001b8 .LBB84
     /tmp/ccIupz92.s:596    .text:00000000000001c0 .LBE84
     /tmp/ccIupz92.s:3956   .debug_loc:00000000000001fb .LLST14
     /tmp/ccIupz92.s:605    .text:00000000000001c4 .LBB86
     /tmp/ccIupz92.s:621    .text:00000000000001d0 .LBE86
     /tmp/ccIupz92.s:4449   .debug_str:0000000000000afe .LASF172
     /tmp/ccIupz92.s:4437   .debug_str:0000000000000a9d .LASF173
     /tmp/ccIupz92.s:487    .text:000000000000016c .LFB61
     /tmp/ccIupz92.s:559    .text:00000000000001a8 .LFE61
     /tmp/ccIupz92.s:3965   .debug_loc:0000000000000220 .LLST11
     /tmp/ccIupz92.s:4139   .debug_str:00000000000000c7 .LASF174
     /tmp/ccIupz92.s:511    .text:0000000000000180 .LBB80
     /tmp/ccIupz92.s:523    .text:0000000000000188 .LBE80
     /tmp/ccIupz92.s:3979   .debug_loc:0000000000000259 .LLST12
     /tmp/ccIupz92.s:532    .text:000000000000018c .LBB82
     /tmp/ccIupz92.s:548    .text:0000000000000198 .LBE82
     /tmp/ccIupz92.s:4325   .debug_str:00000000000006c0 .LASF175
     /tmp/ccIupz92.s:4273   .debug_str:0000000000000539 .LASF176
     /tmp/ccIupz92.s:434    .text:0000000000000144 .LFB60
     /tmp/ccIupz92.s:481    .text:000000000000016c .LFE60
     /tmp/ccIupz92.s:453    .text:0000000000000154 .LBB78
     /tmp/ccIupz92.s:465    .text:000000000000015c .LBE78
     /tmp/ccIupz92.s:3988   .debug_loc:000000000000027e .LLST10
     /tmp/ccIupz92.s:4145   .debug_str:00000000000000e0 .LASF177
     /tmp/ccIupz92.s:4387   .debug_str:0000000000000887 .LASF178
     /tmp/ccIupz92.s:351    .text:0000000000000104 .LFB59
     /tmp/ccIupz92.s:428    .text:0000000000000144 .LFE59
     /tmp/ccIupz92.s:3996   .debug_loc:00000000000002a2 .LLST8
     /tmp/ccIupz92.s:4257   .debug_str:00000000000004bf .LASF179
     /tmp/ccIupz92.s:380    .text:000000000000011c .LBB74
GAS LISTING /tmp/ccIupz92.s 			page 38


     /tmp/ccIupz92.s:392    .text:0000000000000124 .LBE74
     /tmp/ccIupz92.s:4010   .debug_loc:00000000000002db .LLST9
     /tmp/ccIupz92.s:401    .text:0000000000000128 .LBB76
     /tmp/ccIupz92.s:417    .text:0000000000000134 .LBE76
     /tmp/ccIupz92.s:4357   .debug_str:00000000000007bc .LASF180
     /tmp/ccIupz92.s:4135   .debug_str:00000000000000ac .LASF181
     /tmp/ccIupz92.s:306    .text:00000000000000e0 .LFB58
     /tmp/ccIupz92.s:345    .text:0000000000000104 .LFE58
     /tmp/ccIupz92.s:317    .text:00000000000000ec .LBB72
     /tmp/ccIupz92.s:329    .text:00000000000000f4 .LBE72
     /tmp/ccIupz92.s:4018   .debug_loc:00000000000002ff .LLST7
     /tmp/ccIupz92.s:4281   .debug_str:0000000000000565 .LASF182
     /tmp/ccIupz92.s:4503   .debug_str:0000000000000c6f .LASF183
     /tmp/ccIupz92.s:241    .text:00000000000000ac .LFB57
     /tmp/ccIupz92.s:300    .text:00000000000000e0 .LFE57
     /tmp/ccIupz92.s:252    .text:00000000000000b8 .LBB68
     /tmp/ccIupz92.s:264    .text:00000000000000c0 .LBE68
     /tmp/ccIupz92.s:4026   .debug_loc:0000000000000323 .LLST6
     /tmp/ccIupz92.s:273    .text:00000000000000c4 .LBB70
     /tmp/ccIupz92.s:289    .text:00000000000000d0 .LBE70
     /tmp/ccIupz92.s:4455   .debug_str:0000000000000b1f .LASF184
     /tmp/ccIupz92.s:4313   .debug_str:0000000000000662 .LASF185
     /tmp/ccIupz92.s:158    .text:000000000000006c .LFB56
     /tmp/ccIupz92.s:235    .text:00000000000000ac .LFE56
     /tmp/ccIupz92.s:4034   .debug_loc:0000000000000347 .LLST4
     /tmp/ccIupz92.s:187    .text:0000000000000084 .LBB64
     /tmp/ccIupz92.s:199    .text:000000000000008c .LBE64
     /tmp/ccIupz92.s:4048   .debug_loc:0000000000000380 .LLST5
     /tmp/ccIupz92.s:208    .text:0000000000000090 .LBB66
     /tmp/ccIupz92.s:224    .text:000000000000009c .LBE66
     /tmp/ccIupz92.s:4469   .debug_str:0000000000000b8a .LASF186
     /tmp/ccIupz92.s:4501   .debug_str:0000000000000c61 .LASF187
     /tmp/ccIupz92.s:85     .text:0000000000000034 .LFB55
     /tmp/ccIupz92.s:152    .text:000000000000006c .LFE55
     /tmp/ccIupz92.s:4056   .debug_loc:00000000000003a4 .LLST2
     /tmp/ccIupz92.s:104    .text:0000000000000044 .LBB60
     /tmp/ccIupz92.s:116    .text:000000000000004c .LBE60
     /tmp/ccIupz92.s:4070   .debug_loc:00000000000003dd .LLST3
     /tmp/ccIupz92.s:125    .text:0000000000000050 .LBB62
     /tmp/ccIupz92.s:141    .text:000000000000005c .LBE62
     /tmp/ccIupz92.s:4291   .debug_str:00000000000005d1 .LASF188
     /tmp/ccIupz92.s:4215   .debug_str:000000000000037d .LASF189
     /tmp/ccIupz92.s:10     .text:0000000000000000 .LFB54
     /tmp/ccIupz92.s:79     .text:0000000000000034 .LFE54
     /tmp/ccIupz92.s:4175   .debug_str:000000000000022d .LASF190
     /tmp/ccIupz92.s:4078   .debug_loc:0000000000000401 .LLST0
     /tmp/ccIupz92.s:30     .text:0000000000000010 .LBB56
     /tmp/ccIupz92.s:43     .text:0000000000000018 .LBE56
     /tmp/ccIupz92.s:4092   .debug_loc:000000000000043a .LLST1
     /tmp/ccIupz92.s:53     .text:000000000000001c .LBB58
     /tmp/ccIupz92.s:69     .text:0000000000000028 .LBE58
     /tmp/ccIupz92.s:1017   .text:0000000000000308 .LVL52
     /tmp/ccIupz92.s:1028   .text:0000000000000310 .LVL53
     /tmp/ccIupz92.s:945    .text:00000000000002d0 .LVL48
     /tmp/ccIupz92.s:955    .text:00000000000002d8 .LVL49
     /tmp/ccIupz92.s:865    .text:000000000000028c .LVL44
     /tmp/ccIupz92.s:916    .text:00000000000002b4 .LVL47
GAS LISTING /tmp/ccIupz92.s 			page 39


     /tmp/ccIupz92.s:879    .text:000000000000029c .LVL45
     /tmp/ccIupz92.s:890    .text:00000000000002a4 .LVL46
     /tmp/ccIupz92.s:787    .text:0000000000000250 .LVL40
     /tmp/ccIupz92.s:843    .text:000000000000027c .LVL43
     /tmp/ccIupz92.s:806    .text:0000000000000264 .LVL41
     /tmp/ccIupz92.s:817    .text:000000000000026c .LVL42
     /tmp/ccIupz92.s:714    .text:0000000000000218 .LVL36
     /tmp/ccIupz92.s:765    .text:0000000000000240 .LVL39
     /tmp/ccIupz92.s:728    .text:0000000000000228 .LVL37
     /tmp/ccIupz92.s:739    .text:0000000000000230 .LVL38
     /tmp/ccIupz92.s:641    .text:00000000000001e0 .LVL32
     /tmp/ccIupz92.s:692    .text:0000000000000208 .LVL35
     /tmp/ccIupz92.s:655    .text:00000000000001f0 .LVL33
     /tmp/ccIupz92.s:666    .text:00000000000001f8 .LVL34
     /tmp/ccIupz92.s:568    .text:00000000000001a8 .LVL28
     /tmp/ccIupz92.s:619    .text:00000000000001d0 .LVL31
     /tmp/ccIupz92.s:582    .text:00000000000001b8 .LVL29
     /tmp/ccIupz92.s:593    .text:00000000000001c0 .LVL30
     /tmp/ccIupz92.s:490    .text:000000000000016c .LVL24
     /tmp/ccIupz92.s:546    .text:0000000000000198 .LVL27
     /tmp/ccIupz92.s:509    .text:0000000000000180 .LVL25
     /tmp/ccIupz92.s:520    .text:0000000000000188 .LVL26
     /tmp/ccIupz92.s:451    .text:0000000000000154 .LVL22
     /tmp/ccIupz92.s:462    .text:000000000000015c .LVL23
     /tmp/ccIupz92.s:354    .text:0000000000000104 .LVL17
     /tmp/ccIupz92.s:415    .text:0000000000000134 .LVL20
     /tmp/ccIupz92.s:378    .text:000000000000011c .LVL18
     /tmp/ccIupz92.s:389    .text:0000000000000124 .LVL19
     /tmp/ccIupz92.s:316    .text:00000000000000ec .LVL15
     /tmp/ccIupz92.s:326    .text:00000000000000f4 .LVL16
     /tmp/ccIupz92.s:251    .text:00000000000000b8 .LVL12
     /tmp/ccIupz92.s:261    .text:00000000000000c0 .LVL13
     /tmp/ccIupz92.s:161    .text:000000000000006c .LVL8
     /tmp/ccIupz92.s:222    .text:000000000000009c .LVL11
     /tmp/ccIupz92.s:185    .text:0000000000000084 .LVL9
     /tmp/ccIupz92.s:196    .text:000000000000008c .LVL10
     /tmp/ccIupz92.s:88     .text:0000000000000034 .LVL4
     /tmp/ccIupz92.s:139    .text:000000000000005c .LVL7
     /tmp/ccIupz92.s:102    .text:0000000000000044 .LVL5
     /tmp/ccIupz92.s:113    .text:000000000000004c .LVL6
     /tmp/ccIupz92.s:14     .text:0000000000000000 .LVL0
     /tmp/ccIupz92.s:67     .text:0000000000000028 .LVL3
     /tmp/ccIupz92.s:28     .text:0000000000000010 .LVL1
     /tmp/ccIupz92.s:40     .text:0000000000000018 .LVL2
     /tmp/ccIupz92.s:1056   .debug_info:0000000000000000 .Ldebug_info0

NO UNDEFINED SYMBOLS
