GAS LISTING /tmp/ccG1LbSb.s 			page 1


   1              		.file	"syscall_c.cpp"
   2              		.option pic
   3              		.option norelax
   4              		.text
   5              	.Ltext0:
   6              		.align	2
   7              		.globl	_Z9mem_allocm
   9              	_Z9mem_allocm:
  10              	.LFB42:
  11              		.file 1 "src/syscall_c.cpp"
   1:src/syscall_c.cpp **** #include "../h/syscall_c.hpp"
   2:src/syscall_c.cpp **** #include "../lib/hw.h"
   3:src/syscall_c.cpp **** #include "../h/riscv.hpp"
   4:src/syscall_c.cpp **** 
   5:src/syscall_c.cpp **** class _sem{
   6:src/syscall_c.cpp ****     int id;
   7:src/syscall_c.cpp **** };
   8:src/syscall_c.cpp **** 
   9:src/syscall_c.cpp **** void* mem_alloc(size_t size) {
  12              		.loc 1 9 30
  13              		.cfi_startproc
  14              	.LVL0:
  15 0000 130101FE 		addi	sp,sp,-32
  16              		.cfi_def_cfa_offset 32
  17 0004 233C8100 		sd	s0,24(sp)
  18              		.cfi_offset 8, -8
  19 0008 13040102 		addi	s0,sp,32
  20              		.cfi_def_cfa 8, 0
  10:src/syscall_c.cpp **** 
  11:src/syscall_c.cpp ****     __asm__ volatile("mv a1, %0" : : "r"(size));
  21              		.loc 1 11 5
  22              		.loc 1 11 48 is_stmt 0
  23              	#APP
  24              	# 11 "src/syscall_c.cpp" 1
  12              	    Riscv::w_a0(0x01);
  25              		mv a1, a0
  26              	# 0 "" 2
  27              		.loc 1 12 5 is_stmt 1
  28              	.LVL1:
  29              	#NO_APP
  30              	.LBB20:
  31              	.LBB21:
  32              		.file 2 "src/../h/riscv.hpp"
   1:src/../h/riscv.hpp **** #ifndef RISCV_H
   2:src/../h/riscv.hpp **** #define RISCV_H
   3:src/../h/riscv.hpp **** 
   4:src/../h/riscv.hpp **** #include "../lib/hw.h"
   5:src/../h/riscv.hpp **** 
   6:src/../h/riscv.hpp **** class Riscv {
   7:src/../h/riscv.hpp **** public:
   8:src/../h/riscv.hpp ****     // Stavljanje/skidanje registara x3,...,x31 na stek/sa steka
   9:src/../h/riscv.hpp ****     static void pushRegisters();
  10:src/../h/riscv.hpp ****     static void popRegisters();
  11:src/../h/riscv.hpp **** 
  12:src/../h/riscv.hpp ****     // Uzimanje vrednosti sstatus.spp i sstatus.spie bita (nije inline funkcija)
  13:src/../h/riscv.hpp ****     static void popSppSpie();
  14:src/../h/riscv.hpp **** 
GAS LISTING /tmp/ccG1LbSb.s 			page 2


  15:src/../h/riscv.hpp ****     // Citanje vrednosti registra scause
  16:src/../h/riscv.hpp ****     static uint64 r_scause();
  17:src/../h/riscv.hpp **** 
  18:src/../h/riscv.hpp ****     // Upisivanje u registar scause
  19:src/../h/riscv.hpp ****     static void w_scause(uint64 scause);
  20:src/../h/riscv.hpp **** 
  21:src/../h/riscv.hpp ****     // Citanje registra sepc
  22:src/../h/riscv.hpp ****     static uint64 r_sepc();
  23:src/../h/riscv.hpp **** 
  24:src/../h/riscv.hpp ****     // Upisivanje u registar sepc
  25:src/../h/riscv.hpp ****     static void w_sepc(uint64 sepc);
  26:src/../h/riscv.hpp **** 
  27:src/../h/riscv.hpp ****     // Citanje registra stvec
  28:src/../h/riscv.hpp ****     static uint64 r_stvec();
  29:src/../h/riscv.hpp **** 
  30:src/../h/riscv.hpp ****     // Upisivanje u registar stvec
  31:src/../h/riscv.hpp ****     static void w_stvec(uint64 stvec);
  32:src/../h/riscv.hpp **** 
  33:src/../h/riscv.hpp ****     // Citanje registra stval
  34:src/../h/riscv.hpp ****     static uint64 r_stval();
  35:src/../h/riscv.hpp **** 
  36:src/../h/riscv.hpp ****     // Upisivanje u registar stval
  37:src/../h/riscv.hpp ****     static void w_stval(uint64 stval);
  38:src/../h/riscv.hpp **** 
  39:src/../h/riscv.hpp ****     enum BitMaskSip {
  40:src/../h/riscv.hpp ****         SIP_SSIP = (1 << 1),
  41:src/../h/riscv.hpp ****         SIP_STIP = (1 << 5),
  42:src/../h/riscv.hpp ****         SIP_SEIP = (1 << 9)
  43:src/../h/riscv.hpp ****     };
  44:src/../h/riscv.hpp **** 
  45:src/../h/riscv.hpp ****     // Postavi masku za registar sip
  46:src/../h/riscv.hpp ****     static void ms_sip(uint64 mask);
  47:src/../h/riscv.hpp **** 
  48:src/../h/riscv.hpp ****     // Obrisi masku iz registra sip
  49:src/../h/riscv.hpp ****     static void mc_sip(uint64 mask);
  50:src/../h/riscv.hpp **** 
  51:src/../h/riscv.hpp ****     // Citanje registra sip
  52:src/../h/riscv.hpp ****     static uint64 r_sip();
  53:src/../h/riscv.hpp **** 
  54:src/../h/riscv.hpp ****     // Upisivanje u registar sip
  55:src/../h/riscv.hpp ****     static void w_sip(uint64 sip);
  56:src/../h/riscv.hpp **** 
  57:src/../h/riscv.hpp ****     enum BitMaskSstatus {
  58:src/../h/riscv.hpp ****         SSTATUS_SIE = (1 << 1),
  59:src/../h/riscv.hpp ****         SSTATUS_SPIE = (1 << 5),
  60:src/../h/riscv.hpp ****         SSTATUS_SPP = (1 << 8),
  61:src/../h/riscv.hpp ****     };
  62:src/../h/riscv.hpp **** 
  63:src/../h/riscv.hpp ****     // Postavi masku za registar sstatus
  64:src/../h/riscv.hpp ****     static void ms_sstatus(uint64 mask);
  65:src/../h/riscv.hpp **** 
  66:src/../h/riscv.hpp ****     // Obrisi masku iz registra sstatus
  67:src/../h/riscv.hpp ****     static void mc_sstatus(uint64 mask);
  68:src/../h/riscv.hpp **** 
  69:src/../h/riscv.hpp ****     // Citanje registra sstatus
  70:src/../h/riscv.hpp ****     static uint64 r_sstatus();
  71:src/../h/riscv.hpp **** 
GAS LISTING /tmp/ccG1LbSb.s 			page 3


  72:src/../h/riscv.hpp ****     // Upisivanje u registar sstatus
  73:src/../h/riscv.hpp ****     static void w_sstatus(uint64 sstatus);
  74:src/../h/riscv.hpp **** 
  75:src/../h/riscv.hpp ****     // Supervizorska prekidna rutina
  76:src/../h/riscv.hpp ****     static void supervisorTrap();
  77:src/../h/riscv.hpp **** 
  78:src/../h/riscv.hpp ****     // Citanje registra a0
  79:src/../h/riscv.hpp ****     static uint64 r_a0();
  80:src/../h/riscv.hpp **** 
  81:src/../h/riscv.hpp ****     // Upisivanje u registar a0
  82:src/../h/riscv.hpp ****     static void w_a0(uint64 value);
  83:src/../h/riscv.hpp **** 
  84:src/../h/riscv.hpp **** private:
  85:src/../h/riscv.hpp ****     // Rukovalac prekidnom rutinom
  86:src/../h/riscv.hpp ****     static void handleSupervisorTrap();
  87:src/../h/riscv.hpp **** };
  88:src/../h/riscv.hpp **** 
  89:src/../h/riscv.hpp **** inline uint64 Riscv::r_scause() {
  90:src/../h/riscv.hpp ****     uint64 volatile scause;
  91:src/../h/riscv.hpp ****     __asm__ volatile("csrr %0, scause" : "=r"(scause));
  92:src/../h/riscv.hpp ****     return scause;
  93:src/../h/riscv.hpp **** }
  94:src/../h/riscv.hpp **** 
  95:src/../h/riscv.hpp **** inline void Riscv::w_scause(uint64 scause) {
  96:src/../h/riscv.hpp ****     __asm__ volatile("csrw scause, %0" : : "r"(scause));
  97:src/../h/riscv.hpp **** }
  98:src/../h/riscv.hpp **** 
  99:src/../h/riscv.hpp **** inline uint64 Riscv::r_sepc() {
 100:src/../h/riscv.hpp ****     uint64 volatile sepc;
 101:src/../h/riscv.hpp ****     __asm__ volatile("csrr %0, sepc" : "=r"(sepc));
 102:src/../h/riscv.hpp ****     return sepc;
 103:src/../h/riscv.hpp **** }
 104:src/../h/riscv.hpp **** 
 105:src/../h/riscv.hpp **** inline void Riscv::w_sepc(uint64 sepc) {
 106:src/../h/riscv.hpp ****     __asm__ volatile("csrw sepc, %0" : : "r"(sepc));
 107:src/../h/riscv.hpp **** }
 108:src/../h/riscv.hpp **** 
 109:src/../h/riscv.hpp **** inline uint64 Riscv::r_stvec() {
 110:src/../h/riscv.hpp ****     uint64 volatile stvec;
 111:src/../h/riscv.hpp ****     __asm__ volatile("csrr %0, stvec" : "=r"(stvec));
 112:src/../h/riscv.hpp ****     return stvec;
 113:src/../h/riscv.hpp **** }
 114:src/../h/riscv.hpp **** 
 115:src/../h/riscv.hpp **** inline void Riscv::w_stvec(uint64 stvec) {
 116:src/../h/riscv.hpp ****     __asm__ volatile("csrw stvec, %0" : : "r"(stvec));
 117:src/../h/riscv.hpp **** }
 118:src/../h/riscv.hpp **** 
 119:src/../h/riscv.hpp **** inline uint64 Riscv::r_stval() {
 120:src/../h/riscv.hpp ****     uint64 volatile stval;
 121:src/../h/riscv.hpp ****     __asm__ volatile("csrr %0, stval" : "=r"(stval));
 122:src/../h/riscv.hpp ****     return stval;
 123:src/../h/riscv.hpp **** }
 124:src/../h/riscv.hpp **** 
 125:src/../h/riscv.hpp **** inline void Riscv::w_stval(uint64 stval) {
 126:src/../h/riscv.hpp ****     __asm__ volatile("csrw stval, %0" : : "r"(stval));
 127:src/../h/riscv.hpp **** }
 128:src/../h/riscv.hpp **** 
GAS LISTING /tmp/ccG1LbSb.s 			page 4


 129:src/../h/riscv.hpp **** inline void Riscv::ms_sip(uint64 mask) {
 130:src/../h/riscv.hpp ****     __asm__ volatile("csrs sip, %0" : : "r"(mask));
 131:src/../h/riscv.hpp **** }
 132:src/../h/riscv.hpp **** 
 133:src/../h/riscv.hpp **** inline void Riscv::mc_sip(uint64 mask) {
 134:src/../h/riscv.hpp ****     __asm__ volatile("csrc sip, %0" : : "r"(mask));
 135:src/../h/riscv.hpp **** }
 136:src/../h/riscv.hpp **** 
 137:src/../h/riscv.hpp **** inline uint64 Riscv::r_sip() {
 138:src/../h/riscv.hpp ****     uint64 volatile sip;
 139:src/../h/riscv.hpp ****     __asm__ volatile("csrr %0, sip" : "=r"(sip));
 140:src/../h/riscv.hpp ****     return sip;
 141:src/../h/riscv.hpp **** }
 142:src/../h/riscv.hpp **** 
 143:src/../h/riscv.hpp **** inline void Riscv::w_sip(uint64 sip) {
 144:src/../h/riscv.hpp ****     __asm__ volatile("csrc sip, %0" : : "r"(sip));
 145:src/../h/riscv.hpp **** }
 146:src/../h/riscv.hpp **** 
 147:src/../h/riscv.hpp **** inline void Riscv::ms_sstatus(uint64 mask) {
 148:src/../h/riscv.hpp ****     __asm__ volatile("csrs sstatus, %0" : : "r"(mask));
 149:src/../h/riscv.hpp **** }
 150:src/../h/riscv.hpp **** 
 151:src/../h/riscv.hpp **** inline void Riscv::mc_sstatus(uint64 mask) {
 152:src/../h/riscv.hpp ****     __asm__ volatile("csrc sstatus, %0" : : "r"(mask));
 153:src/../h/riscv.hpp **** }
 154:src/../h/riscv.hpp **** 
 155:src/../h/riscv.hpp **** inline uint64 Riscv::r_sstatus() {
 156:src/../h/riscv.hpp ****     uint64 volatile sstatus;
 157:src/../h/riscv.hpp ****     __asm__ volatile("csrr %0, sstatus" : "=r"(sstatus));
 158:src/../h/riscv.hpp ****     return sstatus;
 159:src/../h/riscv.hpp **** }
 160:src/../h/riscv.hpp **** 
 161:src/../h/riscv.hpp **** inline void Riscv::w_sstatus(uint64 sstatus) {
 162:src/../h/riscv.hpp ****     __asm__ volatile("csrc sstatus, %0" : : "r"(sstatus));
 163:src/../h/riscv.hpp **** }
 164:src/../h/riscv.hpp **** 
 165:src/../h/riscv.hpp **** inline uint64 Riscv::r_a0() {
 166:src/../h/riscv.hpp ****     uint64 volatile a0;
 167:src/../h/riscv.hpp ****     __asm__ volatile("mv %0, a0" : "=r"(a0));
 168:src/../h/riscv.hpp ****     return a0;
 169:src/../h/riscv.hpp **** }
 170:src/../h/riscv.hpp **** 
 171:src/../h/riscv.hpp **** inline void Riscv::w_a0(uint64 value) {
 172:src/../h/riscv.hpp ****     __asm__ volatile("mv a0, %0" : : "r"(value));
  33              		.loc 2 172 5
  34              		.loc 2 172 49 is_stmt 0
  35 0010 93071000 		li	a5,1
  36              	#APP
  37              	# 172 "src/../h/riscv.hpp" 1
 173              	}
  38              		mv a0, a5
  39              	# 0 "" 2
  40              	.LVL2:
  41              	#NO_APP
  42              	.LBE21:
  43              	.LBE20:
  13:src/syscall_c.cpp ****     __asm__ volatile("ecall");
GAS LISTING /tmp/ccG1LbSb.s 			page 5


  44              		.loc 1 13 5 is_stmt 1
  45              		.loc 1 13 30 is_stmt 0
  46              	#APP
  47              	# 13 "src/syscall_c.cpp" 1
  14              	
  15:src/syscall_c.cpp ****     void* ret;
  48              		ecall
  49              	# 0 "" 2
  50              		.loc 1 15 5 is_stmt 1
  16:src/syscall_c.cpp ****     ret = (void*) Riscv::r_a0();
  51              		.loc 1 16 5
  52              	#NO_APP
  53              	.LBB22:
  54              	.LBB23:
 166:src/../h/riscv.hpp ****     __asm__ volatile("mv %0, a0" : "=r"(a0));
  55              		.loc 2 166 5
 167:src/../h/riscv.hpp ****     return a0;
  56              		.loc 2 167 5
 167:src/../h/riscv.hpp ****     return a0;
  57              		.loc 2 167 45 is_stmt 0
  58              	#APP
  59              	# 167 "src/../h/riscv.hpp" 1
  60              		mv a5, a0
  61              	# 0 "" 2
  62              	#NO_APP
  63 0020 2334F4FE 		sd	a5,-24(s0)
 168:src/../h/riscv.hpp **** }
  64              		.loc 2 168 5 is_stmt 1
 168:src/../h/riscv.hpp **** }
  65              		.loc 2 168 12 is_stmt 0
  66 0024 033584FE 		ld	a0,-24(s0)
  67              	.LVL3:
  68              	.LBE23:
  69              	.LBE22:
  17:src/syscall_c.cpp ****     return ret;
  70              		.loc 1 17 5 is_stmt 1
  18:src/syscall_c.cpp **** }
  71              		.loc 1 18 1 is_stmt 0
  72 0028 03348101 		ld	s0,24(sp)
  73              		.cfi_restore 8
  74              		.cfi_def_cfa 2, 32
  75 002c 13010102 		addi	sp,sp,32
  76              		.cfi_def_cfa_offset 0
  77 0030 67800000 		jr	ra
  78              		.cfi_endproc
  79              	.LFE42:
  81              		.align	2
  82              		.globl	_Z8mem_freePv
  84              	_Z8mem_freePv:
  85              	.LFB43:
  19:src/syscall_c.cpp **** 
  20:src/syscall_c.cpp **** int mem_free(void* ptr) {
  86              		.loc 1 20 25 is_stmt 1
  87              		.cfi_startproc
  88              	.LVL4:
  89 0034 130101FE 		addi	sp,sp,-32
  90              		.cfi_def_cfa_offset 32
GAS LISTING /tmp/ccG1LbSb.s 			page 6


  91 0038 233C8100 		sd	s0,24(sp)
  92              		.cfi_offset 8, -8
  93 003c 13040102 		addi	s0,sp,32
  94              		.cfi_def_cfa 8, 0
  21:src/syscall_c.cpp ****     __asm__ volatile("mv a1, %0" : : "r"(ptr));
  95              		.loc 1 21 5
  96              		.loc 1 21 47 is_stmt 0
  97              	#APP
  98              	# 21 "src/syscall_c.cpp" 1
  22              	    Riscv::w_a0(0x02);
  99              		mv a1, a0
 100              	# 0 "" 2
 101              		.loc 1 22 5 is_stmt 1
 102              	.LVL5:
 103              	#NO_APP
 104              	.LBB24:
 105              	.LBB25:
 172:src/../h/riscv.hpp **** }
 106              		.loc 2 172 5
 172:src/../h/riscv.hpp **** }
 107              		.loc 2 172 49 is_stmt 0
 108 0044 93072000 		li	a5,2
 109              	#APP
 110              	# 172 "src/../h/riscv.hpp" 1
 111              		mv a0, a5
 112              	# 0 "" 2
 113              	.LVL6:
 114              	#NO_APP
 115              	.LBE25:
 116              	.LBE24:
  23:src/syscall_c.cpp ****     __asm__ volatile("ecall");
 117              		.loc 1 23 5 is_stmt 1
 118              		.loc 1 23 30 is_stmt 0
 119              	#APP
 120              	# 23 "src/syscall_c.cpp" 1
  24              	
  25:src/syscall_c.cpp ****     int ret = (int) Riscv::r_a0();
 121              		ecall
 122              	# 0 "" 2
 123              		.loc 1 25 5 is_stmt 1
 124              	#NO_APP
 125              	.LBB26:
 126              	.LBB27:
 166:src/../h/riscv.hpp ****     __asm__ volatile("mv %0, a0" : "=r"(a0));
 127              		.loc 2 166 5
 167:src/../h/riscv.hpp ****     return a0;
 128              		.loc 2 167 5
 167:src/../h/riscv.hpp ****     return a0;
 129              		.loc 2 167 45 is_stmt 0
 130              	#APP
 131              	# 167 "src/../h/riscv.hpp" 1
 132              		mv a5, a0
 133              	# 0 "" 2
 134              	#NO_APP
 135 0054 2334F4FE 		sd	a5,-24(s0)
 168:src/../h/riscv.hpp **** }
 136              		.loc 2 168 5 is_stmt 1
GAS LISTING /tmp/ccG1LbSb.s 			page 7


 168:src/../h/riscv.hpp **** }
 137              		.loc 2 168 12 is_stmt 0
 138 0058 033584FE 		ld	a0,-24(s0)
 139              	.LVL7:
 140              	.LBE27:
 141              	.LBE26:
  26:src/syscall_c.cpp ****     return ret;
 142              		.loc 1 26 5 is_stmt 1
  27:src/syscall_c.cpp **** }
 143              		.loc 1 27 1 is_stmt 0
 144 005c 1B050500 		sext.w	a0,a0
 145 0060 03348101 		ld	s0,24(sp)
 146              		.cfi_restore 8
 147              		.cfi_def_cfa 2, 32
 148 0064 13010102 		addi	sp,sp,32
 149              		.cfi_def_cfa_offset 0
 150 0068 67800000 		jr	ra
 151              		.cfi_endproc
 152              	.LFE43:
 154              		.align	2
 155              		.globl	_Z13thread_createPP3TCBPFvPvES2_
 157              	_Z13thread_createPP3TCBPFvPvES2_:
 158              	.LFB44:
  28:src/syscall_c.cpp **** 
  29:src/syscall_c.cpp **** int thread_create(thread_t* handle, void (*start_routine)(void*), void* arg) {
 159              		.loc 1 29 78 is_stmt 1
 160              		.cfi_startproc
 161              	.LVL8:
 162 006c 130101FE 		addi	sp,sp,-32
 163              		.cfi_def_cfa_offset 32
 164 0070 233C8100 		sd	s0,24(sp)
 165              		.cfi_offset 8, -8
 166 0074 13040102 		addi	s0,sp,32
 167              		.cfi_def_cfa 8, 0
  30:src/syscall_c.cpp ****     __asm__ volatile("mv a7, %0" : : "r"(arg));
 168              		.loc 1 30 5
 169              		.loc 1 30 47 is_stmt 0
 170              	#APP
 171              	# 30 "src/syscall_c.cpp" 1
  31              	    __asm__ volatile("mv a2, %0" : : "r"(start_routine));
 172              		mv a7, a2
 173              	# 0 "" 2
 174              		.loc 1 31 5 is_stmt 1
 175              		.loc 1 31 57 is_stmt 0
 176              	# 31 "src/syscall_c.cpp" 1
  32              	    __asm__ volatile("mv a1, %0" : : "r"(handle));
 177              		mv a2, a1
 178              	# 0 "" 2
 179              		.loc 1 32 5 is_stmt 1
 180              		.loc 1 32 50 is_stmt 0
 181              	# 32 "src/syscall_c.cpp" 1
  33              	    Riscv::w_a0(0x11);
 182              		mv a1, a0
 183              	# 0 "" 2
 184              		.loc 1 33 5 is_stmt 1
 185              	.LVL9:
 186              	#NO_APP
GAS LISTING /tmp/ccG1LbSb.s 			page 8


 187              	.LBB28:
 188              	.LBB29:
 172:src/../h/riscv.hpp **** }
 189              		.loc 2 172 5
 172:src/../h/riscv.hpp **** }
 190              		.loc 2 172 49 is_stmt 0
 191 0084 93071001 		li	a5,17
 192              	#APP
 193              	# 172 "src/../h/riscv.hpp" 1
 194              		mv a0, a5
 195              	# 0 "" 2
 196              	.LVL10:
 197              	#NO_APP
 198              	.LBE29:
 199              	.LBE28:
  34:src/syscall_c.cpp **** 
  35:src/syscall_c.cpp ****     __asm__ volatile("ecall");
 200              		.loc 1 35 5 is_stmt 1
 201              		.loc 1 35 30 is_stmt 0
 202              	#APP
 203              	# 35 "src/syscall_c.cpp" 1
  36              	
  37:src/syscall_c.cpp ****     int ret = (int) Riscv::r_a0();
 204              		ecall
 205              	# 0 "" 2
 206              		.loc 1 37 5 is_stmt 1
 207              	#NO_APP
 208              	.LBB30:
 209              	.LBB31:
 166:src/../h/riscv.hpp ****     __asm__ volatile("mv %0, a0" : "=r"(a0));
 210              		.loc 2 166 5
 167:src/../h/riscv.hpp ****     return a0;
 211              		.loc 2 167 5
 167:src/../h/riscv.hpp ****     return a0;
 212              		.loc 2 167 45 is_stmt 0
 213              	#APP
 214              	# 167 "src/../h/riscv.hpp" 1
 215              		mv a5, a0
 216              	# 0 "" 2
 217              	#NO_APP
 218 0094 2334F4FE 		sd	a5,-24(s0)
 168:src/../h/riscv.hpp **** }
 219              		.loc 2 168 5 is_stmt 1
 168:src/../h/riscv.hpp **** }
 220              		.loc 2 168 12 is_stmt 0
 221 0098 033584FE 		ld	a0,-24(s0)
 222              	.LVL11:
 223              	.LBE31:
 224              	.LBE30:
  38:src/syscall_c.cpp ****     return ret;
 225              		.loc 1 38 5 is_stmt 1
  39:src/syscall_c.cpp **** }
 226              		.loc 1 39 1 is_stmt 0
 227 009c 1B050500 		sext.w	a0,a0
 228 00a0 03348101 		ld	s0,24(sp)
 229              		.cfi_restore 8
 230              		.cfi_def_cfa 2, 32
GAS LISTING /tmp/ccG1LbSb.s 			page 9


 231 00a4 13010102 		addi	sp,sp,32
 232              		.cfi_def_cfa_offset 0
 233 00a8 67800000 		jr	ra
 234              		.cfi_endproc
 235              	.LFE44:
 237              		.align	2
 238              		.globl	_Z11thread_exitv
 240              	_Z11thread_exitv:
 241              	.LFB45:
  40:src/syscall_c.cpp **** 
  41:src/syscall_c.cpp **** int thread_exit() {
 242              		.loc 1 41 19 is_stmt 1
 243              		.cfi_startproc
 244 00ac 130101FE 		addi	sp,sp,-32
 245              		.cfi_def_cfa_offset 32
 246 00b0 233C8100 		sd	s0,24(sp)
 247              		.cfi_offset 8, -8
 248 00b4 13040102 		addi	s0,sp,32
 249              		.cfi_def_cfa 8, 0
  42:src/syscall_c.cpp ****     Riscv::w_a0(0x12);
 250              		.loc 1 42 5
 251              	.LVL12:
 252              	.LBB32:
 253              	.LBB33:
 172:src/../h/riscv.hpp **** }
 254              		.loc 2 172 5
 172:src/../h/riscv.hpp **** }
 255              		.loc 2 172 49 is_stmt 0
 256 00b8 93072001 		li	a5,18
 257              	#APP
 258              	# 172 "src/../h/riscv.hpp" 1
 259              		mv a0, a5
 260              	# 0 "" 2
 261              	.LVL13:
 262              	#NO_APP
 263              	.LBE33:
 264              	.LBE32:
  43:src/syscall_c.cpp ****     __asm__ volatile("ecall");
 265              		.loc 1 43 5 is_stmt 1
 266              		.loc 1 43 30 is_stmt 0
 267              	#APP
 268              	# 43 "src/syscall_c.cpp" 1
  44              	
  45:src/syscall_c.cpp ****     int ret = (int) Riscv::r_a0();
 269              		ecall
 270              	# 0 "" 2
 271              		.loc 1 45 5 is_stmt 1
 272              	#NO_APP
 273              	.LBB34:
 274              	.LBB35:
 166:src/../h/riscv.hpp ****     __asm__ volatile("mv %0, a0" : "=r"(a0));
 275              		.loc 2 166 5
 167:src/../h/riscv.hpp ****     return a0;
 276              		.loc 2 167 5
 167:src/../h/riscv.hpp ****     return a0;
 277              		.loc 2 167 45 is_stmt 0
 278              	#APP
GAS LISTING /tmp/ccG1LbSb.s 			page 10


 279              	# 167 "src/../h/riscv.hpp" 1
 280              		mv a5, a0
 281              	# 0 "" 2
 282              	#NO_APP
 283 00c8 2334F4FE 		sd	a5,-24(s0)
 168:src/../h/riscv.hpp **** }
 284              		.loc 2 168 5 is_stmt 1
 168:src/../h/riscv.hpp **** }
 285              		.loc 2 168 12 is_stmt 0
 286 00cc 033584FE 		ld	a0,-24(s0)
 287              	.LVL14:
 288              	.LBE35:
 289              	.LBE34:
  46:src/syscall_c.cpp ****     return ret;
 290              		.loc 1 46 5 is_stmt 1
  47:src/syscall_c.cpp **** }
 291              		.loc 1 47 1 is_stmt 0
 292 00d0 1B050500 		sext.w	a0,a0
 293 00d4 03348101 		ld	s0,24(sp)
 294              		.cfi_restore 8
 295              		.cfi_def_cfa 2, 32
 296 00d8 13010102 		addi	sp,sp,32
 297              		.cfi_def_cfa_offset 0
 298 00dc 67800000 		jr	ra
 299              		.cfi_endproc
 300              	.LFE45:
 302              		.align	2
 303              		.globl	_Z15thread_dispatchv
 305              	_Z15thread_dispatchv:
 306              	.LFB46:
  48:src/syscall_c.cpp **** 
  49:src/syscall_c.cpp **** 
  50:src/syscall_c.cpp **** void thread_dispatch() {
 307              		.loc 1 50 24 is_stmt 1
 308              		.cfi_startproc
 309 00e0 130101FF 		addi	sp,sp,-16
 310              		.cfi_def_cfa_offset 16
 311 00e4 23348100 		sd	s0,8(sp)
 312              		.cfi_offset 8, -8
 313 00e8 13040101 		addi	s0,sp,16
 314              		.cfi_def_cfa 8, 0
  51:src/syscall_c.cpp ****     Riscv::w_a0(0x13);
 315              		.loc 1 51 5
 316              	.LVL15:
 317              	.LBB36:
 318              	.LBB37:
 172:src/../h/riscv.hpp **** }
 319              		.loc 2 172 5
 172:src/../h/riscv.hpp **** }
 320              		.loc 2 172 49 is_stmt 0
 321 00ec 93073001 		li	a5,19
 322              	#APP
 323              	# 172 "src/../h/riscv.hpp" 1
 324              		mv a0, a5
 325              	# 0 "" 2
 326              	.LVL16:
 327              	#NO_APP
GAS LISTING /tmp/ccG1LbSb.s 			page 11


 328              	.LBE37:
 329              	.LBE36:
  52:src/syscall_c.cpp ****     __asm__ volatile("ecall");
 330              		.loc 1 52 5 is_stmt 1
 331              		.loc 1 52 30 is_stmt 0
 332              	#APP
 333              	# 52 "src/syscall_c.cpp" 1
  53              	}...
 334              		ecall
 335              	# 0 "" 2
 336              		.loc 1 53 1
 337              	#NO_APP
 338 00f8 03348100 		ld	s0,8(sp)
 339              		.cfi_restore 8
 340              		.cfi_def_cfa 2, 16
 341 00fc 13010101 		addi	sp,sp,16
 342              		.cfi_def_cfa_offset 0
 343 0100 67800000 		jr	ra
 344              		.cfi_endproc
 345              	.LFE46:
 347              	.Letext0:
 348              		.file 3 "src/../h/../lib/hw.h"
 349              		.file 4 "src/../h/tcb.hpp"
 350              		.file 5 "src/../h/syscall_c.hpp"
GAS LISTING /tmp/ccG1LbSb.s 			page 12


DEFINED SYMBOLS
                            *ABS*:0000000000000000 syscall_c.cpp
     /tmp/ccG1LbSb.s:9      .text:0000000000000000 _Z9mem_allocm
     /tmp/ccG1LbSb.s:13     .text:0000000000000000 .L0 
     /tmp/ccG1LbSb.s:15     .text:0000000000000000 .L0 
     /tmp/ccG1LbSb.s:16     .text:0000000000000004 .L0 
     /tmp/ccG1LbSb.s:18     .text:0000000000000008 .L0 
     /tmp/ccG1LbSb.s:20     .text:000000000000000c .L0 
     /tmp/ccG1LbSb.s:22     .text:000000000000000c .L0 
   src/syscall_c.cpp:11     .text:000000000000000c .L0 
     /tmp/ccG1LbSb.s:33     .text:0000000000000010 .L0 
     /tmp/ccG1LbSb.s:34     .text:0000000000000010 .L0 
     /tmp/ccG1LbSb.s:35     .text:0000000000000010 .L0 
     /tmp/ccG1LbSb.s:45     .text:0000000000000018 .L0 
   src/syscall_c.cpp:13     .text:0000000000000018 .L0 
     /tmp/ccG1LbSb.s:51     .text:000000000000001c .L0 
     /tmp/ccG1LbSb.s:55     .text:000000000000001c .L0 
     /tmp/ccG1LbSb.s:56     .text:000000000000001c .L0 
     /tmp/ccG1LbSb.s:57     .text:000000000000001c .L0 
  src/../h/riscv.hpp:167    .text:000000000000001c .L0 
     /tmp/ccG1LbSb.s:65     .text:0000000000000024 .L0 
     /tmp/ccG1LbSb.s:66     .text:0000000000000024 .L0 
     /tmp/ccG1LbSb.s:71     .text:0000000000000028 .L0 
     /tmp/ccG1LbSb.s:72     .text:0000000000000028 .L0 
     /tmp/ccG1LbSb.s:73     .text:000000000000002c .L0 
     /tmp/ccG1LbSb.s:74     .text:000000000000002c .L0 
     /tmp/ccG1LbSb.s:76     .text:0000000000000030 .L0 
     /tmp/ccG1LbSb.s:78     .text:0000000000000034 .L0 
     /tmp/ccG1LbSb.s:84     .text:0000000000000034 _Z8mem_freePv
     /tmp/ccG1LbSb.s:87     .text:0000000000000034 .L0 
     /tmp/ccG1LbSb.s:89     .text:0000000000000034 .L0 
     /tmp/ccG1LbSb.s:90     .text:0000000000000038 .L0 
     /tmp/ccG1LbSb.s:92     .text:000000000000003c .L0 
     /tmp/ccG1LbSb.s:94     .text:0000000000000040 .L0 
     /tmp/ccG1LbSb.s:96     .text:0000000000000040 .L0 
   src/syscall_c.cpp:21     .text:0000000000000040 .L0 
     /tmp/ccG1LbSb.s:106    .text:0000000000000044 .L0 
     /tmp/ccG1LbSb.s:107    .text:0000000000000044 .L0 
     /tmp/ccG1LbSb.s:108    .text:0000000000000044 .L0 
     /tmp/ccG1LbSb.s:118    .text:000000000000004c .L0 
   src/syscall_c.cpp:23     .text:000000000000004c .L0 
     /tmp/ccG1LbSb.s:127    .text:0000000000000050 .L0 
     /tmp/ccG1LbSb.s:128    .text:0000000000000050 .L0 
     /tmp/ccG1LbSb.s:129    .text:0000000000000050 .L0 
  src/../h/riscv.hpp:167    .text:0000000000000050 .L0 
     /tmp/ccG1LbSb.s:137    .text:0000000000000058 .L0 
     /tmp/ccG1LbSb.s:138    .text:0000000000000058 .L0 
     /tmp/ccG1LbSb.s:143    .text:000000000000005c .L0 
     /tmp/ccG1LbSb.s:144    .text:000000000000005c .L0 
     /tmp/ccG1LbSb.s:146    .text:0000000000000064 .L0 
     /tmp/ccG1LbSb.s:147    .text:0000000000000064 .L0 
     /tmp/ccG1LbSb.s:149    .text:0000000000000068 .L0 
     /tmp/ccG1LbSb.s:151    .text:000000000000006c .L0 
     /tmp/ccG1LbSb.s:157    .text:000000000000006c _Z13thread_createPP3TCBPFvPvES2_
     /tmp/ccG1LbSb.s:160    .text:000000000000006c .L0 
     /tmp/ccG1LbSb.s:162    .text:000000000000006c .L0 
     /tmp/ccG1LbSb.s:163    .text:0000000000000070 .L0 
GAS LISTING /tmp/ccG1LbSb.s 			page 13


     /tmp/ccG1LbSb.s:165    .text:0000000000000074 .L0 
     /tmp/ccG1LbSb.s:167    .text:0000000000000078 .L0 
     /tmp/ccG1LbSb.s:169    .text:0000000000000078 .L0 
   src/syscall_c.cpp:30     .text:0000000000000078 .L0 
     /tmp/ccG1LbSb.s:175    .text:000000000000007c .L0 
   src/syscall_c.cpp:31     .text:000000000000007c .L0 
     /tmp/ccG1LbSb.s:180    .text:0000000000000080 .L0 
   src/syscall_c.cpp:32     .text:0000000000000080 .L0 
     /tmp/ccG1LbSb.s:189    .text:0000000000000084 .L0 
     /tmp/ccG1LbSb.s:190    .text:0000000000000084 .L0 
     /tmp/ccG1LbSb.s:191    .text:0000000000000084 .L0 
     /tmp/ccG1LbSb.s:201    .text:000000000000008c .L0 
   src/syscall_c.cpp:35     .text:000000000000008c .L0 
     /tmp/ccG1LbSb.s:210    .text:0000000000000090 .L0 
     /tmp/ccG1LbSb.s:211    .text:0000000000000090 .L0 
     /tmp/ccG1LbSb.s:212    .text:0000000000000090 .L0 
  src/../h/riscv.hpp:167    .text:0000000000000090 .L0 
     /tmp/ccG1LbSb.s:220    .text:0000000000000098 .L0 
     /tmp/ccG1LbSb.s:221    .text:0000000000000098 .L0 
     /tmp/ccG1LbSb.s:226    .text:000000000000009c .L0 
     /tmp/ccG1LbSb.s:227    .text:000000000000009c .L0 
     /tmp/ccG1LbSb.s:229    .text:00000000000000a4 .L0 
     /tmp/ccG1LbSb.s:230    .text:00000000000000a4 .L0 
     /tmp/ccG1LbSb.s:232    .text:00000000000000a8 .L0 
     /tmp/ccG1LbSb.s:234    .text:00000000000000ac .L0 
     /tmp/ccG1LbSb.s:240    .text:00000000000000ac _Z11thread_exitv
     /tmp/ccG1LbSb.s:243    .text:00000000000000ac .L0 
     /tmp/ccG1LbSb.s:244    .text:00000000000000ac .L0 
     /tmp/ccG1LbSb.s:245    .text:00000000000000b0 .L0 
     /tmp/ccG1LbSb.s:247    .text:00000000000000b4 .L0 
     /tmp/ccG1LbSb.s:249    .text:00000000000000b8 .L0 
     /tmp/ccG1LbSb.s:254    .text:00000000000000b8 .L0 
     /tmp/ccG1LbSb.s:255    .text:00000000000000b8 .L0 
     /tmp/ccG1LbSb.s:256    .text:00000000000000b8 .L0 
     /tmp/ccG1LbSb.s:266    .text:00000000000000c0 .L0 
   src/syscall_c.cpp:43     .text:00000000000000c0 .L0 
     /tmp/ccG1LbSb.s:275    .text:00000000000000c4 .L0 
     /tmp/ccG1LbSb.s:276    .text:00000000000000c4 .L0 
     /tmp/ccG1LbSb.s:277    .text:00000000000000c4 .L0 
  src/../h/riscv.hpp:167    .text:00000000000000c4 .L0 
     /tmp/ccG1LbSb.s:285    .text:00000000000000cc .L0 
     /tmp/ccG1LbSb.s:286    .text:00000000000000cc .L0 
     /tmp/ccG1LbSb.s:291    .text:00000000000000d0 .L0 
     /tmp/ccG1LbSb.s:292    .text:00000000000000d0 .L0 
     /tmp/ccG1LbSb.s:294    .text:00000000000000d8 .L0 
     /tmp/ccG1LbSb.s:295    .text:00000000000000d8 .L0 
     /tmp/ccG1LbSb.s:297    .text:00000000000000dc .L0 
     /tmp/ccG1LbSb.s:299    .text:00000000000000e0 .L0 
     /tmp/ccG1LbSb.s:305    .text:00000000000000e0 _Z15thread_dispatchv
     /tmp/ccG1LbSb.s:308    .text:00000000000000e0 .L0 
     /tmp/ccG1LbSb.s:309    .text:00000000000000e0 .L0 
     /tmp/ccG1LbSb.s:310    .text:00000000000000e4 .L0 
     /tmp/ccG1LbSb.s:312    .text:00000000000000e8 .L0 
     /tmp/ccG1LbSb.s:314    .text:00000000000000ec .L0 
     /tmp/ccG1LbSb.s:319    .text:00000000000000ec .L0 
     /tmp/ccG1LbSb.s:320    .text:00000000000000ec .L0 
     /tmp/ccG1LbSb.s:321    .text:00000000000000ec .L0 
GAS LISTING /tmp/ccG1LbSb.s 			page 14


     /tmp/ccG1LbSb.s:331    .text:00000000000000f4 .L0 
   src/syscall_c.cpp:52     .text:00000000000000f4 .L0 
     /tmp/ccG1LbSb.s:338    .text:00000000000000f8 .L0 
     /tmp/ccG1LbSb.s:339    .text:00000000000000fc .L0 
     /tmp/ccG1LbSb.s:340    .text:00000000000000fc .L0 
     /tmp/ccG1LbSb.s:342    .text:0000000000000100 .L0 
     /tmp/ccG1LbSb.s:344    .text:0000000000000104 .L0 
     /tmp/ccG1LbSb.s:351    .text:0000000000000104 .L0 
     /tmp/ccG1LbSb.s:1221   .debug_abbrev:0000000000000000 .Ldebug_abbrev0
     /tmp/ccG1LbSb.s:2306   .debug_str:00000000000005c5 .LASF100
     /tmp/ccG1LbSb.s:2204   .debug_str:00000000000002f5 .LASF101
     /tmp/ccG1LbSb.s:2132   .debug_str:000000000000008c .LASF102
     /tmp/ccG1LbSb.s:5      .text:0000000000000000 .Ltext0
     /tmp/ccG1LbSb.s:347    .text:0000000000000104 .Letext0
     /tmp/ccG1LbSb.s:2108   .debug_line:0000000000000000 .Ldebug_line0
     /tmp/ccG1LbSb.s:2236   .debug_str:00000000000003d1 .LASF0
     /tmp/ccG1LbSb.s:2246   .debug_str:0000000000000414 .LASF1
     /tmp/ccG1LbSb.s:2224   .debug_str:0000000000000379 .LASF2
     /tmp/ccG1LbSb.s:2202   .debug_str:00000000000002ee .LASF4
     /tmp/ccG1LbSb.s:2282   .debug_str:000000000000051e .LASF3
     /tmp/ccG1LbSb.s:2134   .debug_str:00000000000000af .LASF5
     /tmp/ccG1LbSb.s:2250   .debug_str:0000000000000438 .LASF6
     /tmp/ccG1LbSb.s:2234   .debug_str:00000000000003be .LASF7
     /tmp/ccG1LbSb.s:2310   .debug_str:0000000000000698 .LASF8
     /tmp/ccG1LbSb.s:2190   .debug_str:000000000000025e .LASF9
     /tmp/ccG1LbSb.s:2258   .debug_str:000000000000048d .LASF10
     /tmp/ccG1LbSb.s:2308   .debug_str:0000000000000689 .LASF11
     /tmp/ccG1LbSb.s:2138   .debug_str:00000000000000bb .LASF12
     /tmp/ccG1LbSb.s:2116   .debug_str:000000000000002b .LASF13
     /tmp/ccG1LbSb.s:2146   .debug_str:0000000000000105 .LASF14
     /tmp/ccG1LbSb.s:2276   .debug_str:00000000000004ea .LASF15
     /tmp/ccG1LbSb.s:2154   .debug_str:0000000000000144 .LASF16
     /tmp/ccG1LbSb.s:2120   .debug_str:0000000000000044 .LASF103
     /tmp/ccG1LbSb.s:2162   .debug_str:000000000000019e .LASF17
     /tmp/ccG1LbSb.s:2268   .debug_str:00000000000004c9 .LASF19
     /tmp/ccG1LbSb.s:2252   .debug_str:000000000000044b .LASF21
     /tmp/ccG1LbSb.s:2188   .debug_str:0000000000000247 .LASF23
     /tmp/ccG1LbSb.s:2226   .debug_str:0000000000000387 .LASF18
     /tmp/ccG1LbSb.s:2198   .debug_str:00000000000002af .LASF20
     /tmp/ccG1LbSb.s:2220   .debug_str:0000000000000363 .LASF22
     /tmp/ccG1LbSb.s:2130   .debug_str:0000000000000073 .LASF24
     /tmp/ccG1LbSb.s:2212   .debug_str:000000000000031f .LASF25
     /tmp/ccG1LbSb.s:2244   .debug_str:00000000000003f4 .LASF26
     /tmp/ccG1LbSb.s:2270   .debug_str:00000000000004d5 .LASF104
     /tmp/ccG1LbSb.s:2278   .debug_str:0000000000000500 .LASF39
     /tmp/ccG1LbSb.s:2230   .debug_str:000000000000039d .LASF41
     /tmp/ccG1LbSb.s:2168   .debug_str:00000000000001c7 .LASF105
     /tmp/ccG1LbSb.s:2192   .debug_str:000000000000026c .LASF106
     /tmp/ccG1LbSb.s:2206   .debug_str:0000000000000307 .LASF27
     /tmp/ccG1LbSb.s:2324   .debug_str:000000000000070e .LASF28
     /tmp/ccG1LbSb.s:2210   .debug_str:0000000000000317 .LASF29
     /tmp/ccG1LbSb.s:2266   .debug_str:00000000000004be .LASF30
     /tmp/ccG1LbSb.s:2222   .debug_str:0000000000000370 .LASF31
     /tmp/ccG1LbSb.s:2214   .debug_str:000000000000032c .LASF32
     /tmp/ccG1LbSb.s:2196   .debug_str:0000000000000296 .LASF34
     /tmp/ccG1LbSb.s:2316   .debug_str:00000000000006c7 .LASF107
     /tmp/ccG1LbSb.s:2200   .debug_str:00000000000002c6 .LASF108
GAS LISTING /tmp/ccG1LbSb.s 			page 15


     /tmp/ccG1LbSb.s:2240   .debug_str:00000000000003e5 .LASF33
     /tmp/ccG1LbSb.s:2174   .debug_str:00000000000001eb .LASF35
     /tmp/ccG1LbSb.s:2284   .debug_str:0000000000000530 .LASF109
     /tmp/ccG1LbSb.s:2176   .debug_str:00000000000001fe .LASF36
     /tmp/ccG1LbSb.s:2110   .debug_str:0000000000000000 .LASF37
     /tmp/ccG1LbSb.s:2242   .debug_str:00000000000003ee .LASF38
     /tmp/ccG1LbSb.s:2128   .debug_str:0000000000000065 .LASF40
     /tmp/ccG1LbSb.s:2166   .debug_str:00000000000001ac .LASF42
     /tmp/ccG1LbSb.s:2294   .debug_str:0000000000000580 .LASF43
     /tmp/ccG1LbSb.s:2114   .debug_str:0000000000000011 .LASF44
     /tmp/ccG1LbSb.s:2274   .debug_str:00000000000004df .LASF45
     /tmp/ccG1LbSb.s:2322   .debug_str:00000000000006f6 .LASF46
     /tmp/ccG1LbSb.s:2118   .debug_str:000000000000003b .LASF47
     /tmp/ccG1LbSb.s:2292   .debug_str:000000000000056b .LASF49
     /tmp/ccG1LbSb.s:2164   .debug_str:00000000000001a3 .LASF51
     /tmp/ccG1LbSb.s:2150   .debug_str:0000000000000121 .LASF53
     /tmp/ccG1LbSb.s:2286   .debug_str:0000000000000541 .LASF48
     /tmp/ccG1LbSb.s:2264   .debug_str:00000000000004ab .LASF50
     /tmp/ccG1LbSb.s:2304   .debug_str:00000000000005be .LASF52
     /tmp/ccG1LbSb.s:2298   .debug_str:0000000000000594 .LASF54
     /tmp/ccG1LbSb.s:2182   .debug_str:000000000000022b .LASF55
     /tmp/ccG1LbSb.s:2156   .debug_str:000000000000015a .LASF56
     /tmp/ccG1LbSb.s:2112   .debug_str:0000000000000009 .LASF57
     /tmp/ccG1LbSb.s:2288   .debug_str:0000000000000548 .LASF58
     /tmp/ccG1LbSb.s:2170   .debug_str:00000000000001cf .LASF59
     /tmp/ccG1LbSb.s:2140   .debug_str:00000000000000cb .LASF60
     /tmp/ccG1LbSb.s:2328   .debug_str:000000000000071f .LASF61
     /tmp/ccG1LbSb.s:2172   .debug_str:00000000000001d7 .LASF62
     /tmp/ccG1LbSb.s:2238   .debug_str:00000000000003de .LASF63
     /tmp/ccG1LbSb.s:2318   .debug_str:00000000000006d5 .LASF64
     /tmp/ccG1LbSb.s:2126   .debug_str:000000000000005e .LASF65
     /tmp/ccG1LbSb.s:2180   .debug_str:0000000000000218 .LASF66
     /tmp/ccG1LbSb.s:2186   .debug_str:0000000000000241 .LASF67
     /tmp/ccG1LbSb.s:2302   .debug_str:00000000000005ac .LASF68
     /tmp/ccG1LbSb.s:2124   .debug_str:0000000000000058 .LASF69
     /tmp/ccG1LbSb.s:2330   .debug_str:0000000000000727 .LASF70
     /tmp/ccG1LbSb.s:2326   .debug_str:0000000000000714 .LASF71
     /tmp/ccG1LbSb.s:2280   .debug_str:0000000000000506 .LASF72
     /tmp/ccG1LbSb.s:2208   .debug_str:000000000000030c .LASF73
     /tmp/ccG1LbSb.s:2216   .debug_str:000000000000033a .LASF74
     /tmp/ccG1LbSb.s:2144   .debug_str:00000000000000fb .LASF75
     /tmp/ccG1LbSb.s:2254   .debug_str:0000000000000456 .LASF76
     /tmp/ccG1LbSb.s:2228   .debug_str:0000000000000393 .LASF77
     /tmp/ccG1LbSb.s:2194   .debug_str:0000000000000280 .LASF78
     /tmp/ccG1LbSb.s:2290   .debug_str:000000000000055c .LASF79
     /tmp/ccG1LbSb.s:2142   .debug_str:00000000000000df .LASF80
     /tmp/ccG1LbSb.s:2300   .debug_str:00000000000005a7 .LASF81
     /tmp/ccG1LbSb.s:2218   .debug_str:0000000000000352 .LASF82
     /tmp/ccG1LbSb.s:2136   .debug_str:00000000000000b6 .LASF83
     /tmp/ccG1LbSb.s:2232   .debug_str:00000000000003ad .LASF84
     /tmp/ccG1LbSb.s:2314   .debug_str:00000000000006b2 .LASF85
     /tmp/ccG1LbSb.s:2160   .debug_str:000000000000017c .LASF86
     /tmp/ccG1LbSb.s:2148   .debug_str:0000000000000111 .LASF87
     /tmp/ccG1LbSb.s:2178   .debug_str:0000000000000203 .LASF88
     /tmp/ccG1LbSb.s:306    .text:00000000000000e0 .LFB46
     /tmp/ccG1LbSb.s:345    .text:0000000000000104 .LFE46
     /tmp/ccG1LbSb.s:317    .text:00000000000000ec .LBB36
GAS LISTING /tmp/ccG1LbSb.s 			page 16


     /tmp/ccG1LbSb.s:329    .text:00000000000000f4 .LBE36
     /tmp/ccG1LbSb.s:2013   .debug_loc:0000000000000000 .LLST7
     /tmp/ccG1LbSb.s:2122   .debug_str:000000000000004c .LASF89
     /tmp/ccG1LbSb.s:2248   .debug_str:0000000000000427 .LASF91
     /tmp/ccG1LbSb.s:241    .text:00000000000000ac .LFB45
     /tmp/ccG1LbSb.s:300    .text:00000000000000e0 .LFE45
     /tmp/ccG1LbSb.s:252    .text:00000000000000b8 .LBB32
     /tmp/ccG1LbSb.s:264    .text:00000000000000c0 .LBE32
     /tmp/ccG1LbSb.s:2021   .debug_loc:0000000000000024 .LLST6
     /tmp/ccG1LbSb.s:273    .text:00000000000000c4 .LBB34
     /tmp/ccG1LbSb.s:289    .text:00000000000000d0 .LBE34
     /tmp/ccG1LbSb.s:2158   .debug_str:000000000000016e .LASF90
     /tmp/ccG1LbSb.s:2256   .debug_str:000000000000046c .LASF92
     /tmp/ccG1LbSb.s:158    .text:000000000000006c .LFB44
     /tmp/ccG1LbSb.s:235    .text:00000000000000ac .LFE44
     /tmp/ccG1LbSb.s:2296   .debug_str:000000000000058d .LASF93
     /tmp/ccG1LbSb.s:2029   .debug_loc:0000000000000048 .LLST4
     /tmp/ccG1LbSb.s:2184   .debug_str:0000000000000233 .LASF94
     /tmp/ccG1LbSb.s:187    .text:0000000000000084 .LBB28
     /tmp/ccG1LbSb.s:199    .text:000000000000008c .LBE28
     /tmp/ccG1LbSb.s:2043   .debug_loc:0000000000000081 .LLST5
     /tmp/ccG1LbSb.s:208    .text:0000000000000090 .LBB30
     /tmp/ccG1LbSb.s:224    .text:000000000000009c .LBE30
     /tmp/ccG1LbSb.s:2262   .debug_str:00000000000004a2 .LASF95
     /tmp/ccG1LbSb.s:2320   .debug_str:00000000000006e8 .LASF96
     /tmp/ccG1LbSb.s:85     .text:0000000000000034 .LFB43
     /tmp/ccG1LbSb.s:152    .text:000000000000006c .LFE43
     /tmp/ccG1LbSb.s:2051   .debug_loc:00000000000000a5 .LLST2
     /tmp/ccG1LbSb.s:104    .text:0000000000000044 .LBB24
     /tmp/ccG1LbSb.s:116    .text:000000000000004c .LBE24
     /tmp/ccG1LbSb.s:2065   .debug_loc:00000000000000de .LLST3
     /tmp/ccG1LbSb.s:125    .text:0000000000000050 .LBB26
     /tmp/ccG1LbSb.s:141    .text:000000000000005c .LBE26
     /tmp/ccG1LbSb.s:2312   .debug_str:00000000000006a8 .LASF97
     /tmp/ccG1LbSb.s:2152   .debug_str:0000000000000136 .LASF98
     /tmp/ccG1LbSb.s:10     .text:0000000000000000 .LFB42
     /tmp/ccG1LbSb.s:79     .text:0000000000000034 .LFE42
     /tmp/ccG1LbSb.s:2272   .debug_str:00000000000004da .LASF99
     /tmp/ccG1LbSb.s:2073   .debug_loc:0000000000000102 .LLST0
     /tmp/ccG1LbSb.s:30     .text:0000000000000010 .LBB20
     /tmp/ccG1LbSb.s:43     .text:0000000000000018 .LBE20
     /tmp/ccG1LbSb.s:2087   .debug_loc:000000000000013b .LLST1
     /tmp/ccG1LbSb.s:53     .text:000000000000001c .LBB22
     /tmp/ccG1LbSb.s:69     .text:0000000000000028 .LBE22
     /tmp/ccG1LbSb.s:2260   .debug_str:000000000000049c .LASF110
     /tmp/ccG1LbSb.s:316    .text:00000000000000ec .LVL15
     /tmp/ccG1LbSb.s:326    .text:00000000000000f4 .LVL16
     /tmp/ccG1LbSb.s:251    .text:00000000000000b8 .LVL12
     /tmp/ccG1LbSb.s:261    .text:00000000000000c0 .LVL13
     /tmp/ccG1LbSb.s:161    .text:000000000000006c .LVL8
     /tmp/ccG1LbSb.s:222    .text:000000000000009c .LVL11
     /tmp/ccG1LbSb.s:185    .text:0000000000000084 .LVL9
     /tmp/ccG1LbSb.s:196    .text:000000000000008c .LVL10
     /tmp/ccG1LbSb.s:88     .text:0000000000000034 .LVL4
     /tmp/ccG1LbSb.s:139    .text:000000000000005c .LVL7
     /tmp/ccG1LbSb.s:102    .text:0000000000000044 .LVL5
     /tmp/ccG1LbSb.s:113    .text:000000000000004c .LVL6
GAS LISTING /tmp/ccG1LbSb.s 			page 17


     /tmp/ccG1LbSb.s:14     .text:0000000000000000 .LVL0
     /tmp/ccG1LbSb.s:67     .text:0000000000000028 .LVL3
     /tmp/ccG1LbSb.s:28     .text:0000000000000010 .LVL1
     /tmp/ccG1LbSb.s:40     .text:0000000000000018 .LVL2
     /tmp/ccG1LbSb.s:352    .debug_info:0000000000000000 .Ldebug_info0

NO UNDEFINED SYMBOLS
