GAS LISTING /tmp/ccIupz92.s 			page 1


   1              		.file	"syscall_c.cpp"
   2              		.option pic
   3              		.option norelax
   4              		.text
   5              	.Ltext0:
   6              		.align	2
   7              		.globl	_Z9mem_allocm
   9              	_Z9mem_allocm:
  10              	.LFB54:
  11              		.file 1 "src/syscall_c.cpp"
   1:src/syscall_c.cpp **** #include "../h/syscall_c.hpp"
   2:src/syscall_c.cpp **** #include "../lib/hw.h"
   3:src/syscall_c.cpp **** #include "../h/riscv.hpp"
   4:src/syscall_c.cpp **** 
   5:src/syscall_c.cpp **** void* mem_alloc(size_t size) {
  12              		.loc 1 5 30
  13              		.cfi_startproc
  14              	.LVL0:
  15 0000 130101FE 		addi	sp,sp,-32
  16              		.cfi_def_cfa_offset 32
  17 0004 233C8100 		sd	s0,24(sp)
  18              		.cfi_offset 8, -8
  19 0008 13040102 		addi	s0,sp,32
  20              		.cfi_def_cfa 8, 0
   6:src/syscall_c.cpp **** 
   7:src/syscall_c.cpp ****     __asm__ volatile("mv a1, %0" : : "r"(size));
  21              		.loc 1 7 5
  22              		.loc 1 7 48 is_stmt 0
  23              	#APP
  24              	# 7 "src/syscall_c.cpp" 1
   8              	    Riscv::w_a0(0x01);
  25              		mv a1, a0
  26              	# 0 "" 2
  27              		.loc 1 8 5 is_stmt 1
  28              	.LVL1:
  29              	#NO_APP
  30              	.LBB56:
  31              	.LBB57:
  32              		.file 2 "src/../h/riscv.hpp"
   1:src/../h/riscv.hpp **** #ifndef RISCV_H
   2:src/../h/riscv.hpp **** #define RISCV_H
   3:src/../h/riscv.hpp **** 
   4:src/../h/riscv.hpp **** #include "../lib/hw.h"
   5:src/../h/riscv.hpp **** 
   6:src/../h/riscv.hpp **** class Riscv {
   7:src/../h/riscv.hpp **** public:
   8:src/../h/riscv.hpp ****     static int ERROR;
   9:src/../h/riscv.hpp **** 
  10:src/../h/riscv.hpp ****     // Stavljanje/skidanje registara x3,...,x31 na stek/sa steka
  11:src/../h/riscv.hpp ****     static void pushRegisters();
  12:src/../h/riscv.hpp ****     static void popRegisters();
  13:src/../h/riscv.hpp **** 
  14:src/../h/riscv.hpp ****     // Uzimanje vrednosti sstatus.spp i sstatus.spie bita (nije inline funkcija)
  15:src/../h/riscv.hpp ****     static void popSppSpie();
  16:src/../h/riscv.hpp **** 
  17:src/../h/riscv.hpp ****     // Citanje vrednosti registra scause
  18:src/../h/riscv.hpp ****     static uint64 r_scause();
GAS LISTING /tmp/ccIupz92.s 			page 2


  19:src/../h/riscv.hpp **** 
  20:src/../h/riscv.hpp ****     // Upisivanje u registar scause
  21:src/../h/riscv.hpp ****     static void w_scause(uint64 scause);
  22:src/../h/riscv.hpp **** 
  23:src/../h/riscv.hpp ****     // Citanje registra sepc
  24:src/../h/riscv.hpp ****     static uint64 r_sepc();
  25:src/../h/riscv.hpp **** 
  26:src/../h/riscv.hpp ****     // Upisivanje u registar sepc
  27:src/../h/riscv.hpp ****     static void w_sepc(uint64 sepc);
  28:src/../h/riscv.hpp **** 
  29:src/../h/riscv.hpp ****     // Citanje registra stvec
  30:src/../h/riscv.hpp ****     static uint64 r_stvec();
  31:src/../h/riscv.hpp **** 
  32:src/../h/riscv.hpp ****     // Upisivanje u registar stvec
  33:src/../h/riscv.hpp ****     static void w_stvec(uint64 stvec);
  34:src/../h/riscv.hpp **** 
  35:src/../h/riscv.hpp ****     // Citanje registra stval
  36:src/../h/riscv.hpp ****     static uint64 r_stval();
  37:src/../h/riscv.hpp **** 
  38:src/../h/riscv.hpp ****     // Upisivanje u registar stval
  39:src/../h/riscv.hpp ****     static void w_stval(uint64 stval);
  40:src/../h/riscv.hpp **** 
  41:src/../h/riscv.hpp ****     enum BitMaskSip {
  42:src/../h/riscv.hpp ****         SIP_SSIP = (1 << 1),
  43:src/../h/riscv.hpp ****         SIP_STIP = (1 << 5),
  44:src/../h/riscv.hpp ****         SIP_SEIP = (1 << 9)
  45:src/../h/riscv.hpp ****     };
  46:src/../h/riscv.hpp **** 
  47:src/../h/riscv.hpp ****     // Postavi masku za registar sip
  48:src/../h/riscv.hpp ****     static void ms_sip(uint64 mask);
  49:src/../h/riscv.hpp **** 
  50:src/../h/riscv.hpp ****     // Obrisi masku iz registra sip
  51:src/../h/riscv.hpp ****     static void mc_sip(uint64 mask);
  52:src/../h/riscv.hpp **** 
  53:src/../h/riscv.hpp ****     // Citanje registra sip
  54:src/../h/riscv.hpp ****     static uint64 r_sip();
  55:src/../h/riscv.hpp **** 
  56:src/../h/riscv.hpp ****     // Upisivanje u registar sip
  57:src/../h/riscv.hpp ****     static void w_sip(uint64 sip);
  58:src/../h/riscv.hpp **** 
  59:src/../h/riscv.hpp ****     enum BitMaskSstatus {
  60:src/../h/riscv.hpp ****         SSTATUS_SIE = (1 << 1),
  61:src/../h/riscv.hpp ****         SSTATUS_SPIE = (1 << 5),
  62:src/../h/riscv.hpp ****         SSTATUS_SPP = (1 << 8),
  63:src/../h/riscv.hpp ****     };
  64:src/../h/riscv.hpp **** 
  65:src/../h/riscv.hpp ****     // Postavi masku za registar sstatus
  66:src/../h/riscv.hpp ****     static void ms_sstatus(uint64 mask);
  67:src/../h/riscv.hpp **** 
  68:src/../h/riscv.hpp ****     // Obrisi masku iz registra sstatus
  69:src/../h/riscv.hpp ****     static void mc_sstatus(uint64 mask);
  70:src/../h/riscv.hpp **** 
  71:src/../h/riscv.hpp ****     // Citanje registra sstatus
  72:src/../h/riscv.hpp ****     static uint64 r_sstatus();
  73:src/../h/riscv.hpp **** 
  74:src/../h/riscv.hpp ****     // Upisivanje u registar sstatus
  75:src/../h/riscv.hpp ****     static void w_sstatus(uint64 sstatus);
GAS LISTING /tmp/ccIupz92.s 			page 3


  76:src/../h/riscv.hpp **** 
  77:src/../h/riscv.hpp ****     // Supervizorska prekidna rutina
  78:src/../h/riscv.hpp ****     static void supervisorTrap();
  79:src/../h/riscv.hpp **** 
  80:src/../h/riscv.hpp ****     // Citanje registra a0
  81:src/../h/riscv.hpp ****     static uint64 r_a0();
  82:src/../h/riscv.hpp **** 
  83:src/../h/riscv.hpp ****     // Upisivanje u registar a0
  84:src/../h/riscv.hpp ****     static void w_a0(uint64 value);
  85:src/../h/riscv.hpp **** 
  86:src/../h/riscv.hpp ****     static void exitEmulator();
  87:src/../h/riscv.hpp **** 
  88:src/../h/riscv.hpp **** private:
  89:src/../h/riscv.hpp ****     // Rukovalac prekidnom rutinom
  90:src/../h/riscv.hpp ****     static void handleSupervisorTrap();
  91:src/../h/riscv.hpp **** };
  92:src/../h/riscv.hpp **** 
  93:src/../h/riscv.hpp **** inline uint64 Riscv::r_scause() {
  94:src/../h/riscv.hpp ****     uint64 volatile scause;
  95:src/../h/riscv.hpp ****     __asm__ volatile("csrr %0, scause" : "=r"(scause));
  96:src/../h/riscv.hpp ****     return scause;
  97:src/../h/riscv.hpp **** }
  98:src/../h/riscv.hpp **** 
  99:src/../h/riscv.hpp **** inline void Riscv::w_scause(uint64 scause) {
 100:src/../h/riscv.hpp ****     __asm__ volatile("csrw scause, %0" : : "r"(scause));
 101:src/../h/riscv.hpp **** }
 102:src/../h/riscv.hpp **** 
 103:src/../h/riscv.hpp **** inline uint64 Riscv::r_sepc() {
 104:src/../h/riscv.hpp ****     uint64 volatile sepc;
 105:src/../h/riscv.hpp ****     __asm__ volatile("csrr %0, sepc" : "=r"(sepc));
 106:src/../h/riscv.hpp ****     return sepc;
 107:src/../h/riscv.hpp **** }
 108:src/../h/riscv.hpp **** 
 109:src/../h/riscv.hpp **** inline void Riscv::w_sepc(uint64 sepc) {
 110:src/../h/riscv.hpp ****     __asm__ volatile("csrw sepc, %0" : : "r"(sepc));
 111:src/../h/riscv.hpp **** }
 112:src/../h/riscv.hpp **** 
 113:src/../h/riscv.hpp **** inline uint64 Riscv::r_stvec() {
 114:src/../h/riscv.hpp ****     uint64 volatile stvec;
 115:src/../h/riscv.hpp ****     __asm__ volatile("csrr %0, stvec" : "=r"(stvec));
 116:src/../h/riscv.hpp ****     return stvec;
 117:src/../h/riscv.hpp **** }
 118:src/../h/riscv.hpp **** 
 119:src/../h/riscv.hpp **** inline void Riscv::w_stvec(uint64 stvec) {
 120:src/../h/riscv.hpp ****     __asm__ volatile("csrw stvec, %0" : : "r"(stvec));
 121:src/../h/riscv.hpp **** }
 122:src/../h/riscv.hpp **** 
 123:src/../h/riscv.hpp **** inline uint64 Riscv::r_stval() {
 124:src/../h/riscv.hpp ****     uint64 volatile stval;
 125:src/../h/riscv.hpp ****     __asm__ volatile("csrr %0, stval" : "=r"(stval));
 126:src/../h/riscv.hpp ****     return stval;
 127:src/../h/riscv.hpp **** }
 128:src/../h/riscv.hpp **** 
 129:src/../h/riscv.hpp **** inline void Riscv::w_stval(uint64 stval) {
 130:src/../h/riscv.hpp ****     __asm__ volatile("csrw stval, %0" : : "r"(stval));
 131:src/../h/riscv.hpp **** }
 132:src/../h/riscv.hpp **** 
GAS LISTING /tmp/ccIupz92.s 			page 4


 133:src/../h/riscv.hpp **** inline void Riscv::ms_sip(uint64 mask) {
 134:src/../h/riscv.hpp ****     __asm__ volatile("csrs sip, %0" : : "r"(mask));
 135:src/../h/riscv.hpp **** }
 136:src/../h/riscv.hpp **** 
 137:src/../h/riscv.hpp **** inline void Riscv::mc_sip(uint64 mask) {
 138:src/../h/riscv.hpp ****     __asm__ volatile("csrc sip, %0" : : "r"(mask));
 139:src/../h/riscv.hpp **** }
 140:src/../h/riscv.hpp **** 
 141:src/../h/riscv.hpp **** inline uint64 Riscv::r_sip() {
 142:src/../h/riscv.hpp ****     uint64 volatile sip;
 143:src/../h/riscv.hpp ****     __asm__ volatile("csrr %0, sip" : "=r"(sip));
 144:src/../h/riscv.hpp ****     return sip;
 145:src/../h/riscv.hpp **** }
 146:src/../h/riscv.hpp **** 
 147:src/../h/riscv.hpp **** inline void Riscv::w_sip(uint64 sip) {
 148:src/../h/riscv.hpp ****     __asm__ volatile("csrc sip, %0" : : "r"(sip));
 149:src/../h/riscv.hpp **** }
 150:src/../h/riscv.hpp **** 
 151:src/../h/riscv.hpp **** inline void Riscv::ms_sstatus(uint64 mask) {
 152:src/../h/riscv.hpp ****     __asm__ volatile("csrs sstatus, %0" : : "r"(mask));
 153:src/../h/riscv.hpp **** }
 154:src/../h/riscv.hpp **** 
 155:src/../h/riscv.hpp **** inline void Riscv::mc_sstatus(uint64 mask) {
 156:src/../h/riscv.hpp ****     __asm__ volatile("csrc sstatus, %0" : : "r"(mask));
 157:src/../h/riscv.hpp **** }
 158:src/../h/riscv.hpp **** 
 159:src/../h/riscv.hpp **** inline uint64 Riscv::r_sstatus() {
 160:src/../h/riscv.hpp ****     uint64 volatile sstatus;
 161:src/../h/riscv.hpp ****     __asm__ volatile("csrr %0, sstatus" : "=r"(sstatus));
 162:src/../h/riscv.hpp ****     return sstatus;
 163:src/../h/riscv.hpp **** }
 164:src/../h/riscv.hpp **** 
 165:src/../h/riscv.hpp **** inline void Riscv::w_sstatus(uint64 sstatus) {
 166:src/../h/riscv.hpp ****     __asm__ volatile("csrc sstatus, %0" : : "r"(sstatus));
 167:src/../h/riscv.hpp **** }
 168:src/../h/riscv.hpp **** 
 169:src/../h/riscv.hpp **** inline uint64 Riscv::r_a0() {
 170:src/../h/riscv.hpp ****     uint64 volatile a0;
 171:src/../h/riscv.hpp ****     __asm__ volatile("mv %0, a0" : "=r"(a0));
 172:src/../h/riscv.hpp ****     return a0;
 173:src/../h/riscv.hpp **** }
 174:src/../h/riscv.hpp **** 
 175:src/../h/riscv.hpp **** inline void Riscv::w_a0(uint64 value) {
 176:src/../h/riscv.hpp ****     __asm__ volatile("mv a0, %0" : : "r"(value));
  33              		.loc 2 176 5
  34              		.loc 2 176 49 is_stmt 0
  35 0010 93071000 		li	a5,1
  36              	#APP
  37              	# 176 "src/../h/riscv.hpp" 1
 177              	}
  38              		mv a0, a5
  39              	# 0 "" 2
  40              	.LVL2:
  41              	#NO_APP
  42              	.LBE57:
  43              	.LBE56:
   9:src/syscall_c.cpp ****     __asm__ volatile("ecall");
GAS LISTING /tmp/ccIupz92.s 			page 5


  44              		.loc 1 9 5 is_stmt 1
  45              		.loc 1 9 30 is_stmt 0
  46              	#APP
  47              	# 9 "src/syscall_c.cpp" 1
  10              	
  11:src/syscall_c.cpp ****     void* ret;
  48              		ecall
  49              	# 0 "" 2
  50              		.loc 1 11 5 is_stmt 1
  12:src/syscall_c.cpp ****     ret = (void*) Riscv::r_a0();
  51              		.loc 1 12 5
  52              	#NO_APP
  53              	.LBB58:
  54              	.LBB59:
 170:src/../h/riscv.hpp ****     __asm__ volatile("mv %0, a0" : "=r"(a0));
  55              		.loc 2 170 5
 171:src/../h/riscv.hpp ****     return a0;
  56              		.loc 2 171 5
 171:src/../h/riscv.hpp ****     return a0;
  57              		.loc 2 171 45 is_stmt 0
  58              	#APP
  59              	# 171 "src/../h/riscv.hpp" 1
  60              		mv a5, a0
  61              	# 0 "" 2
  62              	#NO_APP
  63 0020 2334F4FE 		sd	a5,-24(s0)
 172:src/../h/riscv.hpp **** }
  64              		.loc 2 172 5 is_stmt 1
 172:src/../h/riscv.hpp **** }
  65              		.loc 2 172 12 is_stmt 0
  66 0024 033584FE 		ld	a0,-24(s0)
  67              	.LVL3:
  68              	.LBE59:
  69              	.LBE58:
  13:src/syscall_c.cpp ****     return ret;
  70              		.loc 1 13 5 is_stmt 1
  14:src/syscall_c.cpp **** }
  71              		.loc 1 14 1 is_stmt 0
  72 0028 03348101 		ld	s0,24(sp)
  73              		.cfi_restore 8
  74              		.cfi_def_cfa 2, 32
  75 002c 13010102 		addi	sp,sp,32
  76              		.cfi_def_cfa_offset 0
  77 0030 67800000 		jr	ra
  78              		.cfi_endproc
  79              	.LFE54:
  81              		.align	2
  82              		.globl	_Z8mem_freePv
  84              	_Z8mem_freePv:
  85              	.LFB55:
  15:src/syscall_c.cpp **** 
  16:src/syscall_c.cpp **** int mem_free(void* ptr) {
  86              		.loc 1 16 25 is_stmt 1
  87              		.cfi_startproc
  88              	.LVL4:
  89 0034 130101FE 		addi	sp,sp,-32
  90              		.cfi_def_cfa_offset 32
GAS LISTING /tmp/ccIupz92.s 			page 6


  91 0038 233C8100 		sd	s0,24(sp)
  92              		.cfi_offset 8, -8
  93 003c 13040102 		addi	s0,sp,32
  94              		.cfi_def_cfa 8, 0
  17:src/syscall_c.cpp ****     __asm__ volatile("mv a1, %0" : : "r"(ptr));
  95              		.loc 1 17 5
  96              		.loc 1 17 47 is_stmt 0
  97              	#APP
  98              	# 17 "src/syscall_c.cpp" 1
  18              	    Riscv::w_a0(0x02);
  99              		mv a1, a0
 100              	# 0 "" 2
 101              		.loc 1 18 5 is_stmt 1
 102              	.LVL5:
 103              	#NO_APP
 104              	.LBB60:
 105              	.LBB61:
 176:src/../h/riscv.hpp **** }
 106              		.loc 2 176 5
 176:src/../h/riscv.hpp **** }
 107              		.loc 2 176 49 is_stmt 0
 108 0044 93072000 		li	a5,2
 109              	#APP
 110              	# 176 "src/../h/riscv.hpp" 1
 111              		mv a0, a5
 112              	# 0 "" 2
 113              	.LVL6:
 114              	#NO_APP
 115              	.LBE61:
 116              	.LBE60:
  19:src/syscall_c.cpp ****     __asm__ volatile("ecall");
 117              		.loc 1 19 5 is_stmt 1
 118              		.loc 1 19 30 is_stmt 0
 119              	#APP
 120              	# 19 "src/syscall_c.cpp" 1
  20              	
  21:src/syscall_c.cpp ****     int ret = (int) Riscv::r_a0();
 121              		ecall
 122              	# 0 "" 2
 123              		.loc 1 21 5 is_stmt 1
 124              	#NO_APP
 125              	.LBB62:
 126              	.LBB63:
 170:src/../h/riscv.hpp ****     __asm__ volatile("mv %0, a0" : "=r"(a0));
 127              		.loc 2 170 5
 171:src/../h/riscv.hpp ****     return a0;
 128              		.loc 2 171 5
 171:src/../h/riscv.hpp ****     return a0;
 129              		.loc 2 171 45 is_stmt 0
 130              	#APP
 131              	# 171 "src/../h/riscv.hpp" 1
 132              		mv a5, a0
 133              	# 0 "" 2
 134              	#NO_APP
 135 0054 2334F4FE 		sd	a5,-24(s0)
 172:src/../h/riscv.hpp **** }
 136              		.loc 2 172 5 is_stmt 1
GAS LISTING /tmp/ccIupz92.s 			page 7


 172:src/../h/riscv.hpp **** }
 137              		.loc 2 172 12 is_stmt 0
 138 0058 033584FE 		ld	a0,-24(s0)
 139              	.LVL7:
 140              	.LBE63:
 141              	.LBE62:
  22:src/syscall_c.cpp ****     return ret;
 142              		.loc 1 22 5 is_stmt 1
  23:src/syscall_c.cpp **** }
 143              		.loc 1 23 1 is_stmt 0
 144 005c 1B050500 		sext.w	a0,a0
 145 0060 03348101 		ld	s0,24(sp)
 146              		.cfi_restore 8
 147              		.cfi_def_cfa 2, 32
 148 0064 13010102 		addi	sp,sp,32
 149              		.cfi_def_cfa_offset 0
 150 0068 67800000 		jr	ra
 151              		.cfi_endproc
 152              	.LFE55:
 154              		.align	2
 155              		.globl	_Z13thread_createPP3TCBPFvPvES2_
 157              	_Z13thread_createPP3TCBPFvPvES2_:
 158              	.LFB56:
  24:src/syscall_c.cpp **** 
  25:src/syscall_c.cpp **** int thread_create(thread_t* handle, void (*start_routine)(void*), void* arg) {
 159              		.loc 1 25 78 is_stmt 1
 160              		.cfi_startproc
 161              	.LVL8:
 162 006c 130101FE 		addi	sp,sp,-32
 163              		.cfi_def_cfa_offset 32
 164 0070 233C8100 		sd	s0,24(sp)
 165              		.cfi_offset 8, -8
 166 0074 13040102 		addi	s0,sp,32
 167              		.cfi_def_cfa 8, 0
  26:src/syscall_c.cpp ****     __asm__ volatile("mv a7, %0" : : "r"(arg));
 168              		.loc 1 26 5
 169              		.loc 1 26 47 is_stmt 0
 170              	#APP
 171              	# 26 "src/syscall_c.cpp" 1
  27              	    __asm__ volatile("mv a2, %0" : : "r"(start_routine));
 172              		mv a7, a2
 173              	# 0 "" 2
 174              		.loc 1 27 5 is_stmt 1
 175              		.loc 1 27 57 is_stmt 0
 176              	# 27 "src/syscall_c.cpp" 1
  28              	    __asm__ volatile("mv a1, %0" : : "r"(handle));
 177              		mv a2, a1
 178              	# 0 "" 2
 179              		.loc 1 28 5 is_stmt 1
 180              		.loc 1 28 50 is_stmt 0
 181              	# 28 "src/syscall_c.cpp" 1
  29              	    Riscv::w_a0(0x11);
 182              		mv a1, a0
 183              	# 0 "" 2
 184              		.loc 1 29 5 is_stmt 1
 185              	.LVL9:
 186              	#NO_APP
GAS LISTING /tmp/ccIupz92.s 			page 8


 187              	.LBB64:
 188              	.LBB65:
 176:src/../h/riscv.hpp **** }
 189              		.loc 2 176 5
 176:src/../h/riscv.hpp **** }
 190              		.loc 2 176 49 is_stmt 0
 191 0084 93071001 		li	a5,17
 192              	#APP
 193              	# 176 "src/../h/riscv.hpp" 1
 194              		mv a0, a5
 195              	# 0 "" 2
 196              	.LVL10:
 197              	#NO_APP
 198              	.LBE65:
 199              	.LBE64:
  30:src/syscall_c.cpp **** 
  31:src/syscall_c.cpp ****     __asm__ volatile("ecall");
 200              		.loc 1 31 5 is_stmt 1
 201              		.loc 1 31 30 is_stmt 0
 202              	#APP
 203              	# 31 "src/syscall_c.cpp" 1
  32              	
  33:src/syscall_c.cpp ****     int ret = (int) Riscv::r_a0();
 204              		ecall
 205              	# 0 "" 2
 206              		.loc 1 33 5 is_stmt 1
 207              	#NO_APP
 208              	.LBB66:
 209              	.LBB67:
 170:src/../h/riscv.hpp ****     __asm__ volatile("mv %0, a0" : "=r"(a0));
 210              		.loc 2 170 5
 171:src/../h/riscv.hpp ****     return a0;
 211              		.loc 2 171 5
 171:src/../h/riscv.hpp ****     return a0;
 212              		.loc 2 171 45 is_stmt 0
 213              	#APP
 214              	# 171 "src/../h/riscv.hpp" 1
 215              		mv a5, a0
 216              	# 0 "" 2
 217              	#NO_APP
 218 0094 2334F4FE 		sd	a5,-24(s0)
 172:src/../h/riscv.hpp **** }
 219              		.loc 2 172 5 is_stmt 1
 172:src/../h/riscv.hpp **** }
 220              		.loc 2 172 12 is_stmt 0
 221 0098 033584FE 		ld	a0,-24(s0)
 222              	.LVL11:
 223              	.LBE67:
 224              	.LBE66:
  34:src/syscall_c.cpp ****     return ret;
 225              		.loc 1 34 5 is_stmt 1
  35:src/syscall_c.cpp **** }
 226              		.loc 1 35 1 is_stmt 0
 227 009c 1B050500 		sext.w	a0,a0
 228 00a0 03348101 		ld	s0,24(sp)
 229              		.cfi_restore 8
 230              		.cfi_def_cfa 2, 32
GAS LISTING /tmp/ccIupz92.s 			page 9


 231 00a4 13010102 		addi	sp,sp,32
 232              		.cfi_def_cfa_offset 0
 233 00a8 67800000 		jr	ra
 234              		.cfi_endproc
 235              	.LFE56:
 237              		.align	2
 238              		.globl	_Z11thread_exitv
 240              	_Z11thread_exitv:
 241              	.LFB57:
  36:src/syscall_c.cpp **** 
  37:src/syscall_c.cpp **** int thread_exit() {
 242              		.loc 1 37 19 is_stmt 1
 243              		.cfi_startproc
 244 00ac 130101FE 		addi	sp,sp,-32
 245              		.cfi_def_cfa_offset 32
 246 00b0 233C8100 		sd	s0,24(sp)
 247              		.cfi_offset 8, -8
 248 00b4 13040102 		addi	s0,sp,32
 249              		.cfi_def_cfa 8, 0
  38:src/syscall_c.cpp ****     Riscv::w_a0(0x12);
 250              		.loc 1 38 5
 251              	.LVL12:
 252              	.LBB68:
 253              	.LBB69:
 176:src/../h/riscv.hpp **** }
 254              		.loc 2 176 5
 176:src/../h/riscv.hpp **** }
 255              		.loc 2 176 49 is_stmt 0
 256 00b8 93072001 		li	a5,18
 257              	#APP
 258              	# 176 "src/../h/riscv.hpp" 1
 259              		mv a0, a5
 260              	# 0 "" 2
 261              	.LVL13:
 262              	#NO_APP
 263              	.LBE69:
 264              	.LBE68:
  39:src/syscall_c.cpp ****     __asm__ volatile("ecall");
 265              		.loc 1 39 5 is_stmt 1
 266              		.loc 1 39 30 is_stmt 0
 267              	#APP
 268              	# 39 "src/syscall_c.cpp" 1
  40              	
  41:src/syscall_c.cpp ****     int ret = (int) Riscv::r_a0();
 269              		ecall
 270              	# 0 "" 2
 271              		.loc 1 41 5 is_stmt 1
 272              	#NO_APP
 273              	.LBB70:
 274              	.LBB71:
 170:src/../h/riscv.hpp ****     __asm__ volatile("mv %0, a0" : "=r"(a0));
 275              		.loc 2 170 5
 171:src/../h/riscv.hpp ****     return a0;
 276              		.loc 2 171 5
 171:src/../h/riscv.hpp ****     return a0;
 277              		.loc 2 171 45 is_stmt 0
 278              	#APP
GAS LISTING /tmp/ccIupz92.s 			page 10


 279              	# 171 "src/../h/riscv.hpp" 1
 280              		mv a5, a0
 281              	# 0 "" 2
 282              	#NO_APP
 283 00c8 2334F4FE 		sd	a5,-24(s0)
 172:src/../h/riscv.hpp **** }
 284              		.loc 2 172 5 is_stmt 1
 172:src/../h/riscv.hpp **** }
 285              		.loc 2 172 12 is_stmt 0
 286 00cc 033584FE 		ld	a0,-24(s0)
 287              	.LVL14:
 288              	.LBE71:
 289              	.LBE70:
  42:src/syscall_c.cpp ****     return ret;
 290              		.loc 1 42 5 is_stmt 1
  43:src/syscall_c.cpp **** }
 291              		.loc 1 43 1 is_stmt 0
 292 00d0 1B050500 		sext.w	a0,a0
 293 00d4 03348101 		ld	s0,24(sp)
 294              		.cfi_restore 8
 295              		.cfi_def_cfa 2, 32
 296 00d8 13010102 		addi	sp,sp,32
 297              		.cfi_def_cfa_offset 0
 298 00dc 67800000 		jr	ra
 299              		.cfi_endproc
 300              	.LFE57:
 302              		.align	2
 303              		.globl	_Z15thread_dispatchv
 305              	_Z15thread_dispatchv:
 306              	.LFB58:
  44:src/syscall_c.cpp **** 
  45:src/syscall_c.cpp **** 
  46:src/syscall_c.cpp **** void thread_dispatch() {
 307              		.loc 1 46 24 is_stmt 1
 308              		.cfi_startproc
 309 00e0 130101FF 		addi	sp,sp,-16
 310              		.cfi_def_cfa_offset 16
 311 00e4 23348100 		sd	s0,8(sp)
 312              		.cfi_offset 8, -8
 313 00e8 13040101 		addi	s0,sp,16
 314              		.cfi_def_cfa 8, 0
  47:src/syscall_c.cpp ****     Riscv::w_a0(0x13);
 315              		.loc 1 47 5
 316              	.LVL15:
 317              	.LBB72:
 318              	.LBB73:
 176:src/../h/riscv.hpp **** }
 319              		.loc 2 176 5
 176:src/../h/riscv.hpp **** }
 320              		.loc 2 176 49 is_stmt 0
 321 00ec 93073001 		li	a5,19
 322              	#APP
 323              	# 176 "src/../h/riscv.hpp" 1
 324              		mv a0, a5
 325              	# 0 "" 2
 326              	.LVL16:
 327              	#NO_APP
GAS LISTING /tmp/ccIupz92.s 			page 11


 328              	.LBE73:
 329              	.LBE72:
  48:src/syscall_c.cpp ****     __asm__ volatile("ecall");
 330              		.loc 1 48 5 is_stmt 1
 331              		.loc 1 48 30 is_stmt 0
 332              	#APP
 333              	# 48 "src/syscall_c.cpp" 1
  49              	}
 334              		ecall
 335              	# 0 "" 2
 336              		.loc 1 49 1
 337              	#NO_APP
 338 00f8 03348100 		ld	s0,8(sp)
 339              		.cfi_restore 8
 340              		.cfi_def_cfa 2, 16
 341 00fc 13010101 		addi	sp,sp,16
 342              		.cfi_def_cfa_offset 0
 343 0100 67800000 		jr	ra
 344              		.cfi_endproc
 345              	.LFE58:
 347              		.align	2
 348              		.globl	_Z27thread_create_without_startPP3TCBPFvPvES2_
 350              	_Z27thread_create_without_startPP3TCBPFvPvES2_:
 351              	.LFB59:
  50:src/syscall_c.cpp **** 
  51:src/syscall_c.cpp **** int thread_create_without_start(thread_t* handle, void (*start_routine)(void*), void* arg) {
 352              		.loc 1 51 92 is_stmt 1
 353              		.cfi_startproc
 354              	.LVL17:
 355 0104 130101FE 		addi	sp,sp,-32
 356              		.cfi_def_cfa_offset 32
 357 0108 233C8100 		sd	s0,24(sp)
 358              		.cfi_offset 8, -8
 359 010c 13040102 		addi	s0,sp,32
 360              		.cfi_def_cfa 8, 0
  52:src/syscall_c.cpp ****     __asm__ volatile("mv a7, %0" : : "r"(arg));
 361              		.loc 1 52 5
 362              		.loc 1 52 47 is_stmt 0
 363              	#APP
 364              	# 52 "src/syscall_c.cpp" 1
  53              	    __asm__ volatile("mv a2, %0" : : "r"(start_routine));
 365              		mv a7, a2
 366              	# 0 "" 2
 367              		.loc 1 53 5 is_stmt 1
 368              		.loc 1 53 57 is_stmt 0
 369              	# 53 "src/syscall_c.cpp" 1
  54              	    __asm__ volatile("mv a1, %0" : : "r"(handle));
 370              		mv a2, a1
 371              	# 0 "" 2
 372              		.loc 1 54 5 is_stmt 1
 373              		.loc 1 54 50 is_stmt 0
 374              	# 54 "src/syscall_c.cpp" 1
  55              	    Riscv::w_a0(0x10);
 375              		mv a1, a0
 376              	# 0 "" 2
 377              		.loc 1 55 5 is_stmt 1
 378              	.LVL18:
GAS LISTING /tmp/ccIupz92.s 			page 12


 379              	#NO_APP
 380              	.LBB74:
 381              	.LBB75:
 176:src/../h/riscv.hpp **** }
 382              		.loc 2 176 5
 176:src/../h/riscv.hpp **** }
 383              		.loc 2 176 49 is_stmt 0
 384 011c 93070001 		li	a5,16
 385              	#APP
 386              	# 176 "src/../h/riscv.hpp" 1
 387              		mv a0, a5
 388              	# 0 "" 2
 389              	.LVL19:
 390              	#NO_APP
 391              	.LBE75:
 392              	.LBE74:
  56:src/syscall_c.cpp ****     __asm__ volatile("ecall");
 393              		.loc 1 56 5 is_stmt 1
 394              		.loc 1 56 30 is_stmt 0
 395              	#APP
 396              	# 56 "src/syscall_c.cpp" 1
  57              	
  58:src/syscall_c.cpp ****     int ret = (int) Riscv::r_a0();
 397              		ecall
 398              	# 0 "" 2
 399              		.loc 1 58 5 is_stmt 1
 400              	#NO_APP
 401              	.LBB76:
 402              	.LBB77:
 170:src/../h/riscv.hpp ****     __asm__ volatile("mv %0, a0" : "=r"(a0));
 403              		.loc 2 170 5
 171:src/../h/riscv.hpp ****     return a0;
 404              		.loc 2 171 5
 171:src/../h/riscv.hpp ****     return a0;
 405              		.loc 2 171 45 is_stmt 0
 406              	#APP
 407              	# 171 "src/../h/riscv.hpp" 1
 408              		mv a5, a0
 409              	# 0 "" 2
 410              	#NO_APP
 411 012c 2334F4FE 		sd	a5,-24(s0)
 172:src/../h/riscv.hpp **** }
 412              		.loc 2 172 5 is_stmt 1
 172:src/../h/riscv.hpp **** }
 413              		.loc 2 172 12 is_stmt 0
 414 0130 033584FE 		ld	a0,-24(s0)
 415              	.LVL20:
 416              	.LBE77:
 417              	.LBE76:
  59:src/syscall_c.cpp ****     return ret;
 418              		.loc 1 59 5 is_stmt 1
  60:src/syscall_c.cpp **** 
  61:src/syscall_c.cpp **** }
 419              		.loc 1 61 1 is_stmt 0
 420 0134 1B050500 		sext.w	a0,a0
 421 0138 03348101 		ld	s0,24(sp)
 422              		.cfi_restore 8
GAS LISTING /tmp/ccIupz92.s 			page 13


 423              		.cfi_def_cfa 2, 32
 424 013c 13010102 		addi	sp,sp,32
 425              		.cfi_def_cfa_offset 0
 426 0140 67800000 		jr	ra
 427              		.cfi_endproc
 428              	.LFE59:
 430              		.align	2
 431              		.globl	_Z12thread_startP3TCB
 433              	_Z12thread_startP3TCB:
 434              	.LFB60:
  62:src/syscall_c.cpp **** 
  63:src/syscall_c.cpp **** void thread_start(TCB* tcb) {
 435              		.loc 1 63 29 is_stmt 1
 436              		.cfi_startproc
 437              	.LVL21:
 438 0144 130101FF 		addi	sp,sp,-16
 439              		.cfi_def_cfa_offset 16
 440 0148 23348100 		sd	s0,8(sp)
 441              		.cfi_offset 8, -8
 442 014c 13040101 		addi	s0,sp,16
 443              		.cfi_def_cfa 8, 0
  64:src/syscall_c.cpp ****     __asm__ volatile("mv a1, %0" : : "r"(tcb));
 444              		.loc 1 64 5
 445              		.loc 1 64 47 is_stmt 0
 446              	#APP
 447              	# 64 "src/syscall_c.cpp" 1
  65              	    Riscv::w_a0(0x09);
 448              		mv a1, a0
 449              	# 0 "" 2
 450              		.loc 1 65 5 is_stmt 1
 451              	.LVL22:
 452              	#NO_APP
 453              	.LBB78:
 454              	.LBB79:
 176:src/../h/riscv.hpp **** }
 455              		.loc 2 176 5
 176:src/../h/riscv.hpp **** }
 456              		.loc 2 176 49 is_stmt 0
 457 0154 93079000 		li	a5,9
 458              	#APP
 459              	# 176 "src/../h/riscv.hpp" 1
 460              		mv a0, a5
 461              	# 0 "" 2
 462              	.LVL23:
 463              	#NO_APP
 464              	.LBE79:
 465              	.LBE78:
  66:src/syscall_c.cpp ****     __asm__ volatile("ecall");
 466              		.loc 1 66 5 is_stmt 1
 467              		.loc 1 66 30 is_stmt 0
 468              	#APP
 469              	# 66 "src/syscall_c.cpp" 1
  67              	}
 470              		ecall
 471              	# 0 "" 2
 472              		.loc 1 67 1
 473              	#NO_APP
GAS LISTING /tmp/ccIupz92.s 			page 14


 474 0160 03348100 		ld	s0,8(sp)
 475              		.cfi_restore 8
 476              		.cfi_def_cfa 2, 16
 477 0164 13010101 		addi	sp,sp,16
 478              		.cfi_def_cfa_offset 0
 479 0168 67800000 		jr	ra
 480              		.cfi_endproc
 481              	.LFE60:
 483              		.align	2
 484              		.globl	_Z8sem_openPP11MySemaphorej
 486              	_Z8sem_openPP11MySemaphorej:
 487              	.LFB61:
  68:src/syscall_c.cpp **** 
  69:src/syscall_c.cpp **** int sem_open(sem_t* handle, unsigned init) {
 488              		.loc 1 69 44 is_stmt 1
 489              		.cfi_startproc
 490              	.LVL24:
 491 016c 130101FE 		addi	sp,sp,-32
 492              		.cfi_def_cfa_offset 32
 493 0170 233C8100 		sd	s0,24(sp)
 494              		.cfi_offset 8, -8
 495 0174 13040102 		addi	s0,sp,32
 496              		.cfi_def_cfa 8, 0
  70:src/syscall_c.cpp ****     __asm__ volatile("mv a2, %0" : : "r"(init));
 497              		.loc 1 70 5
 498              		.loc 1 70 48 is_stmt 0
 499              	#APP
 500              	# 70 "src/syscall_c.cpp" 1
  71              	    __asm__ volatile("mv a1, %0" : : "r"(handle));
 501              		mv a2, a1
 502              	# 0 "" 2
 503              		.loc 1 71 5 is_stmt 1
 504              		.loc 1 71 50 is_stmt 0
 505              	# 71 "src/syscall_c.cpp" 1
  72              	    Riscv::w_a0(0x21);
 506              		mv a1, a0
 507              	# 0 "" 2
 508              		.loc 1 72 5 is_stmt 1
 509              	.LVL25:
 510              	#NO_APP
 511              	.LBB80:
 512              	.LBB81:
 176:src/../h/riscv.hpp **** }
 513              		.loc 2 176 5
 176:src/../h/riscv.hpp **** }
 514              		.loc 2 176 49 is_stmt 0
 515 0180 93071002 		li	a5,33
 516              	#APP
 517              	# 176 "src/../h/riscv.hpp" 1
 518              		mv a0, a5
 519              	# 0 "" 2
 520              	.LVL26:
 521              	#NO_APP
 522              	.LBE81:
 523              	.LBE80:
  73:src/syscall_c.cpp ****     __asm__ volatile("ecall");
 524              		.loc 1 73 5 is_stmt 1
GAS LISTING /tmp/ccIupz92.s 			page 15


 525              		.loc 1 73 30 is_stmt 0
 526              	#APP
 527              	# 73 "src/syscall_c.cpp" 1
  74              	
  75:src/syscall_c.cpp ****     int ret = (int) Riscv::r_a0();
 528              		ecall
 529              	# 0 "" 2
 530              		.loc 1 75 5 is_stmt 1
 531              	#NO_APP
 532              	.LBB82:
 533              	.LBB83:
 170:src/../h/riscv.hpp ****     __asm__ volatile("mv %0, a0" : "=r"(a0));
 534              		.loc 2 170 5
 171:src/../h/riscv.hpp ****     return a0;
 535              		.loc 2 171 5
 171:src/../h/riscv.hpp ****     return a0;
 536              		.loc 2 171 45 is_stmt 0
 537              	#APP
 538              	# 171 "src/../h/riscv.hpp" 1
 539              		mv a5, a0
 540              	# 0 "" 2
 541              	#NO_APP
 542 0190 2334F4FE 		sd	a5,-24(s0)
 172:src/../h/riscv.hpp **** }
 543              		.loc 2 172 5 is_stmt 1
 172:src/../h/riscv.hpp **** }
 544              		.loc 2 172 12 is_stmt 0
 545 0194 033584FE 		ld	a0,-24(s0)
 546              	.LVL27:
 547              	.LBE83:
 548              	.LBE82:
  76:src/syscall_c.cpp ****     return ret;
 549              		.loc 1 76 5 is_stmt 1
  77:src/syscall_c.cpp **** }
 550              		.loc 1 77 1 is_stmt 0
 551 0198 1B050500 		sext.w	a0,a0
 552 019c 03348101 		ld	s0,24(sp)
 553              		.cfi_restore 8
 554              		.cfi_def_cfa 2, 32
 555 01a0 13010102 		addi	sp,sp,32
 556              		.cfi_def_cfa_offset 0
 557 01a4 67800000 		jr	ra
 558              		.cfi_endproc
 559              	.LFE61:
 561              		.align	2
 562              		.globl	_Z9sem_closeP11MySemaphore
 564              	_Z9sem_closeP11MySemaphore:
 565              	.LFB62:
  78:src/syscall_c.cpp **** 
  79:src/syscall_c.cpp **** int sem_close(sem_t handle) {
 566              		.loc 1 79 29 is_stmt 1
 567              		.cfi_startproc
 568              	.LVL28:
 569 01a8 130101FE 		addi	sp,sp,-32
 570              		.cfi_def_cfa_offset 32
 571 01ac 233C8100 		sd	s0,24(sp)
 572              		.cfi_offset 8, -8
GAS LISTING /tmp/ccIupz92.s 			page 16


 573 01b0 13040102 		addi	s0,sp,32
 574              		.cfi_def_cfa 8, 0
  80:src/syscall_c.cpp ****     __asm__ volatile("mv a1, %0" : : "r"(handle));
 575              		.loc 1 80 5
 576              		.loc 1 80 50 is_stmt 0
 577              	#APP
 578              	# 80 "src/syscall_c.cpp" 1
  81              	    Riscv::w_a0(0x22);
 579              		mv a1, a0
 580              	# 0 "" 2
 581              		.loc 1 81 5 is_stmt 1
 582              	.LVL29:
 583              	#NO_APP
 584              	.LBB84:
 585              	.LBB85:
 176:src/../h/riscv.hpp **** }
 586              		.loc 2 176 5
 176:src/../h/riscv.hpp **** }
 587              		.loc 2 176 49 is_stmt 0
 588 01b8 93072002 		li	a5,34
 589              	#APP
 590              	# 176 "src/../h/riscv.hpp" 1
 591              		mv a0, a5
 592              	# 0 "" 2
 593              	.LVL30:
 594              	#NO_APP
 595              	.LBE85:
 596              	.LBE84:
  82:src/syscall_c.cpp ****     __asm__ volatile("ecall");
 597              		.loc 1 82 5 is_stmt 1
 598              		.loc 1 82 30 is_stmt 0
 599              	#APP
 600              	# 82 "src/syscall_c.cpp" 1
  83              	
  84:src/syscall_c.cpp ****     int ret = (int) Riscv::r_a0();
 601              		ecall
 602              	# 0 "" 2
 603              		.loc 1 84 5 is_stmt 1
 604              	#NO_APP
 605              	.LBB86:
 606              	.LBB87:
 170:src/../h/riscv.hpp ****     __asm__ volatile("mv %0, a0" : "=r"(a0));
 607              		.loc 2 170 5
 171:src/../h/riscv.hpp ****     return a0;
 608              		.loc 2 171 5
 171:src/../h/riscv.hpp ****     return a0;
 609              		.loc 2 171 45 is_stmt 0
 610              	#APP
 611              	# 171 "src/../h/riscv.hpp" 1
 612              		mv a5, a0
 613              	# 0 "" 2
 614              	#NO_APP
 615 01c8 2334F4FE 		sd	a5,-24(s0)
 172:src/../h/riscv.hpp **** }
 616              		.loc 2 172 5 is_stmt 1
 172:src/../h/riscv.hpp **** }
 617              		.loc 2 172 12 is_stmt 0
GAS LISTING /tmp/ccIupz92.s 			page 17


 618 01cc 033584FE 		ld	a0,-24(s0)
 619              	.LVL31:
 620              	.LBE87:
 621              	.LBE86:
  85:src/syscall_c.cpp ****     return ret;
 622              		.loc 1 85 5 is_stmt 1
  86:src/syscall_c.cpp **** }
 623              		.loc 1 86 1 is_stmt 0
 624 01d0 1B050500 		sext.w	a0,a0
 625 01d4 03348101 		ld	s0,24(sp)
 626              		.cfi_restore 8
 627              		.cfi_def_cfa 2, 32
 628 01d8 13010102 		addi	sp,sp,32
 629              		.cfi_def_cfa_offset 0
 630 01dc 67800000 		jr	ra
 631              		.cfi_endproc
 632              	.LFE62:
 634              		.align	2
 635              		.globl	_Z8sem_waitP11MySemaphore
 637              	_Z8sem_waitP11MySemaphore:
 638              	.LFB63:
  87:src/syscall_c.cpp **** 
  88:src/syscall_c.cpp **** int sem_wait(sem_t id) {
 639              		.loc 1 88 24 is_stmt 1
 640              		.cfi_startproc
 641              	.LVL32:
 642 01e0 130101FE 		addi	sp,sp,-32
 643              		.cfi_def_cfa_offset 32
 644 01e4 233C8100 		sd	s0,24(sp)
 645              		.cfi_offset 8, -8
 646 01e8 13040102 		addi	s0,sp,32
 647              		.cfi_def_cfa 8, 0
  89:src/syscall_c.cpp ****     __asm__ volatile("mv a1, %0" : : "r"(id));
 648              		.loc 1 89 5
 649              		.loc 1 89 46 is_stmt 0
 650              	#APP
 651              	# 89 "src/syscall_c.cpp" 1
  90              	    Riscv::w_a0(0x23);
 652              		mv a1, a0
 653              	# 0 "" 2
 654              		.loc 1 90 5 is_stmt 1
 655              	.LVL33:
 656              	#NO_APP
 657              	.LBB88:
 658              	.LBB89:
 176:src/../h/riscv.hpp **** }
 659              		.loc 2 176 5
 176:src/../h/riscv.hpp **** }
 660              		.loc 2 176 49 is_stmt 0
 661 01f0 93073002 		li	a5,35
 662              	#APP
 663              	# 176 "src/../h/riscv.hpp" 1
 664              		mv a0, a5
 665              	# 0 "" 2
 666              	.LVL34:
 667              	#NO_APP
 668              	.LBE89:
GAS LISTING /tmp/ccIupz92.s 			page 18


 669              	.LBE88:
  91:src/syscall_c.cpp ****     __asm__ volatile("ecall");
 670              		.loc 1 91 5 is_stmt 1
 671              		.loc 1 91 30 is_stmt 0
 672              	#APP
 673              	# 91 "src/syscall_c.cpp" 1
  92              	
  93:src/syscall_c.cpp ****     int ret = (int) Riscv::r_a0();
 674              		ecall
 675              	# 0 "" 2
 676              		.loc 1 93 5 is_stmt 1
 677              	#NO_APP
 678              	.LBB90:
 679              	.LBB91:
 170:src/../h/riscv.hpp ****     __asm__ volatile("mv %0, a0" : "=r"(a0));
 680              		.loc 2 170 5
 171:src/../h/riscv.hpp ****     return a0;
 681              		.loc 2 171 5
 171:src/../h/riscv.hpp ****     return a0;
 682              		.loc 2 171 45 is_stmt 0
 683              	#APP
 684              	# 171 "src/../h/riscv.hpp" 1
 685              		mv a5, a0
 686              	# 0 "" 2
 687              	#NO_APP
 688 0200 2334F4FE 		sd	a5,-24(s0)
 172:src/../h/riscv.hpp **** }
 689              		.loc 2 172 5 is_stmt 1
 172:src/../h/riscv.hpp **** }
 690              		.loc 2 172 12 is_stmt 0
 691 0204 033584FE 		ld	a0,-24(s0)
 692              	.LVL35:
 693              	.LBE91:
 694              	.LBE90:
  94:src/syscall_c.cpp ****     return ret;
 695              		.loc 1 94 5 is_stmt 1
  95:src/syscall_c.cpp **** }
 696              		.loc 1 95 1 is_stmt 0
 697 0208 1B050500 		sext.w	a0,a0
 698 020c 03348101 		ld	s0,24(sp)
 699              		.cfi_restore 8
 700              		.cfi_def_cfa 2, 32
 701 0210 13010102 		addi	sp,sp,32
 702              		.cfi_def_cfa_offset 0
 703 0214 67800000 		jr	ra
 704              		.cfi_endproc
 705              	.LFE63:
 707              		.align	2
 708              		.globl	_Z10sem_signalP11MySemaphore
 710              	_Z10sem_signalP11MySemaphore:
 711              	.LFB64:
  96:src/syscall_c.cpp **** 
  97:src/syscall_c.cpp **** int sem_signal(sem_t id) {
 712              		.loc 1 97 26 is_stmt 1
 713              		.cfi_startproc
 714              	.LVL36:
 715 0218 130101FE 		addi	sp,sp,-32
GAS LISTING /tmp/ccIupz92.s 			page 19


 716              		.cfi_def_cfa_offset 32
 717 021c 233C8100 		sd	s0,24(sp)
 718              		.cfi_offset 8, -8
 719 0220 13040102 		addi	s0,sp,32
 720              		.cfi_def_cfa 8, 0
  98:src/syscall_c.cpp ****     __asm__ volatile("mv a1, %0" : : "r"(id));
 721              		.loc 1 98 5
 722              		.loc 1 98 46 is_stmt 0
 723              	#APP
 724              	# 98 "src/syscall_c.cpp" 1
  99              	    Riscv::w_a0(0x24);
 725              		mv a1, a0
 726              	# 0 "" 2
 727              		.loc 1 99 5 is_stmt 1
 728              	.LVL37:
 729              	#NO_APP
 730              	.LBB92:
 731              	.LBB93:
 176:src/../h/riscv.hpp **** }
 732              		.loc 2 176 5
 176:src/../h/riscv.hpp **** }
 733              		.loc 2 176 49 is_stmt 0
 734 0228 93074002 		li	a5,36
 735              	#APP
 736              	# 176 "src/../h/riscv.hpp" 1
 737              		mv a0, a5
 738              	# 0 "" 2
 739              	.LVL38:
 740              	#NO_APP
 741              	.LBE93:
 742              	.LBE92:
 100:src/syscall_c.cpp ****     __asm__ volatile("ecall");
 743              		.loc 1 100 5 is_stmt 1
 744              		.loc 1 100 30 is_stmt 0
 745              	#APP
 746              	# 100 "src/syscall_c.cpp" 1
 101              	
 102:src/syscall_c.cpp ****     int ret = (int) Riscv::r_a0();
 747              		ecall
 748              	# 0 "" 2
 749              		.loc 1 102 5 is_stmt 1
 750              	#NO_APP
 751              	.LBB94:
 752              	.LBB95:
 170:src/../h/riscv.hpp ****     __asm__ volatile("mv %0, a0" : "=r"(a0));
 753              		.loc 2 170 5
 171:src/../h/riscv.hpp ****     return a0;
 754              		.loc 2 171 5
 171:src/../h/riscv.hpp ****     return a0;
 755              		.loc 2 171 45 is_stmt 0
 756              	#APP
 757              	# 171 "src/../h/riscv.hpp" 1
 758              		mv a5, a0
 759              	# 0 "" 2
 760              	#NO_APP
 761 0238 2334F4FE 		sd	a5,-24(s0)
 172:src/../h/riscv.hpp **** }
GAS LISTING /tmp/ccIupz92.s 			page 20


 762              		.loc 2 172 5 is_stmt 1
 172:src/../h/riscv.hpp **** }
 763              		.loc 2 172 12 is_stmt 0
 764 023c 033584FE 		ld	a0,-24(s0)
 765              	.LVL39:
 766              	.LBE95:
 767              	.LBE94:
 103:src/syscall_c.cpp ****     return ret;
 768              		.loc 1 103 5 is_stmt 1
 104:src/syscall_c.cpp **** }
 769              		.loc 1 104 1 is_stmt 0
 770 0240 1B050500 		sext.w	a0,a0
 771 0244 03348101 		ld	s0,24(sp)
 772              		.cfi_restore 8
 773              		.cfi_def_cfa 2, 32
 774 0248 13010102 		addi	sp,sp,32
 775              		.cfi_def_cfa_offset 0
 776 024c 67800000 		jr	ra
 777              		.cfi_endproc
 778              	.LFE64:
 780              		.align	2
 781              		.globl	_Z13sem_timedwaitP11MySemaphorem
 783              	_Z13sem_timedwaitP11MySemaphorem:
 784              	.LFB65:
 105:src/syscall_c.cpp **** 
 106:src/syscall_c.cpp **** int sem_timedwait(sem_t id, time_t timeout) {
 785              		.loc 1 106 45 is_stmt 1
 786              		.cfi_startproc
 787              	.LVL40:
 788 0250 130101FE 		addi	sp,sp,-32
 789              		.cfi_def_cfa_offset 32
 790 0254 233C8100 		sd	s0,24(sp)
 791              		.cfi_offset 8, -8
 792 0258 13040102 		addi	s0,sp,32
 793              		.cfi_def_cfa 8, 0
 107:src/syscall_c.cpp ****     __asm__ volatile("mv a2, %0" : : "r"(timeout));
 794              		.loc 1 107 5
 795              		.loc 1 107 51 is_stmt 0
 796              	#APP
 797              	# 107 "src/syscall_c.cpp" 1
 108              	    __asm__ volatile("mv a1, %0" : : "r"(id));
 798              		mv a2, a1
 799              	# 0 "" 2
 800              		.loc 1 108 5 is_stmt 1
 801              		.loc 1 108 46 is_stmt 0
 802              	# 108 "src/syscall_c.cpp" 1
 109              	    Riscv::w_a0(0x25);
 803              		mv a1, a0
 804              	# 0 "" 2
 805              		.loc 1 109 5 is_stmt 1
 806              	.LVL41:
 807              	#NO_APP
 808              	.LBB96:
 809              	.LBB97:
 176:src/../h/riscv.hpp **** }
 810              		.loc 2 176 5
 176:src/../h/riscv.hpp **** }
GAS LISTING /tmp/ccIupz92.s 			page 21


 811              		.loc 2 176 49 is_stmt 0
 812 0264 93075002 		li	a5,37
 813              	#APP
 814              	# 176 "src/../h/riscv.hpp" 1
 815              		mv a0, a5
 816              	# 0 "" 2
 817              	.LVL42:
 818              	#NO_APP
 819              	.LBE97:
 820              	.LBE96:
 110:src/syscall_c.cpp ****     __asm__ volatile("ecall");
 821              		.loc 1 110 5 is_stmt 1
 822              		.loc 1 110 30 is_stmt 0
 823              	#APP
 824              	# 110 "src/syscall_c.cpp" 1
 111              	
 112:src/syscall_c.cpp ****     int ret = (int) Riscv::r_a0();
 825              		ecall
 826              	# 0 "" 2
 827              		.loc 1 112 5 is_stmt 1
 828              	#NO_APP
 829              	.LBB98:
 830              	.LBB99:
 170:src/../h/riscv.hpp ****     __asm__ volatile("mv %0, a0" : "=r"(a0));
 831              		.loc 2 170 5
 171:src/../h/riscv.hpp ****     return a0;
 832              		.loc 2 171 5
 171:src/../h/riscv.hpp ****     return a0;
 833              		.loc 2 171 45 is_stmt 0
 834              	#APP
 835              	# 171 "src/../h/riscv.hpp" 1
 836              		mv a5, a0
 837              	# 0 "" 2
 838              	#NO_APP
 839 0274 2334F4FE 		sd	a5,-24(s0)
 172:src/../h/riscv.hpp **** }
 840              		.loc 2 172 5 is_stmt 1
 172:src/../h/riscv.hpp **** }
 841              		.loc 2 172 12 is_stmt 0
 842 0278 033584FE 		ld	a0,-24(s0)
 843              	.LVL43:
 844              	.LBE99:
 845              	.LBE98:
 113:src/syscall_c.cpp ****     return ret;
 846              		.loc 1 113 5 is_stmt 1
 114:src/syscall_c.cpp **** }
 847              		.loc 1 114 1 is_stmt 0
 848 027c 1B050500 		sext.w	a0,a0
 849 0280 03348101 		ld	s0,24(sp)
 850              		.cfi_restore 8
 851              		.cfi_def_cfa 2, 32
 852 0284 13010102 		addi	sp,sp,32
 853              		.cfi_def_cfa_offset 0
 854 0288 67800000 		jr	ra
 855              		.cfi_endproc
 856              	.LFE65:
 858              		.align	2
GAS LISTING /tmp/ccIupz92.s 			page 22


 859              		.globl	_Z11sem_trywaitP11MySemaphore
 861              	_Z11sem_trywaitP11MySemaphore:
 862              	.LFB66:
 115:src/syscall_c.cpp **** 
 116:src/syscall_c.cpp **** int sem_trywait(sem_t id) {
 863              		.loc 1 116 27 is_stmt 1
 864              		.cfi_startproc
 865              	.LVL44:
 866 028c 130101FE 		addi	sp,sp,-32
 867              		.cfi_def_cfa_offset 32
 868 0290 233C8100 		sd	s0,24(sp)
 869              		.cfi_offset 8, -8
 870 0294 13040102 		addi	s0,sp,32
 871              		.cfi_def_cfa 8, 0
 117:src/syscall_c.cpp ****     __asm__ volatile("mv a1, %0" : : "r"(id));
 872              		.loc 1 117 5
 873              		.loc 1 117 46 is_stmt 0
 874              	#APP
 875              	# 117 "src/syscall_c.cpp" 1
 118              	    Riscv::w_a0(0x26);
 876              		mv a1, a0
 877              	# 0 "" 2
 878              		.loc 1 118 5 is_stmt 1
 879              	.LVL45:
 880              	#NO_APP
 881              	.LBB100:
 882              	.LBB101:
 176:src/../h/riscv.hpp **** }
 883              		.loc 2 176 5
 176:src/../h/riscv.hpp **** }
 884              		.loc 2 176 49 is_stmt 0
 885 029c 93076002 		li	a5,38
 886              	#APP
 887              	# 176 "src/../h/riscv.hpp" 1
 888              		mv a0, a5
 889              	# 0 "" 2
 890              	.LVL46:
 891              	#NO_APP
 892              	.LBE101:
 893              	.LBE100:
 119:src/syscall_c.cpp ****     __asm__ volatile("ecall");
 894              		.loc 1 119 5 is_stmt 1
 895              		.loc 1 119 30 is_stmt 0
 896              	#APP
 897              	# 119 "src/syscall_c.cpp" 1
 120              	
 121:src/syscall_c.cpp ****     int ret = (int) Riscv::r_a0();
 898              		ecall
 899              	# 0 "" 2
 900              		.loc 1 121 5 is_stmt 1
 901              	#NO_APP
 902              	.LBB102:
 903              	.LBB103:
 170:src/../h/riscv.hpp ****     __asm__ volatile("mv %0, a0" : "=r"(a0));
 904              		.loc 2 170 5
 171:src/../h/riscv.hpp ****     return a0;
 905              		.loc 2 171 5
GAS LISTING /tmp/ccIupz92.s 			page 23


 171:src/../h/riscv.hpp ****     return a0;
 906              		.loc 2 171 45 is_stmt 0
 907              	#APP
 908              	# 171 "src/../h/riscv.hpp" 1
 909              		mv a5, a0
 910              	# 0 "" 2
 911              	#NO_APP
 912 02ac 2334F4FE 		sd	a5,-24(s0)
 172:src/../h/riscv.hpp **** }
 913              		.loc 2 172 5 is_stmt 1
 172:src/../h/riscv.hpp **** }
 914              		.loc 2 172 12 is_stmt 0
 915 02b0 033584FE 		ld	a0,-24(s0)
 916              	.LVL47:
 917              	.LBE103:
 918              	.LBE102:
 122:src/syscall_c.cpp ****     return ret;
 919              		.loc 1 122 5 is_stmt 1
 123:src/syscall_c.cpp **** }
 920              		.loc 1 123 1 is_stmt 0
 921 02b4 1B050500 		sext.w	a0,a0
 922 02b8 03348101 		ld	s0,24(sp)
 923              		.cfi_restore 8
 924              		.cfi_def_cfa 2, 32
 925 02bc 13010102 		addi	sp,sp,32
 926              		.cfi_def_cfa_offset 0
 927 02c0 67800000 		jr	ra
 928              		.cfi_endproc
 929              	.LFE66:
 931              		.align	2
 932              		.globl	_Z4getcv
 934              	_Z4getcv:
 935              	.LFB67:
 124:src/syscall_c.cpp **** 
 125:src/syscall_c.cpp **** 
 126:src/syscall_c.cpp **** char getc() {
 936              		.loc 1 126 13 is_stmt 1
 937              		.cfi_startproc
 938 02c4 130101FE 		addi	sp,sp,-32
 939              		.cfi_def_cfa_offset 32
 940 02c8 233C8100 		sd	s0,24(sp)
 941              		.cfi_offset 8, -8
 942 02cc 13040102 		addi	s0,sp,32
 943              		.cfi_def_cfa 8, 0
 127:src/syscall_c.cpp ****     Riscv::w_a0(0x41);
 944              		.loc 1 127 5
 945              	.LVL48:
 946              	.LBB104:
 947              	.LBB105:
 176:src/../h/riscv.hpp **** }
 948              		.loc 2 176 5
 176:src/../h/riscv.hpp **** }
 949              		.loc 2 176 49 is_stmt 0
 950 02d0 93071004 		li	a5,65
 951              	#APP
 952              	# 176 "src/../h/riscv.hpp" 1
 953              		mv a0, a5
GAS LISTING /tmp/ccIupz92.s 			page 24


 954              	# 0 "" 2
 955              	.LVL49:
 956              	#NO_APP
 957              	.LBE105:
 958              	.LBE104:
 128:src/syscall_c.cpp ****     __asm__ volatile("ecall");
 959              		.loc 1 128 5 is_stmt 1
 960              		.loc 1 128 30 is_stmt 0
 961              	#APP
 962              	# 128 "src/syscall_c.cpp" 1
 129              	
 130:src/syscall_c.cpp ****     char ret = (char) Riscv::r_a0();
 963              		ecall
 964              	# 0 "" 2
 965              		.loc 1 130 5 is_stmt 1
 966              	#NO_APP
 967              	.LBB106:
 968              	.LBB107:
 170:src/../h/riscv.hpp ****     __asm__ volatile("mv %0, a0" : "=r"(a0));
 969              		.loc 2 170 5
 171:src/../h/riscv.hpp ****     return a0;
 970              		.loc 2 171 5
 171:src/../h/riscv.hpp ****     return a0;
 971              		.loc 2 171 45 is_stmt 0
 972              	#APP
 973              	# 171 "src/../h/riscv.hpp" 1
 974              		mv a5, a0
 975              	# 0 "" 2
 976              	#NO_APP
 977 02e0 2334F4FE 		sd	a5,-24(s0)
 172:src/../h/riscv.hpp **** }
 978              		.loc 2 172 5 is_stmt 1
 172:src/../h/riscv.hpp **** }
 979              		.loc 2 172 12 is_stmt 0
 980 02e4 033584FE 		ld	a0,-24(s0)
 981              	.LVL50:
 982              	.LBE107:
 983              	.LBE106:
 131:src/syscall_c.cpp ****     return ret;
 984              		.loc 1 131 5 is_stmt 1
 132:src/syscall_c.cpp **** }
 985              		.loc 1 132 1 is_stmt 0
 986 02e8 1375F50F 		andi	a0,a0,0xff
 987 02ec 03348101 		ld	s0,24(sp)
 988              		.cfi_restore 8
 989              		.cfi_def_cfa 2, 32
 990 02f0 13010102 		addi	sp,sp,32
 991              		.cfi_def_cfa_offset 0
 992 02f4 67800000 		jr	ra
 993              		.cfi_endproc
 994              	.LFE67:
 996              		.align	2
 997              		.globl	_Z4putcc
 999              	_Z4putcc:
 1000              	.LFB68:
 133:src/syscall_c.cpp **** 
 134:src/syscall_c.cpp **** void putc(char ch) {
GAS LISTING /tmp/ccIupz92.s 			page 25


 1001              		.loc 1 134 20 is_stmt 1
 1002              		.cfi_startproc
 1003              	.LVL51:
 1004 02f8 130101FF 		addi	sp,sp,-16
 1005              		.cfi_def_cfa_offset 16
 1006 02fc 23348100 		sd	s0,8(sp)
 1007              		.cfi_offset 8, -8
 1008 0300 13040101 		addi	s0,sp,16
 1009              		.cfi_def_cfa 8, 0
 135:src/syscall_c.cpp ****     __asm__ volatile("mv a1, %0" : : "r"(ch));
 1010              		.loc 1 135 5
 1011              		.loc 1 135 46 is_stmt 0
 1012              	#APP
 1013              	# 135 "src/syscall_c.cpp" 1
 136              	    Riscv::w_a0(0x42);
 1014              		mv a1, a0
 1015              	# 0 "" 2
 1016              		.loc 1 136 5 is_stmt 1
 1017              	.LVL52:
 1018              	#NO_APP
 1019              	.LBB108:
 1020              	.LBB109:
 176:src/../h/riscv.hpp **** }
 1021              		.loc 2 176 5
 176:src/../h/riscv.hpp **** }
 1022              		.loc 2 176 49 is_stmt 0
 1023 0308 93072004 		li	a5,66
 1024              	#APP
 1025              	# 176 "src/../h/riscv.hpp" 1
 1026              		mv a0, a5
 1027              	# 0 "" 2
 1028              	.LVL53:
 1029              	#NO_APP
 1030              	.LBE109:
 1031              	.LBE108:
 137:src/syscall_c.cpp ****     __asm__ volatile("ecall");
 1032              		.loc 1 137 5 is_stmt 1
 1033              		.loc 1 137 30 is_stmt 0
 1034              	#APP
 1035              	# 137 "src/syscall_c.cpp" 1
 138              	}...
 1036              		ecall
 1037              	# 0 "" 2
 1038              		.loc 1 138 1
 1039              	#NO_APP
 1040 0314 03348100 		ld	s0,8(sp)
 1041              		.cfi_restore 8
 1042              		.cfi_def_cfa 2, 16
 1043 0318 13010101 		addi	sp,sp,16
 1044              		.cfi_def_cfa_offset 0
 1045 031c 67800000 		jr	ra
 1046              		.cfi_endproc
 1047              	.LFE68:
 1049              	.Letext0:
 1050              		.file 3 "src/../h/../lib/hw.h"
 1051              		.file 4 "src/../h/../h/list.hpp"
 1052              		.file 5 "src/../h/tcb.hpp"
GAS LISTING /tmp/ccIupz92.s 			page 26


 1053              		.file 6 "src/../h/../h/mySemaphore.hpp"
 1054              		.file 7 "src/../h/syscall_c.hpp"
GAS LISTING /tmp/ccIupz92.s 			page 27

