GAS LISTING /tmp/ccmp3zgW.s 			page 1


   1              		.file	"syscall_cpp.cpp"
   2              		.option pic
   3              		.option norelax
   4              		.text
   5              	.Ltext0:
   6              		.section	.text._ZN6Thread3runEv,"axG",@progbits,_ZN6Thread3runEv,comdat
   7              		.align	2
   8              		.weak	_ZN6Thread3runEv
  10              	_ZN6Thread3runEv:
  11              	.LFB24:
  12              		.file 1 "src/../h/syscall_cpp.hpp"
   1:src/../h/syscall_cpp.hpp **** #ifndef SYSCALL_CPP_H
   2:src/../h/syscall_cpp.hpp **** #define SYSCALL_CPP_H
   3:src/../h/syscall_cpp.hpp **** 
   4:src/../h/syscall_cpp.hpp **** #include "syscall_c.hpp"
   5:src/../h/syscall_cpp.hpp **** 
   6:src/../h/syscall_cpp.hpp **** void* operator new (size_t); // Alokacija memorije
   7:src/../h/syscall_cpp.hpp **** void operator delete (void*) noexcept; // Dealokacija memorije
   8:src/../h/syscall_cpp.hpp **** void* operator new[] (size_t); // Alokacija memorije (niz)
   9:src/../h/syscall_cpp.hpp **** void operator delete[] (void*) noexcept; // Dealokacija memorije (niz)
  10:src/../h/syscall_cpp.hpp **** 
  11:src/../h/syscall_cpp.hpp **** class Thread {
  12:src/../h/syscall_cpp.hpp **** public:
  13:src/../h/syscall_cpp.hpp ****   Thread(void (*body)(void*), void* arg);
  14:src/../h/syscall_cpp.hpp ****   virtual ~Thread();
  15:src/../h/syscall_cpp.hpp **** 
  16:src/../h/syscall_cpp.hpp ****   int start();
  17:src/../h/syscall_cpp.hpp **** 
  18:src/../h/syscall_cpp.hpp ****   static void dispatch();
  19:src/../h/syscall_cpp.hpp ****   static int sleep(time_t);
  20:src/../h/syscall_cpp.hpp **** 
  21:src/../h/syscall_cpp.hpp **** protected:
  22:src/../h/syscall_cpp.hpp ****   Thread();
  23:src/../h/syscall_cpp.hpp ****   virtual void run() {};
  13              		.loc 1 23 16
  14              		.cfi_startproc
  15              	.LVL0:
  16 0000 130101FF 		addi	sp,sp,-16
  17              		.cfi_def_cfa_offset 16
  18 0004 23348100 		sd	s0,8(sp)
  19              		.cfi_offset 8, -8
  20 0008 13040101 		addi	s0,sp,16
  21              		.cfi_def_cfa 8, 0
  22              		.loc 1 23 23 is_stmt 0
  23 000c 03348100 		ld	s0,8(sp)
  24              		.cfi_restore 8
  25              		.cfi_def_cfa 2, 16
  26 0010 13010101 		addi	sp,sp,16
  27              		.cfi_def_cfa_offset 0
  28 0014 67800000 		jr	ra
  29              		.cfi_endproc
  30              	.LFE24:
  32              		.section	.text._ZN6Thread10runWrapperEPv,"axG",@progbits,_ZN6Thread10runWrapperEPv,comdat
  33              		.align	2
  34              		.weak	_ZN6Thread10runWrapperEPv
  36              	_ZN6Thread10runWrapperEPv:
  37              	.LFB25:
GAS LISTING /tmp/ccmp3zgW.s 			page 2


  24:src/../h/syscall_cpp.hpp **** 
  25:src/../h/syscall_cpp.hpp **** private:
  26:src/../h/syscall_cpp.hpp ****   thread_t myHandle;
  27:src/../h/syscall_cpp.hpp ****   void (*body)(void*); void* arg;
  28:src/../h/syscall_cpp.hpp **** 
  29:src/../h/syscall_cpp.hpp ****   static void runWrapper(void* thread) {
  38              		.loc 1 29 15 is_stmt 1
  39              		.cfi_startproc
  40              	.LVL1:
  30:src/../h/syscall_cpp.hpp ****     if(thread != nullptr) ((Thread*)thread)->run();
  41              		.loc 1 30 5
  42 0000 63080502 		beqz	a0,.L6
  29:src/../h/syscall_cpp.hpp ****     if(thread != nullptr) ((Thread*)thread)->run();
  43              		.loc 1 29 15 is_stmt 0 discriminator 1
  44 0004 130101FF 		addi	sp,sp,-16
  45              		.cfi_def_cfa_offset 16
  46 0008 23341100 		sd	ra,8(sp)
  47 000c 23308100 		sd	s0,0(sp)
  48              		.cfi_offset 1, -8
  49              		.cfi_offset 8, -16
  50 0010 13040101 		addi	s0,sp,16
  51              		.cfi_def_cfa 8, 0
  52              		.loc 1 30 27 is_stmt 1 discriminator 1
  53              		.loc 1 30 50 is_stmt 0 discriminator 1
  54 0014 83370500 		ld	a5,0(a0)
  55 0018 83B70701 		ld	a5,16(a5)
  56              		.loc 1 30 49 discriminator 1
  57 001c E7800700 		jalr	a5
  58              	.LVL2:
  31:src/../h/syscall_cpp.hpp ****   }
  59              		.loc 1 31 3 discriminator 1
  60 0020 83308100 		ld	ra,8(sp)
  61              		.cfi_restore 1
  62 0024 03340100 		ld	s0,0(sp)
  63              		.cfi_restore 8
  64              		.cfi_def_cfa 2, 16
  65 0028 13010101 		addi	sp,sp,16
  66              		.cfi_def_cfa_offset 0
  67 002c 67800000 		jr	ra
  68              	.LVL3:
  69              	.L6:
  70 0030 67800000 		ret
  71              		.cfi_endproc
  72              	.LFE25:
  74              		.text
  75              		.align	2
  76              		.globl	_Znwm
  78              	_Znwm:
  79              	.LFB26:
  80              		.file 2 "src/syscall_cpp.cpp"
   1:src/syscall_cpp.cpp **** #include "../h/syscall_cpp.hpp"
   2:src/syscall_cpp.cpp **** #include "../h/syscall_c.hpp"
   3:src/syscall_cpp.cpp **** 
   4:src/syscall_cpp.cpp **** void *operator new (size_t size){
  81              		.loc 2 4 33 is_stmt 1
  82              		.cfi_startproc
  83              	.LVL4:
GAS LISTING /tmp/ccmp3zgW.s 			page 3


  84 0000 130101FF 		addi	sp,sp,-16
  85              		.cfi_def_cfa_offset 16
  86 0004 23341100 		sd	ra,8(sp)
  87 0008 23308100 		sd	s0,0(sp)
  88              		.cfi_offset 1, -8
  89              		.cfi_offset 8, -16
  90 000c 13040101 		addi	s0,sp,16
  91              		.cfi_def_cfa 8, 0
   5:src/syscall_cpp.cpp ****     return MemoryAllocator::mem_alloc(size);
  92              		.loc 2 5 5
  93              		.loc 2 5 38 is_stmt 0
  94 0010 97000000 		call	_ZN15MemoryAllocator9mem_allocEm@plt
  94      E7800000 
  95              	.LVL5:
   6:src/syscall_cpp.cpp **** }
  96              		.loc 2 6 1
  97 0018 83308100 		ld	ra,8(sp)
  98              		.cfi_restore 1
  99 001c 03340100 		ld	s0,0(sp)
 100              		.cfi_restore 8
 101              		.cfi_def_cfa 2, 16
 102 0020 13010101 		addi	sp,sp,16
 103              		.cfi_def_cfa_offset 0
 104 0024 67800000 		jr	ra
 105              		.cfi_endproc
 106              	.LFE26:
 108              		.align	2
 109              		.globl	_Znam
 111              	_Znam:
 112              	.LFB27:
   7:src/syscall_cpp.cpp **** 
   8:src/syscall_cpp.cpp **** void *operator new[] (size_t size){
 113              		.loc 2 8 35 is_stmt 1
 114              		.cfi_startproc
 115              	.LVL6:
 116 0028 130101FF 		addi	sp,sp,-16
 117              		.cfi_def_cfa_offset 16
 118 002c 23341100 		sd	ra,8(sp)
 119 0030 23308100 		sd	s0,0(sp)
 120              		.cfi_offset 1, -8
 121              		.cfi_offset 8, -16
 122 0034 13040101 		addi	s0,sp,16
 123              		.cfi_def_cfa 8, 0
   9:src/syscall_cpp.cpp ****     return MemoryAllocator::mem_alloc(size);
 124              		.loc 2 9 5
 125              		.loc 2 9 38 is_stmt 0
 126 0038 97000000 		call	_ZN15MemoryAllocator9mem_allocEm@plt
 126      E7800000 
 127              	.LVL7:
  10:src/syscall_cpp.cpp **** }
 128              		.loc 2 10 1
 129 0040 83308100 		ld	ra,8(sp)
 130              		.cfi_restore 1
 131 0044 03340100 		ld	s0,0(sp)
 132              		.cfi_restore 8
 133              		.cfi_def_cfa 2, 16
 134 0048 13010101 		addi	sp,sp,16
GAS LISTING /tmp/ccmp3zgW.s 			page 4


 135              		.cfi_def_cfa_offset 0
 136 004c 67800000 		jr	ra
 137              		.cfi_endproc
 138              	.LFE27:
 140              		.align	2
 141              		.globl	_ZdlPv
 143              	_ZdlPv:
 144              	.LFB28:
  11:src/syscall_cpp.cpp **** 
  12:src/syscall_cpp.cpp **** void operator delete (void *ptr) noexcept {
 145              		.loc 2 12 43 is_stmt 1
 146              		.cfi_startproc
 147              		.cfi_personality 0x9b,DW.ref.__gxx_personality_v0
 148              		.cfi_lsda 0x1b,.LLSDA28
 149              	.LVL8:
 150 0050 130101FF 		addi	sp,sp,-16
 151              		.cfi_def_cfa_offset 16
 152 0054 23341100 		sd	ra,8(sp)
 153 0058 23308100 		sd	s0,0(sp)
 154              		.cfi_offset 1, -8
 155              		.cfi_offset 8, -16
 156 005c 13040101 		addi	s0,sp,16
 157              		.cfi_def_cfa 8, 0
  13:src/syscall_cpp.cpp ****     MemoryAllocator::mem_free(ptr);
 158              		.loc 2 13 5
 159              		.loc 2 13 30 is_stmt 0
 160 0060 97000000 		call	_ZN15MemoryAllocator8mem_freeEPv@plt
 160      E7800000 
 161              	.LVL9:
  14:src/syscall_cpp.cpp **** }
 162              		.loc 2 14 1
 163 0068 83308100 		ld	ra,8(sp)
 164              		.cfi_restore 1
 165 006c 03340100 		ld	s0,0(sp)
 166              		.cfi_restore 8
 167              		.cfi_def_cfa 2, 16
 168 0070 13010101 		addi	sp,sp,16
 169              		.cfi_def_cfa_offset 0
 170 0074 67800000 		jr	ra
 171              		.cfi_endproc
 172              	.LFE28:
 173              		.globl	__gxx_personality_v0
 174              		.section	.gcc_except_table,"a",@progbits
 175              	.LLSDA28:
 176 0000 FF       		.byte	0xff
 177 0001 FF       		.byte	0xff
 178 0002 03       		.byte	0x3
 179 0003 00       		.byte	0
 180              		.text
 182              		.align	2
 183              		.globl	_ZdaPv
 185              	_ZdaPv:
 186              	.LFB29:
  15:src/syscall_cpp.cpp **** 
  16:src/syscall_cpp.cpp **** void operator delete[] (void *ptr) noexcept {
 187              		.loc 2 16 45 is_stmt 1
 188              		.cfi_startproc
GAS LISTING /tmp/ccmp3zgW.s 			page 5


 189              		.cfi_personality 0x9b,DW.ref.__gxx_personality_v0
 190              		.cfi_lsda 0x1b,.LLSDA29
 191              	.LVL10:
 192 0078 130101FF 		addi	sp,sp,-16
 193              		.cfi_def_cfa_offset 16
 194 007c 23341100 		sd	ra,8(sp)
 195 0080 23308100 		sd	s0,0(sp)
 196              		.cfi_offset 1, -8
 197              		.cfi_offset 8, -16
 198 0084 13040101 		addi	s0,sp,16
 199              		.cfi_def_cfa 8, 0
  17:src/syscall_cpp.cpp ****     MemoryAllocator::mem_free(ptr);
 200              		.loc 2 17 5
 201              		.loc 2 17 30 is_stmt 0
 202 0088 97000000 		call	_ZN15MemoryAllocator8mem_freeEPv@plt
 202      E7800000 
 203              	.LVL11:
  18:src/syscall_cpp.cpp **** }
 204              		.loc 2 18 1
 205 0090 83308100 		ld	ra,8(sp)
 206              		.cfi_restore 1
 207 0094 03340100 		ld	s0,0(sp)
 208              		.cfi_restore 8
 209              		.cfi_def_cfa 2, 16
 210 0098 13010101 		addi	sp,sp,16
 211              		.cfi_def_cfa_offset 0
 212 009c 67800000 		jr	ra
 213              		.cfi_endproc
 214              	.LFE29:
 215              		.section	.gcc_except_table
 216              	.LLSDA29:
 217 0004 FF       		.byte	0xff
 218 0005 FF       		.byte	0xff
 219 0006 03       		.byte	0x3
 220 0007 00       		.byte	0
 221              		.text
 223              		.align	2
 224              		.globl	_ZN6ThreadD2Ev
 226              	_ZN6ThreadD2Ev:
 227              	.LFB34:
  19:src/syscall_cpp.cpp **** 
  20:src/syscall_cpp.cpp **** Thread::Thread(void (*body)(void*), void* arg) {
  21:src/syscall_cpp.cpp ****     thread_create(&this->myHandle, body, arg);
  22:src/syscall_cpp.cpp **** }
  23:src/syscall_cpp.cpp **** 
  24:src/syscall_cpp.cpp **** Thread::~Thread() {
 228              		.loc 2 24 1 is_stmt 1
 229              		.cfi_startproc
 230              	.LVL12:
 231 00a0 130101FE 		addi	sp,sp,-32
 232              		.cfi_def_cfa_offset 32
 233 00a4 233C1100 		sd	ra,24(sp)
 234 00a8 23388100 		sd	s0,16(sp)
 235 00ac 23349100 		sd	s1,8(sp)
 236              		.cfi_offset 1, -8
 237              		.cfi_offset 8, -16
 238              		.cfi_offset 9, -24
GAS LISTING /tmp/ccmp3zgW.s 			page 6


 239 00b0 13040102 		addi	s0,sp,32
 240              		.cfi_def_cfa 8, 0
 241              	.LBB6:
 242              		.loc 2 24 17 is_stmt 0
 243 00b4 97070000 		lla	a5,_ZTV6Thread+16
 243      93870700 
 244 00bc 2330F500 		sd	a5,0(a0)
  25:src/syscall_cpp.cpp ****     //thread_exit();
  26:src/syscall_cpp.cpp ****     delete this->myHandle;
 245              		.loc 2 26 5 is_stmt 1
 246              		.loc 2 26 18 is_stmt 0
 247 00c0 83348500 		ld	s1,8(a0)
 248              		.loc 2 26 26
 249 00c4 63800402 		beqz	s1,.L17
 250              	.LVL13:
 251              	.LBB7:
 252              	.LBB8:
 253              		.file 3 "src/../h/tcb.hpp"
   1:src/../h/tcb.hpp **** #ifndef TCB_H
   2:src/../h/tcb.hpp **** #define TCB_H
   3:src/../h/tcb.hpp **** 
   4:src/../h/tcb.hpp **** #include "../lib/hw.h"
   5:src/../h/tcb.hpp **** #include "../h/scheduler.hpp"
   6:src/../h/tcb.hpp **** 
   7:src/../h/tcb.hpp **** class TCB {
   8:src/../h/tcb.hpp **** public:
   9:src/../h/tcb.hpp ****     ~TCB(){ delete[] stack; }
 254              		.loc 3 9 13 is_stmt 1
 255              		.loc 3 9 22 is_stmt 0
 256 00c8 03B50401 		ld	a0,16(s1)
 257              	.LVL14:
 258              		.loc 3 9 27
 259 00cc 63060500 		beqz	a0,.L19
 260              		.loc 3 9 22
 261 00d0 97000000 		call	_ZdaPv
 261      E7800000 
 262              	.LVL15:
 263              	.L19:
 264              	.LBE8:
 265              	.LBE7:
 266              		.loc 2 26 18
 267 00d8 13850400 		mv	a0,s1
 268 00dc 97000000 		call	_ZdlPv
 268      E7800000 
 269              	.LVL16:
 270              	.L17:
 271              	.LBE6:
  27:src/syscall_cpp.cpp **** }
 272              		.loc 2 27 1
 273 00e4 83308101 		ld	ra,24(sp)
 274              		.cfi_restore 1
 275 00e8 03340101 		ld	s0,16(sp)
 276              		.cfi_restore 8
 277              		.cfi_def_cfa 2, 32
 278 00ec 83348100 		ld	s1,8(sp)
 279              		.cfi_restore 9
 280 00f0 13010102 		addi	sp,sp,32
GAS LISTING /tmp/ccmp3zgW.s 			page 7


 281              		.cfi_def_cfa_offset 0
 282 00f4 67800000 		jr	ra
 283              		.cfi_endproc
 284              	.LFE34:
 286              		.globl	_ZN6ThreadD1Ev
 287              		.set	_ZN6ThreadD1Ev,_ZN6ThreadD2Ev
 288              		.align	2
 289              		.globl	_ZN6ThreadD0Ev
 291              	_ZN6ThreadD0Ev:
 292              	.LFB36:
  24:src/syscall_cpp.cpp ****     //thread_exit();
 293              		.loc 2 24 1 is_stmt 1
 294              		.cfi_startproc
 295              	.LVL17:
 296 00f8 130101FE 		addi	sp,sp,-32
 297              		.cfi_def_cfa_offset 32
 298 00fc 233C1100 		sd	ra,24(sp)
 299 0100 23388100 		sd	s0,16(sp)
 300 0104 23349100 		sd	s1,8(sp)
 301              		.cfi_offset 1, -8
 302              		.cfi_offset 8, -16
 303              		.cfi_offset 9, -24
 304 0108 13040102 		addi	s0,sp,32
 305              		.cfi_def_cfa 8, 0
 306 010c 93040500 		mv	s1,a0
 307              		.loc 2 27 1 is_stmt 0
 308 0110 97000000 		call	_ZN6ThreadD1Ev
 308      E7800000 
 309              	.LVL18:
 310 0118 13850400 		mv	a0,s1
 311 011c 97000000 		call	_ZdlPv
 311      E7800000 
 312              	.LVL19:
 313 0124 83308101 		ld	ra,24(sp)
 314              		.cfi_restore 1
 315 0128 03340101 		ld	s0,16(sp)
 316              		.cfi_restore 8
 317              		.cfi_def_cfa 2, 32
 318 012c 83348100 		ld	s1,8(sp)
 319              		.cfi_restore 9
 320              	.LVL20:
 321 0130 13010102 		addi	sp,sp,32
 322              		.cfi_def_cfa_offset 0
 323 0134 67800000 		jr	ra
 324              		.cfi_endproc
 325              	.LFE36:
 327              		.align	2
 328              		.globl	_ZN6ThreadC2EPFvPvES0_
 330              	_ZN6ThreadC2EPFvPvES0_:
 331              	.LFB31:
  20:src/syscall_cpp.cpp ****     thread_create(&this->myHandle, body, arg);
 332              		.loc 2 20 1 is_stmt 1
 333              		.cfi_startproc
 334              	.LVL21:
 335 0138 130101FF 		addi	sp,sp,-16
 336              		.cfi_def_cfa_offset 16
 337 013c 23341100 		sd	ra,8(sp)
GAS LISTING /tmp/ccmp3zgW.s 			page 8


 338 0140 23308100 		sd	s0,0(sp)
 339              		.cfi_offset 1, -8
 340              		.cfi_offset 8, -16
 341 0144 13040101 		addi	s0,sp,16
 342              		.cfi_def_cfa 8, 0
 343              	.LBB9:
  20:src/syscall_cpp.cpp ****     thread_create(&this->myHandle, body, arg);
 344              		.loc 2 20 46 is_stmt 0
 345 0148 97070000 		lla	a5,_ZTV6Thread+16
 345      93870700 
 346 0150 2330F500 		sd	a5,0(a0)
  21:src/syscall_cpp.cpp **** }
 347              		.loc 2 21 5 is_stmt 1
  21:src/syscall_cpp.cpp **** }
 348              		.loc 2 21 18 is_stmt 0
 349 0154 13058500 		addi	a0,a0,8
 350              	.LVL22:
 351 0158 97000000 		call	_Z13thread_createPP3TCBPFvPvES2_@plt
 351      E7800000 
 352              	.LVL23:
 353              	.LBE9:
  22:src/syscall_cpp.cpp **** 
 354              		.loc 2 22 1
 355 0160 83308100 		ld	ra,8(sp)
 356              		.cfi_restore 1
 357 0164 03340100 		ld	s0,0(sp)
 358              		.cfi_restore 8
 359              		.cfi_def_cfa 2, 16
 360 0168 13010101 		addi	sp,sp,16
 361              		.cfi_def_cfa_offset 0
 362 016c 67800000 		jr	ra
 363              		.cfi_endproc
 364              	.LFE31:
 366              		.globl	_ZN6ThreadC1EPFvPvES0_
 367              		.set	_ZN6ThreadC1EPFvPvES0_,_ZN6ThreadC2EPFvPvES0_
 368              		.align	2
 369              		.globl	_ZN6Thread5startEv
 371              	_ZN6Thread5startEv:
 372              	.LFB37:
  28:src/syscall_cpp.cpp **** 
  29:src/syscall_cpp.cpp **** int Thread::start() {
 373              		.loc 2 29 21 is_stmt 1
 374              		.cfi_startproc
 375              	.LVL24:
 376 0170 130101FF 		addi	sp,sp,-16
 377              		.cfi_def_cfa_offset 16
 378 0174 23341100 		sd	ra,8(sp)
 379 0178 23308100 		sd	s0,0(sp)
 380              		.cfi_offset 1, -8
 381              		.cfi_offset 8, -16
 382 017c 13040101 		addi	s0,sp,16
 383              		.cfi_def_cfa 8, 0
  30:src/syscall_cpp.cpp ****     thread_start(this->myHandle);
 384              		.loc 2 30 5
 385              		.loc 2 30 17 is_stmt 0
 386 0180 03358500 		ld	a0,8(a0)
 387              	.LVL25:
GAS LISTING /tmp/ccmp3zgW.s 			page 9


 388 0184 97000000 		call	_Z12thread_startP3TCB@plt
 388      E7800000 
 389              	.LVL26:
  31:src/syscall_cpp.cpp ****     return 0;
 390              		.loc 2 31 5 is_stmt 1
  32:src/syscall_cpp.cpp **** }
 391              		.loc 2 32 1 is_stmt 0
 392 018c 13050000 		li	a0,0
 393 0190 83308100 		ld	ra,8(sp)
 394              		.cfi_restore 1
 395 0194 03340100 		ld	s0,0(sp)
 396              		.cfi_restore 8
 397              		.cfi_def_cfa 2, 16
 398 0198 13010101 		addi	sp,sp,16
 399              		.cfi_def_cfa_offset 0
 400 019c 67800000 		jr	ra
 401              		.cfi_endproc
 402              	.LFE37:
 404              		.align	2
 405              		.globl	_ZN6Thread8dispatchEv
 407              	_ZN6Thread8dispatchEv:
 408              	.LFB38:
  33:src/syscall_cpp.cpp **** 
  34:src/syscall_cpp.cpp **** void Thread::dispatch() {
 409              		.loc 2 34 25 is_stmt 1
 410              		.cfi_startproc
 411 01a0 130101FF 		addi	sp,sp,-16
 412              		.cfi_def_cfa_offset 16
 413 01a4 23341100 		sd	ra,8(sp)
 414 01a8 23308100 		sd	s0,0(sp)
 415              		.cfi_offset 1, -8
 416              		.cfi_offset 8, -16
 417 01ac 13040101 		addi	s0,sp,16
 418              		.cfi_def_cfa 8, 0
  35:src/syscall_cpp.cpp ****     thread_dispatch();
 419              		.loc 2 35 5
 420              		.loc 2 35 20 is_stmt 0
 421 01b0 97000000 		call	_Z15thread_dispatchv@plt
 421      E7800000 
 422              	.LVL27:
  36:src/syscall_cpp.cpp **** }
 423              		.loc 2 36 1
 424 01b8 83308100 		ld	ra,8(sp)
 425              		.cfi_restore 1
 426 01bc 03340100 		ld	s0,0(sp)
 427              		.cfi_restore 8
 428              		.cfi_def_cfa 2, 16
 429 01c0 13010101 		addi	sp,sp,16
 430              		.cfi_def_cfa_offset 0
 431 01c4 67800000 		jr	ra
 432              		.cfi_endproc
 433              	.LFE38:
 435              		.align	2
 436              		.globl	_ZN6Thread5sleepEm
 438              	_ZN6Thread5sleepEm:
 439              	.LFB39:
  37:src/syscall_cpp.cpp **** 
GAS LISTING /tmp/ccmp3zgW.s 			page 10


  38:src/syscall_cpp.cpp **** int Thread::sleep(time_t time) {
 440              		.loc 2 38 32 is_stmt 1
 441              		.cfi_startproc
 442              	.LVL28:
 443 01c8 130101FF 		addi	sp,sp,-16
 444              		.cfi_def_cfa_offset 16
 445 01cc 23348100 		sd	s0,8(sp)
 446              		.cfi_offset 8, -8
 447 01d0 13040101 		addi	s0,sp,16
 448              		.cfi_def_cfa 8, 0
  39:src/syscall_cpp.cpp ****     return 0;
 449              		.loc 2 39 5
  40:src/syscall_cpp.cpp **** }
 450              		.loc 2 40 1 is_stmt 0
 451 01d4 13050000 		li	a0,0
 452              	.LVL29:
 453 01d8 03348100 		ld	s0,8(sp)
 454              		.cfi_restore 8
 455              		.cfi_def_cfa 2, 16
 456 01dc 13010101 		addi	sp,sp,16
 457              		.cfi_def_cfa_offset 0
 458 01e0 67800000 		jr	ra
 459              		.cfi_endproc
 460              	.LFE39:
 462              		.align	2
 463              		.globl	_ZN6ThreadC2Ev
 465              	_ZN6ThreadC2Ev:
 466              	.LFB41:
  41:src/syscall_cpp.cpp **** 
  42:src/syscall_cpp.cpp **** Thread::Thread() {
 467              		.loc 2 42 1 is_stmt 1
 468              		.cfi_startproc
 469              	.LVL30:
 470 01e4 130101FF 		addi	sp,sp,-16
 471              		.cfi_def_cfa_offset 16
 472 01e8 23341100 		sd	ra,8(sp)
 473 01ec 23308100 		sd	s0,0(sp)
 474              		.cfi_offset 1, -8
 475              		.cfi_offset 8, -16
 476 01f0 13040101 		addi	s0,sp,16
 477              		.cfi_def_cfa 8, 0
 478              	.LBB10:
 479              		.loc 2 42 16 is_stmt 0
 480 01f4 97070000 		lla	a5,_ZTV6Thread+16
 480      93870700 
 481 01fc 2330F500 		sd	a5,0(a0)
  43:src/syscall_cpp.cpp ****     thread_create_without_start(&this->myHandle, runWrapper, this);
 482              		.loc 2 43 5 is_stmt 1
 483              		.loc 2 43 32 is_stmt 0
 484 0200 13060500 		mv	a2,a0
 485 0204 97050000 		lla	a1,_ZN6Thread10runWrapperEPv
 485      93850500 
 486 020c 13058500 		addi	a0,a0,8
 487              	.LVL31:
 488 0210 97000000 		call	_Z27thread_create_without_startPP3TCBPFvPvES2_@plt
 488      E7800000 
 489              	.LVL32:
GAS LISTING /tmp/ccmp3zgW.s 			page 11


 490              	.LBE10:
  44:src/syscall_cpp.cpp **** }
 491              		.loc 2 44 1
 492 0218 83308100 		ld	ra,8(sp)
 493              		.cfi_restore 1
 494 021c 03340100 		ld	s0,0(sp)
 495              		.cfi_restore 8
 496              		.cfi_def_cfa 2, 16
 497 0220 13010101 		addi	sp,sp,16
 498              		.cfi_def_cfa_offset 0
 499 0224 67800000 		jr	ra
 500              		.cfi_endproc
 501              	.LFE41:
 503              		.globl	_ZN6ThreadC1Ev
 504              		.set	_ZN6ThreadC1Ev,_ZN6ThreadC2Ev
 505              		.weak	_ZTV6Thread
 506              		.section	.data.rel.ro.local._ZTV6Thread,"awG",@progbits,_ZTV6Thread,comdat
 507              		.align	3
 510              	_ZTV6Thread:
 511 0000 00000000 		.dword	0
 511      00000000 
 512 0008 00000000 		.dword	0
 512      00000000 
 513 0010 00000000 		.dword	_ZN6ThreadD1Ev
 513      00000000 
 514 0018 00000000 		.dword	_ZN6ThreadD0Ev
 514      00000000 
 515 0020 00000000 		.dword	_ZN6Thread3runEv
 515      00000000 
 516              		.text
 517              	.Letext0:
 518              		.file 4 "src/../h/../lib/hw.h"
 519              		.file 5 "src/../h/../h/MemoryAllocator.hpp"
 520              		.file 6 "src/../h/syscall_c.hpp"
 3169              		.align	3
 3172              	DW.ref.__gxx_personality_v0:
 3173 0000 00000000 		.dword	__gxx_personality_v0
 3173      00000000 
 3174              		.ident	"GCC: (Ubuntu 9.4.0-1ubuntu1~20.04) 9.4.0"
 3175              		.section	.note.GNU-stack,"",@progbits
GAS LISTING /tmp/ccmp3zgW.s 			page 12


DEFINED SYMBOLS
                            *ABS*:0000000000000000 syscall_cpp.cpp
     /tmp/ccmp3zgW.s:10     .text._ZN6Thread3runEv:0000000000000000 _ZN6Thread3runEv
     /tmp/ccmp3zgW.s:14     .text._ZN6Thread3runEv:0000000000000000 .L0 
     /tmp/ccmp3zgW.s:16     .text._ZN6Thread3runEv:0000000000000000 .L0 
     /tmp/ccmp3zgW.s:17     .text._ZN6Thread3runEv:0000000000000004 .L0 
     /tmp/ccmp3zgW.s:19     .text._ZN6Thread3runEv:0000000000000008 .L0 
     /tmp/ccmp3zgW.s:21     .text._ZN6Thread3runEv:000000000000000c .L0 
     /tmp/ccmp3zgW.s:23     .text._ZN6Thread3runEv:000000000000000c .L0 
     /tmp/ccmp3zgW.s:24     .text._ZN6Thread3runEv:0000000000000010 .L0 
     /tmp/ccmp3zgW.s:25     .text._ZN6Thread3runEv:0000000000000010 .L0 
     /tmp/ccmp3zgW.s:27     .text._ZN6Thread3runEv:0000000000000014 .L0 
     /tmp/ccmp3zgW.s:29     .text._ZN6Thread3runEv:0000000000000018 .L0 
     /tmp/ccmp3zgW.s:36     .text._ZN6Thread10runWrapperEPv:0000000000000000 _ZN6Thread10runWrapperEPv
     /tmp/ccmp3zgW.s:39     .text._ZN6Thread10runWrapperEPv:0000000000000000 .L0 
     /tmp/ccmp3zgW.s:41     .text._ZN6Thread10runWrapperEPv:0000000000000000 .L0 
     /tmp/ccmp3zgW.s:42     .text._ZN6Thread10runWrapperEPv:0000000000000000 .L0 
     /tmp/ccmp3zgW.s:44     .text._ZN6Thread10runWrapperEPv:0000000000000004 .L0 
     /tmp/ccmp3zgW.s:45     .text._ZN6Thread10runWrapperEPv:0000000000000008 .L0 
     /tmp/ccmp3zgW.s:48     .text._ZN6Thread10runWrapperEPv:0000000000000010 .L0 
     /tmp/ccmp3zgW.s:49     .text._ZN6Thread10runWrapperEPv:0000000000000010 .L0 
     /tmp/ccmp3zgW.s:51     .text._ZN6Thread10runWrapperEPv:0000000000000014 .L0 
     /tmp/ccmp3zgW.s:53     .text._ZN6Thread10runWrapperEPv:0000000000000014 .L0 
     /tmp/ccmp3zgW.s:54     .text._ZN6Thread10runWrapperEPv:0000000000000014 .L0 
     /tmp/ccmp3zgW.s:57     .text._ZN6Thread10runWrapperEPv:000000000000001c .L0 
     /tmp/ccmp3zgW.s:60     .text._ZN6Thread10runWrapperEPv:0000000000000020 .L0 
     /tmp/ccmp3zgW.s:61     .text._ZN6Thread10runWrapperEPv:0000000000000024 .L0 
     /tmp/ccmp3zgW.s:63     .text._ZN6Thread10runWrapperEPv:0000000000000028 .L0 
     /tmp/ccmp3zgW.s:64     .text._ZN6Thread10runWrapperEPv:0000000000000028 .L0 
     /tmp/ccmp3zgW.s:66     .text._ZN6Thread10runWrapperEPv:000000000000002c .L0 
     /tmp/ccmp3zgW.s:71     .text._ZN6Thread10runWrapperEPv:0000000000000034 .L0 
     /tmp/ccmp3zgW.s:78     .text:0000000000000000 _Znwm
     /tmp/ccmp3zgW.s:82     .text:0000000000000000 .L0 
     /tmp/ccmp3zgW.s:84     .text:0000000000000000 .L0 
     /tmp/ccmp3zgW.s:85     .text:0000000000000004 .L0 
     /tmp/ccmp3zgW.s:88     .text:000000000000000c .L0 
     /tmp/ccmp3zgW.s:89     .text:000000000000000c .L0 
     /tmp/ccmp3zgW.s:91     .text:0000000000000010 .L0 
     /tmp/ccmp3zgW.s:93     .text:0000000000000010 .L0 
     /tmp/ccmp3zgW.s:94     .text:0000000000000010 .L0 
     /tmp/ccmp3zgW.s:97     .text:0000000000000018 .L0 
     /tmp/ccmp3zgW.s:98     .text:000000000000001c .L0 
     /tmp/ccmp3zgW.s:100    .text:0000000000000020 .L0 
     /tmp/ccmp3zgW.s:101    .text:0000000000000020 .L0 
     /tmp/ccmp3zgW.s:103    .text:0000000000000024 .L0 
     /tmp/ccmp3zgW.s:105    .text:0000000000000028 .L0 
     /tmp/ccmp3zgW.s:111    .text:0000000000000028 _Znam
     /tmp/ccmp3zgW.s:114    .text:0000000000000028 .L0 
     /tmp/ccmp3zgW.s:116    .text:0000000000000028 .L0 
     /tmp/ccmp3zgW.s:117    .text:000000000000002c .L0 
     /tmp/ccmp3zgW.s:120    .text:0000000000000034 .L0 
     /tmp/ccmp3zgW.s:121    .text:0000000000000034 .L0 
     /tmp/ccmp3zgW.s:123    .text:0000000000000038 .L0 
     /tmp/ccmp3zgW.s:125    .text:0000000000000038 .L0 
     /tmp/ccmp3zgW.s:126    .text:0000000000000038 .L0 
     /tmp/ccmp3zgW.s:129    .text:0000000000000040 .L0 
     /tmp/ccmp3zgW.s:130    .text:0000000000000044 .L0 
GAS LISTING /tmp/ccmp3zgW.s 			page 13


     /tmp/ccmp3zgW.s:132    .text:0000000000000048 .L0 
     /tmp/ccmp3zgW.s:133    .text:0000000000000048 .L0 
     /tmp/ccmp3zgW.s:135    .text:000000000000004c .L0 
     /tmp/ccmp3zgW.s:137    .text:0000000000000050 .L0 
     /tmp/ccmp3zgW.s:143    .text:0000000000000050 _ZdlPv
     /tmp/ccmp3zgW.s:146    .text:0000000000000050 .L0 
     /tmp/ccmp3zgW.s:3172   .data.rel.local.DW.ref.__gxx_personality_v0:0000000000000000 DW.ref.__gxx_personality_v0
     /tmp/ccmp3zgW.s:150    .text:0000000000000050 .L0 
     /tmp/ccmp3zgW.s:151    .text:0000000000000054 .L0 
     /tmp/ccmp3zgW.s:154    .text:000000000000005c .L0 
     /tmp/ccmp3zgW.s:155    .text:000000000000005c .L0 
     /tmp/ccmp3zgW.s:157    .text:0000000000000060 .L0 
     /tmp/ccmp3zgW.s:159    .text:0000000000000060 .L0 
     /tmp/ccmp3zgW.s:160    .text:0000000000000060 .L0 
     /tmp/ccmp3zgW.s:163    .text:0000000000000068 .L0 
     /tmp/ccmp3zgW.s:164    .text:000000000000006c .L0 
     /tmp/ccmp3zgW.s:166    .text:0000000000000070 .L0 
     /tmp/ccmp3zgW.s:167    .text:0000000000000070 .L0 
     /tmp/ccmp3zgW.s:169    .text:0000000000000074 .L0 
     /tmp/ccmp3zgW.s:171    .text:0000000000000078 .L0 
     /tmp/ccmp3zgW.s:185    .text:0000000000000078 _ZdaPv
     /tmp/ccmp3zgW.s:188    .text:0000000000000078 .L0 
     /tmp/ccmp3zgW.s:192    .text:0000000000000078 .L0 
     /tmp/ccmp3zgW.s:193    .text:000000000000007c .L0 
     /tmp/ccmp3zgW.s:196    .text:0000000000000084 .L0 
     /tmp/ccmp3zgW.s:197    .text:0000000000000084 .L0 
     /tmp/ccmp3zgW.s:199    .text:0000000000000088 .L0 
     /tmp/ccmp3zgW.s:201    .text:0000000000000088 .L0 
     /tmp/ccmp3zgW.s:202    .text:0000000000000088 .L0 
     /tmp/ccmp3zgW.s:205    .text:0000000000000090 .L0 
     /tmp/ccmp3zgW.s:206    .text:0000000000000094 .L0 
     /tmp/ccmp3zgW.s:208    .text:0000000000000098 .L0 
     /tmp/ccmp3zgW.s:209    .text:0000000000000098 .L0 
     /tmp/ccmp3zgW.s:211    .text:000000000000009c .L0 
     /tmp/ccmp3zgW.s:213    .text:00000000000000a0 .L0 
     /tmp/ccmp3zgW.s:226    .text:00000000000000a0 _ZN6ThreadD2Ev
     /tmp/ccmp3zgW.s:229    .text:00000000000000a0 .L0 
     /tmp/ccmp3zgW.s:231    .text:00000000000000a0 .L0 
     /tmp/ccmp3zgW.s:232    .text:00000000000000a4 .L0 
     /tmp/ccmp3zgW.s:236    .text:00000000000000b0 .L0 
     /tmp/ccmp3zgW.s:237    .text:00000000000000b0 .L0 
     /tmp/ccmp3zgW.s:238    .text:00000000000000b0 .L0 
     /tmp/ccmp3zgW.s:240    .text:00000000000000b4 .L0 
     /tmp/ccmp3zgW.s:510    .data.rel.ro.local._ZTV6Thread:0000000000000000 _ZTV6Thread
     /tmp/ccmp3zgW.s:243    .text:00000000000000b4 .L0 
     /tmp/ccmp3zgW.s:246    .text:00000000000000c0 .L0 
     /tmp/ccmp3zgW.s:247    .text:00000000000000c0 .L0 
     /tmp/ccmp3zgW.s:249    .text:00000000000000c4 .L0 
     /tmp/ccmp3zgW.s:255    .text:00000000000000c8 .L0 
     /tmp/ccmp3zgW.s:256    .text:00000000000000c8 .L0 
     /tmp/ccmp3zgW.s:259    .text:00000000000000cc .L0 
     /tmp/ccmp3zgW.s:261    .text:00000000000000d0 .L0 
     /tmp/ccmp3zgW.s:267    .text:00000000000000d8 .L0 
     /tmp/ccmp3zgW.s:273    .text:00000000000000e4 .L0 
     /tmp/ccmp3zgW.s:274    .text:00000000000000e8 .L0 
     /tmp/ccmp3zgW.s:276    .text:00000000000000ec .L0 
     /tmp/ccmp3zgW.s:277    .text:00000000000000ec .L0 
GAS LISTING /tmp/ccmp3zgW.s 			page 14


     /tmp/ccmp3zgW.s:279    .text:00000000000000f0 .L0 
     /tmp/ccmp3zgW.s:281    .text:00000000000000f4 .L0 
     /tmp/ccmp3zgW.s:283    .text:00000000000000f8 .L0 
     /tmp/ccmp3zgW.s:226    .text:00000000000000a0 _ZN6ThreadD1Ev
     /tmp/ccmp3zgW.s:291    .text:00000000000000f8 _ZN6ThreadD0Ev
     /tmp/ccmp3zgW.s:294    .text:00000000000000f8 .L0 
     /tmp/ccmp3zgW.s:296    .text:00000000000000f8 .L0 
     /tmp/ccmp3zgW.s:297    .text:00000000000000fc .L0 
     /tmp/ccmp3zgW.s:301    .text:0000000000000108 .L0 
     /tmp/ccmp3zgW.s:302    .text:0000000000000108 .L0 
     /tmp/ccmp3zgW.s:303    .text:0000000000000108 .L0 
     /tmp/ccmp3zgW.s:305    .text:000000000000010c .L0 
     /tmp/ccmp3zgW.s:308    .text:0000000000000110 .L0 
     /tmp/ccmp3zgW.s:314    .text:0000000000000128 .L0 
     /tmp/ccmp3zgW.s:316    .text:000000000000012c .L0 
     /tmp/ccmp3zgW.s:317    .text:000000000000012c .L0 
     /tmp/ccmp3zgW.s:319    .text:0000000000000130 .L0 
     /tmp/ccmp3zgW.s:322    .text:0000000000000134 .L0 
     /tmp/ccmp3zgW.s:324    .text:0000000000000138 .L0 
     /tmp/ccmp3zgW.s:330    .text:0000000000000138 _ZN6ThreadC2EPFvPvES0_
     /tmp/ccmp3zgW.s:333    .text:0000000000000138 .L0 
     /tmp/ccmp3zgW.s:335    .text:0000000000000138 .L0 
     /tmp/ccmp3zgW.s:336    .text:000000000000013c .L0 
     /tmp/ccmp3zgW.s:339    .text:0000000000000144 .L0 
     /tmp/ccmp3zgW.s:340    .text:0000000000000144 .L0 
     /tmp/ccmp3zgW.s:342    .text:0000000000000148 .L0 
     /tmp/ccmp3zgW.s:345    .text:0000000000000148 .L0 
     /tmp/ccmp3zgW.s:348    .text:0000000000000154 .L0 
     /tmp/ccmp3zgW.s:349    .text:0000000000000154 .L0 
     /tmp/ccmp3zgW.s:355    .text:0000000000000160 .L0 
     /tmp/ccmp3zgW.s:356    .text:0000000000000164 .L0 
     /tmp/ccmp3zgW.s:358    .text:0000000000000168 .L0 
     /tmp/ccmp3zgW.s:359    .text:0000000000000168 .L0 
     /tmp/ccmp3zgW.s:361    .text:000000000000016c .L0 
     /tmp/ccmp3zgW.s:363    .text:0000000000000170 .L0 
     /tmp/ccmp3zgW.s:330    .text:0000000000000138 _ZN6ThreadC1EPFvPvES0_
     /tmp/ccmp3zgW.s:371    .text:0000000000000170 _ZN6Thread5startEv
     /tmp/ccmp3zgW.s:374    .text:0000000000000170 .L0 
     /tmp/ccmp3zgW.s:376    .text:0000000000000170 .L0 
     /tmp/ccmp3zgW.s:377    .text:0000000000000174 .L0 
     /tmp/ccmp3zgW.s:380    .text:000000000000017c .L0 
     /tmp/ccmp3zgW.s:381    .text:000000000000017c .L0 
     /tmp/ccmp3zgW.s:383    .text:0000000000000180 .L0 
     /tmp/ccmp3zgW.s:385    .text:0000000000000180 .L0 
     /tmp/ccmp3zgW.s:386    .text:0000000000000180 .L0 
     /tmp/ccmp3zgW.s:391    .text:000000000000018c .L0 
     /tmp/ccmp3zgW.s:392    .text:000000000000018c .L0 
     /tmp/ccmp3zgW.s:394    .text:0000000000000194 .L0 
     /tmp/ccmp3zgW.s:396    .text:0000000000000198 .L0 
     /tmp/ccmp3zgW.s:397    .text:0000000000000198 .L0 
     /tmp/ccmp3zgW.s:399    .text:000000000000019c .L0 
     /tmp/ccmp3zgW.s:401    .text:00000000000001a0 .L0 
     /tmp/ccmp3zgW.s:407    .text:00000000000001a0 _ZN6Thread8dispatchEv
     /tmp/ccmp3zgW.s:410    .text:00000000000001a0 .L0 
     /tmp/ccmp3zgW.s:411    .text:00000000000001a0 .L0 
     /tmp/ccmp3zgW.s:412    .text:00000000000001a4 .L0 
     /tmp/ccmp3zgW.s:415    .text:00000000000001ac .L0 
GAS LISTING /tmp/ccmp3zgW.s 			page 15


     /tmp/ccmp3zgW.s:416    .text:00000000000001ac .L0 
     /tmp/ccmp3zgW.s:418    .text:00000000000001b0 .L0 
     /tmp/ccmp3zgW.s:420    .text:00000000000001b0 .L0 
     /tmp/ccmp3zgW.s:421    .text:00000000000001b0 .L0 
     /tmp/ccmp3zgW.s:424    .text:00000000000001b8 .L0 
     /tmp/ccmp3zgW.s:425    .text:00000000000001bc .L0 
     /tmp/ccmp3zgW.s:427    .text:00000000000001c0 .L0 
     /tmp/ccmp3zgW.s:428    .text:00000000000001c0 .L0 
     /tmp/ccmp3zgW.s:430    .text:00000000000001c4 .L0 
     /tmp/ccmp3zgW.s:432    .text:00000000000001c8 .L0 
     /tmp/ccmp3zgW.s:438    .text:00000000000001c8 _ZN6Thread5sleepEm
     /tmp/ccmp3zgW.s:441    .text:00000000000001c8 .L0 
     /tmp/ccmp3zgW.s:443    .text:00000000000001c8 .L0 
     /tmp/ccmp3zgW.s:444    .text:00000000000001cc .L0 
     /tmp/ccmp3zgW.s:446    .text:00000000000001d0 .L0 
     /tmp/ccmp3zgW.s:448    .text:00000000000001d4 .L0 
     /tmp/ccmp3zgW.s:450    .text:00000000000001d4 .L0 
     /tmp/ccmp3zgW.s:451    .text:00000000000001d4 .L0 
     /tmp/ccmp3zgW.s:454    .text:00000000000001dc .L0 
     /tmp/ccmp3zgW.s:455    .text:00000000000001dc .L0 
     /tmp/ccmp3zgW.s:457    .text:00000000000001e0 .L0 
     /tmp/ccmp3zgW.s:459    .text:00000000000001e4 .L0 
     /tmp/ccmp3zgW.s:465    .text:00000000000001e4 _ZN6ThreadC2Ev
     /tmp/ccmp3zgW.s:468    .text:00000000000001e4 .L0 
     /tmp/ccmp3zgW.s:470    .text:00000000000001e4 .L0 
     /tmp/ccmp3zgW.s:471    .text:00000000000001e8 .L0 
     /tmp/ccmp3zgW.s:474    .text:00000000000001f0 .L0 
     /tmp/ccmp3zgW.s:475    .text:00000000000001f0 .L0 
     /tmp/ccmp3zgW.s:477    .text:00000000000001f4 .L0 
     /tmp/ccmp3zgW.s:480    .text:00000000000001f4 .L0 
     /tmp/ccmp3zgW.s:483    .text:0000000000000200 .L0 
     /tmp/ccmp3zgW.s:484    .text:0000000000000200 .L0 
     /tmp/ccmp3zgW.s:492    .text:0000000000000218 .L0 
     /tmp/ccmp3zgW.s:493    .text:000000000000021c .L0 
     /tmp/ccmp3zgW.s:495    .text:0000000000000220 .L0 
     /tmp/ccmp3zgW.s:496    .text:0000000000000220 .L0 
     /tmp/ccmp3zgW.s:498    .text:0000000000000224 .L0 
     /tmp/ccmp3zgW.s:500    .text:0000000000000228 .L0 
     /tmp/ccmp3zgW.s:465    .text:00000000000001e4 _ZN6ThreadC1Ev
     /tmp/ccmp3zgW.s:32     .text._ZN6Thread3runEv:0000000000000018 .L0 
     /tmp/ccmp3zgW.s:74     .text._ZN6Thread10runWrapperEPv:0000000000000034 .L0 
     /tmp/ccmp3zgW.s:521    .text:0000000000000228 .L0 
     /tmp/ccmp3zgW.s:243    .text:00000000000000b4 .L0 
     /tmp/ccmp3zgW.s:345    .text:0000000000000148 .L0 
     /tmp/ccmp3zgW.s:480    .text:00000000000001f4 .L0 
     /tmp/ccmp3zgW.s:485    .text:0000000000000204 .L0 
     /tmp/ccmp3zgW.s:270    .text:00000000000000e4 .L17
     /tmp/ccmp3zgW.s:263    .text:00000000000000d8 .L19
     /tmp/ccmp3zgW.s:69     .text._ZN6Thread10runWrapperEPv:0000000000000030 .L6
     /tmp/ccmp3zgW.s:1682   .debug_abbrev:0000000000000000 .Ldebug_abbrev0
     /tmp/ccmp3zgW.s:3128   .debug_str:0000000000000682 .LASF103
     /tmp/ccmp3zgW.s:3100   .debug_str:00000000000005ab .LASF104
     /tmp/ccmp3zgW.s:2944   .debug_str:0000000000000070 .LASF105
     /tmp/ccmp3zgW.s:2920   .debug_ranges:0000000000000000 .Ldebug_ranges0
     /tmp/ccmp3zgW.s:2930   .debug_line:0000000000000000 .Ldebug_line0
     /tmp/ccmp3zgW.s:3050   .debug_str:00000000000003f7 .LASF0
     /tmp/ccmp3zgW.s:3060   .debug_str:0000000000000443 .LASF1
GAS LISTING /tmp/ccmp3zgW.s 			page 16


     /tmp/ccmp3zgW.s:3042   .debug_str:00000000000003ba .LASF2
     /tmp/ccmp3zgW.s:3012   .debug_str:00000000000002ee .LASF4
     /tmp/ccmp3zgW.s:3110   .debug_str:00000000000005f2 .LASF3
     /tmp/ccmp3zgW.s:2946   .debug_str:0000000000000093 .LASF5
     /tmp/ccmp3zgW.s:2972   .debug_str:0000000000000179 .LASF6
     /tmp/ccmp3zgW.s:3066   .debug_str:0000000000000489 .LASF7
     /tmp/ccmp3zgW.s:3048   .debug_str:00000000000003e4 .LASF8
     /tmp/ccmp3zgW.s:3140   .debug_str:000000000000079d .LASF9
     /tmp/ccmp3zgW.s:2998   .debug_str:000000000000024f .LASF10
     /tmp/ccmp3zgW.s:3078   .debug_str:00000000000004db .LASF11
     /tmp/ccmp3zgW.s:3132   .debug_str:0000000000000779 .LASF12
     /tmp/ccmp3zgW.s:2948   .debug_str:000000000000009a .LASF13
     /tmp/ccmp3zgW.s:2936   .debug_str:0000000000000025 .LASF14
     /tmp/ccmp3zgW.s:2956   .debug_str:00000000000000f5 .LASF15
     /tmp/ccmp3zgW.s:3106   .debug_str:00000000000005d5 .LASF16
     /tmp/ccmp3zgW.s:2966   .debug_str:0000000000000148 .LASF17
     /tmp/ccmp3zgW.s:3138   .debug_str:0000000000000795 .LASF34
     /tmp/ccmp3zgW.s:3160   .debug_str:0000000000000838 .LASF18
     /tmp/ccmp3zgW.s:3122   .debug_str:000000000000065c .LASF19
     /tmp/ccmp3zgW.s:3038   .debug_str:000000000000039d .LASF24
     /tmp/ccmp3zgW.s:3114   .debug_str:0000000000000615 .LASF20
     /tmp/ccmp3zgW.s:3120   .debug_str:000000000000063b .LASF22
     /tmp/ccmp3zgW.s:3084   .debug_str:000000000000050b .LASF21
     /tmp/ccmp3zgW.s:2996   .debug_str:000000000000022e .LASF23
     /tmp/ccmp3zgW.s:3098   .debug_str:000000000000059b .LASF50
     /tmp/ccmp3zgW.s:3036   .debug_str:0000000000000375 .LASF52
     /tmp/ccmp3zgW.s:2974   .debug_str:0000000000000180 .LASF25
     /tmp/ccmp3zgW.s:2978   .debug_str:000000000000019e .LASF26
     /tmp/ccmp3zgW.s:3094   .debug_str:0000000000000563 .LASF28
     /tmp/ccmp3zgW.s:2952   .debug_str:00000000000000b7 .LASF27
     /tmp/ccmp3zgW.s:3130   .debug_str:0000000000000746 .LASF29
     /tmp/ccmp3zgW.s:2964   .debug_str:0000000000000139 .LASF30
     /tmp/ccmp3zgW.s:3092   .debug_str:0000000000000530 .LASF31
     /tmp/ccmp3zgW.s:3004   .debug_str:0000000000000284 .LASF32
     /tmp/ccmp3zgW.s:3124   .debug_str:0000000000000661 .LASF33
     /tmp/ccmp3zgW.s:2938   .debug_str:0000000000000035 .LASF35
     /tmp/ccmp3zgW.s:2976   .debug_str:0000000000000199 .LASF36
     /tmp/ccmp3zgW.s:3090   .debug_str:0000000000000524 .LASF37
     /tmp/ccmp3zgW.s:3068   .debug_str:000000000000049c .LASF40
     /tmp/ccmp3zgW.s:2960   .debug_str:000000000000011d .LASF42
     /tmp/ccmp3zgW.s:3044   .debug_str:00000000000003c8 .LASF38
     /tmp/ccmp3zgW.s:3008   .debug_str:00000000000002af .LASF39
     /tmp/ccmp3zgW.s:3034   .debug_str:0000000000000368 .LASF41
     /tmp/ccmp3zgW.s:2942   .debug_str:0000000000000057 .LASF43
     /tmp/ccmp3zgW.s:3024   .debug_str:0000000000000326 .LASF44
     /tmp/ccmp3zgW.s:3058   .debug_str:0000000000000423 .LASF45
     /tmp/ccmp3zgW.s:2988   .debug_str:00000000000001e9 .LASF106
     /tmp/ccmp3zgW.s:2958   .debug_str:0000000000000101 .LASF46
     /tmp/ccmp3zgW.s:3150   .debug_str:00000000000007e7 .LASF47
     /tmp/ccmp3zgW.s:3116   .debug_str:000000000000061f .LASF48
     /tmp/ccmp3zgW.s:2982   .debug_str:00000000000001b6 .LASF49
     /tmp/ccmp3zgW.s:3102   .debug_str:00000000000005bf .LASF51
     /tmp/ccmp3zgW.s:3046   .debug_str:00000000000003d4 .LASF53
     /tmp/ccmp3zgW.s:3152   .debug_str:0000000000000816 .LASF107
     /tmp/ccmp3zgW.s:3002   .debug_str:0000000000000270 .LASF108
     /tmp/ccmp3zgW.s:3018   .debug_str:0000000000000311 .LASF54
     /tmp/ccmp3zgW.s:3156   .debug_str:0000000000000829 .LASF55
GAS LISTING /tmp/ccmp3zgW.s 			page 17


     /tmp/ccmp3zgW.s:3020   .debug_str:0000000000000316 .LASF56
     /tmp/ccmp3zgW.s:3088   .debug_str:0000000000000519 .LASF57
     /tmp/ccmp3zgW.s:3016   .debug_str:0000000000000308 .LASF58
     /tmp/ccmp3zgW.s:3026   .debug_str:0000000000000333 .LASF59
     /tmp/ccmp3zgW.s:3006   .debug_str:0000000000000296 .LASF61
     /tmp/ccmp3zgW.s:3146   .debug_str:00000000000007cc .LASF67
     /tmp/ccmp3zgW.s:3010   .debug_str:00000000000002c6 .LASF109
     /tmp/ccmp3zgW.s:3052   .debug_str:0000000000000404 .LASF60
     /tmp/ccmp3zgW.s:3074   .debug_str:00000000000004c2 .LASF62
     /tmp/ccmp3zgW.s:3112   .debug_str:0000000000000604 .LASF63
     /tmp/ccmp3zgW.s:2984   .debug_str:00000000000001cf .LASF64
     /tmp/ccmp3zgW.s:2932   .debug_str:0000000000000000 .LASF65
     /tmp/ccmp3zgW.s:3070   .debug_str:00000000000004a7 .LASF66
     /tmp/ccmp3zgW.s:3136   .debug_str:000000000000078e .LASF68
     /tmp/ccmp3zgW.s:3062   .debug_str:0000000000000456 .LASF110
     /tmp/ccmp3zgW.s:3040   .debug_str:00000000000003ad .LASF111
     /tmp/ccmp3zgW.s:3082   .debug_str:00000000000004f4 .LASF69
     /tmp/ccmp3zgW.s:3022   .debug_str:000000000000031e .LASF88
     /tmp/ccmp3zgW.s:3056   .debug_str:0000000000000414 .LASF90
     /tmp/ccmp3zgW.s:3134   .debug_str:0000000000000788 .LASF70
     /tmp/ccmp3zgW.s:2994   .debug_str:000000000000021b .LASF71
     /tmp/ccmp3zgW.s:2990   .debug_str:00000000000001ee .LASF72
     /tmp/ccmp3zgW.s:3162   .debug_str:000000000000083d .LASF73
     /tmp/ccmp3zgW.s:3000   .debug_str:000000000000025d .LASF74
     /tmp/ccmp3zgW.s:3096   .debug_str:000000000000058c .LASF75
     /tmp/ccmp3zgW.s:3032   .debug_str:0000000000000357 .LASF112
     /tmp/ccmp3zgW.s:3158   .debug_str:000000000000082f .LASF76
     /tmp/ccmp3zgW.s:3154   .debug_str:000000000000081e .LASF113
     /tmp/ccmp3zgW.s:2940   .debug_str:000000000000003d .LASF114
     /tmp/ccmp3zgW.s:3142   .debug_str:00000000000007ad .LASF115
     /tmp/ccmp3zgW.s:3086   .debug_str:0000000000000514 .LASF77
     /tmp/ccmp3zgW.s:3144   .debug_str:00000000000007bd .LASF79
     /tmp/ccmp3zgW.s:466    .text:00000000000001e4 .LFB41
     /tmp/ccmp3zgW.s:501    .text:0000000000000228 .LFE41
     /tmp/ccmp3zgW.s:2696   .debug_loc:0000000000000000 .LLST13
     /tmp/ccmp3zgW.s:489    .text:0000000000000218 .LVL32
     /tmp/ccmp3zgW.s:439    .text:00000000000001c8 .LFB39
     /tmp/ccmp3zgW.s:460    .text:00000000000001e4 .LFE39
     /tmp/ccmp3zgW.s:2962   .debug_str:0000000000000134 .LASF85
     /tmp/ccmp3zgW.s:2714   .debug_loc:000000000000004c .LLST12
     /tmp/ccmp3zgW.s:408    .text:00000000000001a0 .LFB38
     /tmp/ccmp3zgW.s:433    .text:00000000000001c8 .LFE38
     /tmp/ccmp3zgW.s:422    .text:00000000000001b8 .LVL27
     /tmp/ccmp3zgW.s:372    .text:0000000000000170 .LFB37
     /tmp/ccmp3zgW.s:402    .text:00000000000001a0 .LFE37
     /tmp/ccmp3zgW.s:2728   .debug_loc:0000000000000085 .LLST11
     /tmp/ccmp3zgW.s:389    .text:000000000000018c .LVL26
     /tmp/ccmp3zgW.s:3080   .debug_str:00000000000004ea .LASF78
     /tmp/ccmp3zgW.s:2968   .debug_str:000000000000015e .LASF80
     /tmp/ccmp3zgW.s:292    .text:00000000000000f8 .LFB36
     /tmp/ccmp3zgW.s:325    .text:0000000000000138 .LFE36
     /tmp/ccmp3zgW.s:2742   .debug_loc:00000000000000be .LLST7
     /tmp/ccmp3zgW.s:309    .text:0000000000000118 .LVL18
     /tmp/ccmp3zgW.s:312    .text:0000000000000124 .LVL19
     /tmp/ccmp3zgW.s:3126   .debug_str:0000000000000673 .LASF81
     /tmp/ccmp3zgW.s:227    .text:00000000000000a0 .LFB34
     /tmp/ccmp3zgW.s:284    .text:00000000000000f8 .LFE34
GAS LISTING /tmp/ccmp3zgW.s 			page 18


     /tmp/ccmp3zgW.s:2760   .debug_loc:000000000000010a .LLST5
     /tmp/ccmp3zgW.s:251    .text:00000000000000c8 .LBB7
     /tmp/ccmp3zgW.s:265    .text:00000000000000d8 .LBE7
     /tmp/ccmp3zgW.s:2774   .debug_loc:0000000000000143 .LLST6
     /tmp/ccmp3zgW.s:262    .text:00000000000000d8 .LVL15
     /tmp/ccmp3zgW.s:269    .text:00000000000000e4 .LVL16
     /tmp/ccmp3zgW.s:2992   .debug_str:0000000000000204 .LASF82
     /tmp/ccmp3zgW.s:331    .text:0000000000000138 .LFB31
     /tmp/ccmp3zgW.s:364    .text:0000000000000170 .LFE31
     /tmp/ccmp3zgW.s:2781   .debug_loc:0000000000000166 .LLST8
     /tmp/ccmp3zgW.s:2801   .debug_loc:00000000000001b4 .LLST9
     /tmp/ccmp3zgW.s:2815   .debug_loc:00000000000001ed .LLST10
     /tmp/ccmp3zgW.s:352    .text:0000000000000160 .LVL23
     /tmp/ccmp3zgW.s:3014   .debug_str:00000000000002f5 .LASF83
     /tmp/ccmp3zgW.s:3108   .debug_str:00000000000005eb .LASF84
     /tmp/ccmp3zgW.s:186    .text:0000000000000078 .LFB29
     /tmp/ccmp3zgW.s:214    .text:00000000000000a0 .LFE29
     /tmp/ccmp3zgW.s:2829   .debug_loc:0000000000000226 .LLST4
     /tmp/ccmp3zgW.s:203    .text:0000000000000090 .LVL11
     /tmp/ccmp3zgW.s:3118   .debug_str:000000000000062b .LASF86
     /tmp/ccmp3zgW.s:3164   .debug_str:0000000000000843 .LASF87
     /tmp/ccmp3zgW.s:144    .text:0000000000000050 .LFB28
     /tmp/ccmp3zgW.s:172    .text:0000000000000078 .LFE28
     /tmp/ccmp3zgW.s:2843   .debug_loc:000000000000025f .LLST3
     /tmp/ccmp3zgW.s:161    .text:0000000000000068 .LVL9
     /tmp/ccmp3zgW.s:3104   .debug_str:00000000000005c5 .LASF89
     /tmp/ccmp3zgW.s:3076   .debug_str:00000000000004d5 .LASF91
     /tmp/ccmp3zgW.s:112    .text:0000000000000028 .LFB27
     /tmp/ccmp3zgW.s:138    .text:0000000000000050 .LFE27
     /tmp/ccmp3zgW.s:2857   .debug_loc:0000000000000298 .LLST2
     /tmp/ccmp3zgW.s:127    .text:0000000000000040 .LVL7
     /tmp/ccmp3zgW.s:3148   .debug_str:00000000000007da .LASF92
     /tmp/ccmp3zgW.s:3030   .debug_str:0000000000000351 .LASF93
     /tmp/ccmp3zgW.s:79     .text:0000000000000000 .LFB26
     /tmp/ccmp3zgW.s:106    .text:0000000000000028 .LFE26
     /tmp/ccmp3zgW.s:2871   .debug_loc:00000000000002d1 .LLST1
     /tmp/ccmp3zgW.s:95     .text:0000000000000018 .LVL5
     /tmp/ccmp3zgW.s:37     .text._ZN6Thread10runWrapperEPv:0000000000000000 .LFB25
     /tmp/ccmp3zgW.s:72     .text._ZN6Thread10runWrapperEPv:0000000000000034 .LFE25
     /tmp/ccmp3zgW.s:3054   .debug_str:000000000000040d .LASF94
     /tmp/ccmp3zgW.s:2885   .debug_loc:000000000000030a .LLST0
     /tmp/ccmp3zgW.s:58     .text._ZN6Thread10runWrapperEPv:0000000000000020 .LVL2
     /tmp/ccmp3zgW.s:11     .text._ZN6Thread3runEv:0000000000000000 .LFB24
     /tmp/ccmp3zgW.s:30     .text._ZN6Thread3runEv:0000000000000018 .LFE24
     /tmp/ccmp3zgW.s:2970   .debug_str:000000000000016d .LASF116
     /tmp/ccmp3zgW.s:2954   .debug_str:00000000000000c6 .LASF95
     /tmp/ccmp3zgW.s:2934   .debug_str:0000000000000009 .LASF97
     /tmp/ccmp3zgW.s:2986   .debug_str:00000000000001d4 .LASF96
     /tmp/ccmp3zgW.s:3028   .debug_str:0000000000000341 .LASF98
     /tmp/ccmp3zgW.s:3072   .debug_str:00000000000004ac .LASF99
     /tmp/ccmp3zgW.s:2950   .debug_str:00000000000000aa .LASF100
     /tmp/ccmp3zgW.s:3064   .debug_str:0000000000000468 .LASF101
     /tmp/ccmp3zgW.s:2980   .debug_str:00000000000001a8 .LASF102
     /tmp/ccmp3zgW.s:469    .text:00000000000001e4 .LVL30
     /tmp/ccmp3zgW.s:487    .text:0000000000000210 .LVL31
     /tmp/ccmp3zgW.s:442    .text:00000000000001c8 .LVL28
     /tmp/ccmp3zgW.s:452    .text:00000000000001d8 .LVL29
GAS LISTING /tmp/ccmp3zgW.s 			page 19


     /tmp/ccmp3zgW.s:375    .text:0000000000000170 .LVL24
     /tmp/ccmp3zgW.s:387    .text:0000000000000184 .LVL25
     /tmp/ccmp3zgW.s:295    .text:00000000000000f8 .LVL17
     /tmp/ccmp3zgW.s:320    .text:0000000000000130 .LVL20
     /tmp/ccmp3zgW.s:230    .text:00000000000000a0 .LVL12
     /tmp/ccmp3zgW.s:257    .text:00000000000000cc .LVL14
     /tmp/ccmp3zgW.s:250    .text:00000000000000c8 .LVL13
     /tmp/ccmp3zgW.s:334    .text:0000000000000138 .LVL21
     /tmp/ccmp3zgW.s:350    .text:0000000000000158 .LVL22
     /tmp/ccmp3zgW.s:191    .text:0000000000000078 .LVL10
     /tmp/ccmp3zgW.s:149    .text:0000000000000050 .LVL8
     /tmp/ccmp3zgW.s:115    .text:0000000000000028 .LVL6
     /tmp/ccmp3zgW.s:83     .text:0000000000000000 .LVL4
     /tmp/ccmp3zgW.s:40     .text._ZN6Thread10runWrapperEPv:0000000000000000 .LVL1
     /tmp/ccmp3zgW.s:68     .text._ZN6Thread10runWrapperEPv:0000000000000030 .LVL3
     /tmp/ccmp3zgW.s:522    .debug_info:0000000000000000 .Ldebug_info0
     /tmp/ccmp3zgW.s:5      .text:0000000000000000 .Ltext0
     /tmp/ccmp3zgW.s:517    .text:0000000000000228 .Letext0
     /tmp/ccmp3zgW.s:175    .gcc_except_table:0000000000000000 .LLSDA28
     /tmp/ccmp3zgW.s:216    .gcc_except_table:0000000000000004 .LLSDA29

UNDEFINED SYMBOLS
_ZN15MemoryAllocator9mem_allocEm
_ZN15MemoryAllocator8mem_freeEPv
__gxx_personality_v0
_Z13thread_createPP3TCBPFvPvES2_
_Z12thread_startP3TCB
_Z15thread_dispatchv
_Z27thread_create_without_startPP3TCBPFvPvES2_
