GAS LISTING /tmp/ccwEsnVK.s 			page 1


   1              		.file	"tcb.cpp"
   2              		.option pic
   3              		.option norelax
   4              		.text
   5              	.Ltext0:
   6              		.align	2
   7              		.globl	_ZN3TCB12createThreadEPFvvE
   9              	_ZN3TCB12createThreadEPFvvE:
  10              	.LFB41:
  11              		.file 1 "src/tcb.cpp"
   1:src/tcb.cpp   **** #include "../h/tcb.hpp"
   2:src/tcb.cpp   **** #include "../h/riscv.hpp"
   3:src/tcb.cpp   **** #include "../h/scheduler.hpp"
   4:src/tcb.cpp   **** 
   5:src/tcb.cpp   **** TCB* TCB::running = nullptr;
   6:src/tcb.cpp   **** 
   7:src/tcb.cpp   **** TCB* TCB::createThread(Body body) {
  12              		.loc 1 7 35
  13              		.cfi_startproc
  14              		.cfi_personality 0x9b,DW.ref.__gxx_personality_v0
  15              		.cfi_lsda 0x1b,.LLSDA41
  16              	.LVL0:
  17 0000 130101FE 		addi	sp,sp,-32
  18              		.cfi_def_cfa_offset 32
  19 0004 233C1100 		sd	ra,24(sp)
  20 0008 23388100 		sd	s0,16(sp)
  21 000c 23349100 		sd	s1,8(sp)
  22 0010 23302101 		sd	s2,0(sp)
  23              		.cfi_offset 1, -8
  24              		.cfi_offset 8, -16
  25              		.cfi_offset 9, -24
  26              		.cfi_offset 18, -32
  27 0014 13040102 		addi	s0,sp,32
  28              		.cfi_def_cfa 8, 0
  29 0018 13090500 		mv	s2,a0
   8:src/tcb.cpp   ****     return new TCB(body);
  30              		.loc 1 8 5
  31              		.loc 1 8 24 is_stmt 0
  32 001c 13058002 		li	a0,40
  33              	.LVL1:
  34              	.LEHB0:
  35 0020 97000000 		call	_Znwm@plt
  35      E7800000 
  36              	.LVL2:
  37              	.LEHE0:
  38 0028 93040500 		mv	s1,a0
  39              	.LVL3:
  40              	.LBB7:
  41              	.LBB8:
  42              		.file 2 "src/../h/tcb.hpp"
   1:src/../h/tcb.hpp **** #ifndef TCB_H
   2:src/../h/tcb.hpp **** #define TCB_H
   3:src/../h/tcb.hpp **** 
   4:src/../h/tcb.hpp **** #include "../lib/hw.h"
   5:src/../h/tcb.hpp **** #include "../h/scheduler.hpp"
   6:src/../h/tcb.hpp **** 
   7:src/../h/tcb.hpp **** class TCB {
GAS LISTING /tmp/ccwEsnVK.s 			page 2


   8:src/../h/tcb.hpp **** public:
   9:src/../h/tcb.hpp ****     ~TCB(){ delete[] stack; }
  10:src/../h/tcb.hpp **** 
  11:src/../h/tcb.hpp ****     bool isFinished() const { return finished; }
  12:src/../h/tcb.hpp **** 
  13:src/../h/tcb.hpp ****     void setFinished(bool finished) { this->finished = finished; }
  14:src/../h/tcb.hpp **** 
  15:src/../h/tcb.hpp ****     using Body = void (*)();
  16:src/../h/tcb.hpp **** 
  17:src/../h/tcb.hpp ****     static TCB* createThread(Body body);
  18:src/../h/tcb.hpp **** 
  19:src/../h/tcb.hpp ****     static void yield();
  20:src/../h/tcb.hpp **** 
  21:src/../h/tcb.hpp ****     static TCB* running;
  22:src/../h/tcb.hpp **** 
  23:src/../h/tcb.hpp **** private:
  24:src/../h/tcb.hpp ****     TCB(Body body) :
  25:src/../h/tcb.hpp ****         body(body),
  26:src/../h/tcb.hpp ****         stack(body != nullptr ? new uint64[DEFAULT_STACK_SIZE] : nullptr),
  27:src/../h/tcb.hpp ****         context({
  28:src/../h/tcb.hpp ****             body != nullptr ? (uint64) body : 0,
  29:src/../h/tcb.hpp ****             stack != nullptr ? (uint64)&stack[DEFAULT_STACK_SIZE] : 0
  30:src/../h/tcb.hpp ****         }),
  31:src/../h/tcb.hpp ****         finished(false) {
  43              		.loc 2 31 23
  44 002c 23302501 		sd	s2,0(a0)
  26:src/../h/tcb.hpp ****         context({
  45              		.loc 2 26 31
  46 0030 630A0900 		beqz	s2,.L7
  26:src/../h/tcb.hpp ****         context({
  47              		.loc 2 26 62
  48 0034 37850000 		li	a0,32768
  49              	.LEHB1:
  50 0038 97000000 		call	_Znam@plt
  50      E7800000 
  51              	.LVL4:
  52 0040 6F008000 		j	.L2
  53              	.L7:
  26:src/../h/tcb.hpp ****         context({
  54              		.loc 2 26 31
  55 0044 13050000 		li	a0,0
  56              	.L2:
  57              		.loc 2 31 23
  58 0048 23B4A400 		sd	a0,8(s1)
  28:src/../h/tcb.hpp ****             stack != nullptr ? (uint64)&stack[DEFAULT_STACK_SIZE] : 0
  59              		.loc 2 28 29
  60 004c 630A0902 		beqz	s2,.L8
  61 0050 93070900 		mv	a5,s2
  62              	.L3:
  63              		.loc 2 31 23
  64 0054 23B8F400 		sd	a5,16(s1)
  29:src/../h/tcb.hpp ****         }),
  65              		.loc 2 29 30
  66 0058 63080502 		beqz	a0,.L9
  29:src/../h/tcb.hpp ****         }),
  67              		.loc 2 29 40
  68 005c B7870000 		li	a5,32768
GAS LISTING /tmp/ccwEsnVK.s 			page 3


  69 0060 3305F500 		add	a0,a0,a5
  70              	.L4:
  71              		.loc 2 31 23
  72 0064 23BCA400 		sd	a0,24(s1)
  73 0068 23800402 		sb	zero,32(s1)
  32:src/../h/tcb.hpp ****         if(body != nullptr) Scheduler::put(this);
  74              		.loc 2 32 9 is_stmt 1
  75 006c 63000904 		beqz	s2,.L1
  76              		.loc 2 32 29
  77              		.loc 2 32 43 is_stmt 0
  78 0070 13850400 		mv	a0,s1
  79 0074 97000000 		call	_ZN9Scheduler3putEP3TCB@plt
  79      E7800000 
  80              	.LVL5:
  81              	.LEHE1:
  82 007c 6F000003 		j	.L1
  83              	.L8:
  28:src/../h/tcb.hpp ****             stack != nullptr ? (uint64)&stack[DEFAULT_STACK_SIZE] : 0
  84              		.loc 2 28 29
  85 0080 93070000 		li	a5,0
  86 0084 6FF01FFD 		j	.L3
  87              	.L9:
  29:src/../h/tcb.hpp ****         }),
  88              		.loc 2 29 30
  89 0088 13050000 		li	a0,0
  90 008c 6FF09FFD 		j	.L4
  91              	.L10:
  92 0090 13090500 		mv	s2,a0
  93              	.LVL6:
  94              	.LBE8:
  95              	.LBE7:
  96              		.loc 1 8 24
  97 0094 13850400 		mv	a0,s1
  98 0098 97000000 		call	_ZdlPv@plt
  98      E7800000 
  99              	.LVL7:
 100 00a0 13050900 		mv	a0,s2
 101              	.LEHB2:
 102 00a4 97000000 		call	_Unwind_Resume@plt
 102      E7800000 
 103              	.LVL8:
 104              	.LEHE2:
 105              	.L1:
   9:src/tcb.cpp   **** }
 106              		.loc 1 9 1
 107 00ac 13850400 		mv	a0,s1
 108 00b0 83308101 		ld	ra,24(sp)
 109              		.cfi_restore 1
 110 00b4 03340101 		ld	s0,16(sp)
 111              		.cfi_restore 8
 112              		.cfi_def_cfa 2, 32
 113 00b8 83348100 		ld	s1,8(sp)
 114              		.cfi_restore 9
 115              	.LVL9:
 116 00bc 03390100 		ld	s2,0(sp)
 117              		.cfi_restore 18
 118              	.LVL10:
GAS LISTING /tmp/ccwEsnVK.s 			page 4


 119 00c0 13010102 		addi	sp,sp,32
 120              		.cfi_def_cfa_offset 0
 121 00c4 67800000 		jr	ra
 122              		.cfi_endproc
 123              	.LFE41:
 124              		.globl	__gxx_personality_v0
 125              		.section	.gcc_except_table,"a",@progbits
 126              	.LLSDA41:
 127 0000 FF       		.byte	0xff
 128 0001 FF       		.byte	0xff
 129 0002 03       		.byte	0x3
 130 0003 27       		.byte	0x27
 131 0004 00000000 		.4byte	.LEHB0-.LFB41
 132 0008 00000000 		.4byte	.LEHE0-.LEHB0
 133 000c 00000000 		.4byte	0
 134 0010 00       		.byte	0
 135 0011 00000000 		.4byte	.LEHB1-.LFB41
 136 0015 00000000 		.4byte	.LEHE1-.LEHB1
 137 0019 00000000 		.4byte	.L10-.LFB41
 138 001d 00       		.byte	0
 139 001e 00000000 		.4byte	.LEHB2-.LFB41
 140 0022 00000000 		.4byte	.LEHE2-.LEHB2
 141 0026 00000000 		.4byte	0
 142 002a 00       		.byte	0
 143              		.text
 145              		.align	2
 146              		.globl	_ZN3TCB8dispatchEv
 148              	_ZN3TCB8dispatchEv:
 149              	.LFB43:
  10:src/tcb.cpp   **** 
  11:src/tcb.cpp   **** void TCB::yield() {
  12:src/tcb.cpp   ****     Riscv::pushRegisters();
  13:src/tcb.cpp   **** 
  14:src/tcb.cpp   ****     TCB::dispatch();
  15:src/tcb.cpp   **** 
  16:src/tcb.cpp   ****     Riscv::popRegisters();
  17:src/tcb.cpp   **** }
  18:src/tcb.cpp   **** 
  19:src/tcb.cpp   **** void TCB::dispatch() {
 150              		.loc 1 19 22 is_stmt 1
 151              		.cfi_startproc
 152 00c8 130101FE 		addi	sp,sp,-32
 153              		.cfi_def_cfa_offset 32
 154 00cc 233C1100 		sd	ra,24(sp)
 155 00d0 23388100 		sd	s0,16(sp)
 156 00d4 23349100 		sd	s1,8(sp)
 157              		.cfi_offset 1, -8
 158              		.cfi_offset 8, -16
 159              		.cfi_offset 9, -24
 160 00d8 13040102 		addi	s0,sp,32
 161              		.cfi_def_cfa 8, 0
  20:src/tcb.cpp   ****     TCB* old = running;
 162              		.loc 1 20 5
 163              		.loc 1 20 10 is_stmt 0
 164 00dc 97040000 		ld	s1,.LANCHOR0
 164      83B40400 
 165              	.LVL11:
GAS LISTING /tmp/ccwEsnVK.s 			page 5


  21:src/tcb.cpp   ****     if(!old->isFinished()){ Scheduler::put(old); }
 166              		.loc 1 21 5 is_stmt 1
 167              	.LBB9:
 168              	.LBB10:
  11:src/../h/tcb.hpp **** 
 169              		.loc 2 11 31
  11:src/../h/tcb.hpp **** 
 170              		.loc 2 11 38 is_stmt 0
 171 00e4 83C70402 		lbu	a5,32(s1)
 172              	.LVL12:
 173              	.LBE10:
 174              	.LBE9:
 175              		.loc 1 21 5
 176 00e8 638C0702 		beqz	a5,.L15
 177              	.L13:
  22:src/tcb.cpp   ****     running = Scheduler::get();
 178              		.loc 1 22 5 is_stmt 1
 179              		.loc 1 22 29 is_stmt 0
 180 00ec 97000000 		call	_ZN9Scheduler3getEv@plt
 180      E7800000 
 181              	.LVL13:
 182              		.loc 1 22 13
 183 00f4 97070000 		sd	a0,.LANCHOR0,a5
 183      23B0A700 
  23:src/tcb.cpp   **** 
  24:src/tcb.cpp   ****     TCB::contextSwitch(&old->context, &running->context);
 184              		.loc 1 24 5 is_stmt 1
 185              		.loc 1 24 23 is_stmt 0
 186 00fc 93050501 		addi	a1,a0,16
 187 0100 13850401 		addi	a0,s1,16
 188 0104 97000000 		call	_ZN3TCB13contextSwitchEPNS_7ContextES1_@plt
 188      E7800000 
 189              	.LVL14:
  25:src/tcb.cpp   **** }...
 190              		.loc 1 25 1
 191 010c 83308101 		ld	ra,24(sp)
 192              		.cfi_remember_state
 193              		.cfi_restore 1
 194 0110 03340101 		ld	s0,16(sp)
 195              		.cfi_restore 8
 196              		.cfi_def_cfa 2, 32
 197 0114 83348100 		ld	s1,8(sp)
 198              		.cfi_restore 9
 199              	.LVL15:
 200 0118 13010102 		addi	sp,sp,32
 201              		.cfi_def_cfa_offset 0
 202 011c 67800000 		jr	ra
 203              	.LVL16:
 204              	.L15:
 205              		.cfi_restore_state
  21:src/tcb.cpp   ****     if(!old->isFinished()){ Scheduler::put(old); }
 206              		.loc 1 21 29 is_stmt 1 discriminator 1
  21:src/tcb.cpp   ****     if(!old->isFinished()){ Scheduler::put(old); }
 207              		.loc 1 21 43 is_stmt 0 discriminator 1
 208 0120 13850400 		mv	a0,s1
 209 0124 97000000 		call	_ZN9Scheduler3putEP3TCB@plt
 209      E7800000 
GAS LISTING /tmp/ccwEsnVK.s 			page 6


 210              	.LVL17:
 211 012c 6FF01FFC 		j	.L13
 212              		.cfi_endproc
 213              	.LFE43:
 215              		.align	2
 216              		.globl	_ZN3TCB5yieldEv
 218              	_ZN3TCB5yieldEv:
 219              	.LFB42:
  11:src/tcb.cpp   **** void TCB::yield() {
 220              		.loc 1 11 19 is_stmt 1
 221              		.cfi_startproc
 222 0130 130101FF 		addi	sp,sp,-16
 223              		.cfi_def_cfa_offset 16
 224 0134 23341100 		sd	ra,8(sp)
 225 0138 23308100 		sd	s0,0(sp)
 226              		.cfi_offset 1, -8
 227              		.cfi_offset 8, -16
 228 013c 13040101 		addi	s0,sp,16
 229              		.cfi_def_cfa 8, 0
  12:src/tcb.cpp   ****     Riscv::pushRegisters();
 230              		.loc 1 12 5
  12:src/tcb.cpp   ****     Riscv::pushRegisters();
 231              		.loc 1 12 25 is_stmt 0
 232 0140 97000000 		call	_ZN5Riscv13pushRegistersEv@plt
 232      E7800000 
 233              	.LVL18:
  14:src/tcb.cpp   ****     TCB::dispatch();
 234              		.loc 1 14 5 is_stmt 1
  14:src/tcb.cpp   ****     TCB::dispatch();
 235              		.loc 1 14 18 is_stmt 0
 236 0148 97000000 		call	_ZN3TCB8dispatchEv
 236      E7800000 
 237              	.LVL19:
  16:src/tcb.cpp   ****     Riscv::popRegisters();
 238              		.loc 1 16 5 is_stmt 1
  16:src/tcb.cpp   ****     Riscv::popRegisters();
 239              		.loc 1 16 24 is_stmt 0
 240 0150 97000000 		call	_ZN5Riscv12popRegistersEv@plt
 240      E7800000 
 241              	.LVL20:
  17:src/tcb.cpp   **** }
 242              		.loc 1 17 1
 243 0158 83308100 		ld	ra,8(sp)
 244              		.cfi_restore 1
 245 015c 03340100 		ld	s0,0(sp)
 246              		.cfi_restore 8
 247              		.cfi_def_cfa 2, 16
 248 0160 13010101 		addi	sp,sp,16
 249              		.cfi_def_cfa_offset 0
 250 0164 67800000 		jr	ra
 251              		.cfi_endproc
 252              	.LFE42:
 254              		.globl	_ZN3TCB7runningE
 255              		.bss
 256              		.align	3
 257              		.set	.LANCHOR0,. + 0
 260              	_ZN3TCB7runningE:
GAS LISTING /tmp/ccwEsnVK.s 			page 7


 261 0000 00000000 		.zero	8
 261      00000000 
 262              		.text
 263              	.Letext0:
 264              		.file 3 "src/../h/../lib/hw.h"
 265              		.file 4 "src/../h/../h/scheduler.hpp"
 266              		.file 5 "src/../h/riscv.hpp"
 2158              		.align	3
 2161              	DW.ref.__gxx_personality_v0:
 2162 0000 00000000 		.dword	__gxx_personality_v0
 2162      00000000 
 2163              		.ident	"GCC: (Ubuntu 9.4.0-1ubuntu1~20.04) 9.4.0"
 2164              		.section	.note.GNU-stack,"",@progbits
GAS LISTING /tmp/ccwEsnVK.s 			page 8


DEFINED SYMBOLS
                            *ABS*:0000000000000000 tcb.cpp
     /tmp/ccwEsnVK.s:9      .text:0000000000000000 _ZN3TCB12createThreadEPFvvE
     /tmp/ccwEsnVK.s:13     .text:0000000000000000 .L0 
     /tmp/ccwEsnVK.s:2161   .data.rel.local.DW.ref.__gxx_personality_v0:0000000000000000 DW.ref.__gxx_personality_v0
     /tmp/ccwEsnVK.s:17     .text:0000000000000000 .L0 
     /tmp/ccwEsnVK.s:18     .text:0000000000000004 .L0 
     /tmp/ccwEsnVK.s:23     .text:0000000000000014 .L0 
     /tmp/ccwEsnVK.s:24     .text:0000000000000014 .L0 
     /tmp/ccwEsnVK.s:25     .text:0000000000000014 .L0 
     /tmp/ccwEsnVK.s:26     .text:0000000000000014 .L0 
     /tmp/ccwEsnVK.s:28     .text:0000000000000018 .L0 
     /tmp/ccwEsnVK.s:31     .text:000000000000001c .L0 
     /tmp/ccwEsnVK.s:32     .text:000000000000001c .L0 
     /tmp/ccwEsnVK.s:44     .text:000000000000002c .L0 
     /tmp/ccwEsnVK.s:46     .text:0000000000000030 .L0 
     /tmp/ccwEsnVK.s:48     .text:0000000000000034 .L0 
     /tmp/ccwEsnVK.s:55     .text:0000000000000044 .L0 
     /tmp/ccwEsnVK.s:58     .text:0000000000000048 .L0 
     /tmp/ccwEsnVK.s:60     .text:000000000000004c .L0 
     /tmp/ccwEsnVK.s:64     .text:0000000000000054 .L0 
     /tmp/ccwEsnVK.s:66     .text:0000000000000058 .L0 
     /tmp/ccwEsnVK.s:68     .text:000000000000005c .L0 
     /tmp/ccwEsnVK.s:72     .text:0000000000000064 .L0 
     /tmp/ccwEsnVK.s:75     .text:000000000000006c .L0 
     /tmp/ccwEsnVK.s:77     .text:0000000000000070 .L0 
     /tmp/ccwEsnVK.s:78     .text:0000000000000070 .L0 
     /tmp/ccwEsnVK.s:85     .text:0000000000000080 .L0 
     /tmp/ccwEsnVK.s:89     .text:0000000000000088 .L0 
     /tmp/ccwEsnVK.s:97     .text:0000000000000094 .L0 
     /tmp/ccwEsnVK.s:107    .text:00000000000000ac .L0 
     /tmp/ccwEsnVK.s:109    .text:00000000000000b4 .L0 
     /tmp/ccwEsnVK.s:111    .text:00000000000000b8 .L0 
     /tmp/ccwEsnVK.s:112    .text:00000000000000b8 .L0 
     /tmp/ccwEsnVK.s:114    .text:00000000000000bc .L0 
     /tmp/ccwEsnVK.s:117    .text:00000000000000c0 .L0 
     /tmp/ccwEsnVK.s:120    .text:00000000000000c4 .L0 
     /tmp/ccwEsnVK.s:122    .text:00000000000000c8 .L0 
     /tmp/ccwEsnVK.s:148    .text:00000000000000c8 _ZN3TCB8dispatchEv
     /tmp/ccwEsnVK.s:151    .text:00000000000000c8 .L0 
     /tmp/ccwEsnVK.s:152    .text:00000000000000c8 .L0 
     /tmp/ccwEsnVK.s:153    .text:00000000000000cc .L0 
     /tmp/ccwEsnVK.s:157    .text:00000000000000d8 .L0 
     /tmp/ccwEsnVK.s:158    .text:00000000000000d8 .L0 
     /tmp/ccwEsnVK.s:159    .text:00000000000000d8 .L0 
     /tmp/ccwEsnVK.s:161    .text:00000000000000dc .L0 
     /tmp/ccwEsnVK.s:163    .text:00000000000000dc .L0 
     /tmp/ccwEsnVK.s:164    .text:00000000000000dc .L0 
     /tmp/ccwEsnVK.s:169    .text:00000000000000e4 .L0 
     /tmp/ccwEsnVK.s:170    .text:00000000000000e4 .L0 
     /tmp/ccwEsnVK.s:171    .text:00000000000000e4 .L0 
     /tmp/ccwEsnVK.s:176    .text:00000000000000e8 .L0 
     /tmp/ccwEsnVK.s:179    .text:00000000000000ec .L0 
     /tmp/ccwEsnVK.s:180    .text:00000000000000ec .L0 
     /tmp/ccwEsnVK.s:183    .text:00000000000000f4 .L0 
     /tmp/ccwEsnVK.s:185    .text:00000000000000fc .L0 
     /tmp/ccwEsnVK.s:186    .text:00000000000000fc .L0 
GAS LISTING /tmp/ccwEsnVK.s 			page 9


     /tmp/ccwEsnVK.s:191    .text:000000000000010c .L0 
     /tmp/ccwEsnVK.s:192    .text:0000000000000110 .L0 
     /tmp/ccwEsnVK.s:193    .text:0000000000000110 .L0 
     /tmp/ccwEsnVK.s:195    .text:0000000000000114 .L0 
     /tmp/ccwEsnVK.s:196    .text:0000000000000114 .L0 
     /tmp/ccwEsnVK.s:198    .text:0000000000000118 .L0 
     /tmp/ccwEsnVK.s:201    .text:000000000000011c .L0 
     /tmp/ccwEsnVK.s:205    .text:0000000000000120 .L0 
     /tmp/ccwEsnVK.s:207    .text:0000000000000120 .L0 
     /tmp/ccwEsnVK.s:208    .text:0000000000000120 .L0 
     /tmp/ccwEsnVK.s:212    .text:0000000000000130 .L0 
     /tmp/ccwEsnVK.s:218    .text:0000000000000130 _ZN3TCB5yieldEv
     /tmp/ccwEsnVK.s:221    .text:0000000000000130 .L0 
     /tmp/ccwEsnVK.s:222    .text:0000000000000130 .L0 
     /tmp/ccwEsnVK.s:223    .text:0000000000000134 .L0 
     /tmp/ccwEsnVK.s:226    .text:000000000000013c .L0 
     /tmp/ccwEsnVK.s:227    .text:000000000000013c .L0 
     /tmp/ccwEsnVK.s:229    .text:0000000000000140 .L0 
     /tmp/ccwEsnVK.s:231    .text:0000000000000140 .L0 
     /tmp/ccwEsnVK.s:232    .text:0000000000000140 .L0 
     /tmp/ccwEsnVK.s:235    .text:0000000000000148 .L0 
     /tmp/ccwEsnVK.s:236    .text:0000000000000148 .L0 
     /tmp/ccwEsnVK.s:239    .text:0000000000000150 .L0 
     /tmp/ccwEsnVK.s:240    .text:0000000000000150 .L0 
     /tmp/ccwEsnVK.s:243    .text:0000000000000158 .L0 
     /tmp/ccwEsnVK.s:244    .text:000000000000015c .L0 
     /tmp/ccwEsnVK.s:246    .text:0000000000000160 .L0 
     /tmp/ccwEsnVK.s:247    .text:0000000000000160 .L0 
     /tmp/ccwEsnVK.s:249    .text:0000000000000164 .L0 
     /tmp/ccwEsnVK.s:251    .text:0000000000000168 .L0 
     /tmp/ccwEsnVK.s:260    .bss:0000000000000000 _ZN3TCB7runningE
     /tmp/ccwEsnVK.s:257    .bss:0000000000000000 .LANCHOR0
     /tmp/ccwEsnVK.s:267    .text:0000000000000168 .L0 
     /tmp/ccwEsnVK.s:164    .text:00000000000000dc .L0 
     /tmp/ccwEsnVK.s:183    .text:00000000000000f4 .L0 
     /tmp/ccwEsnVK.s:53     .text:0000000000000044 .L7
     /tmp/ccwEsnVK.s:56     .text:0000000000000048 .L2
     /tmp/ccwEsnVK.s:83     .text:0000000000000080 .L8
     /tmp/ccwEsnVK.s:87     .text:0000000000000088 .L9
     /tmp/ccwEsnVK.s:105    .text:00000000000000ac .L1
     /tmp/ccwEsnVK.s:62     .text:0000000000000054 .L3
     /tmp/ccwEsnVK.s:70     .text:0000000000000064 .L4
     /tmp/ccwEsnVK.s:204    .text:0000000000000120 .L15
     /tmp/ccwEsnVK.s:177    .text:00000000000000ec .L13
     /tmp/ccwEsnVK.s:34     .text:0000000000000020 .LEHB0
     /tmp/ccwEsnVK.s:10     .text:0000000000000000 .LFB41
     /tmp/ccwEsnVK.s:37     .text:0000000000000028 .LEHE0
     /tmp/ccwEsnVK.s:49     .text:0000000000000038 .LEHB1
     /tmp/ccwEsnVK.s:81     .text:000000000000007c .LEHE1
     /tmp/ccwEsnVK.s:91     .text:0000000000000090 .L10
     /tmp/ccwEsnVK.s:101    .text:00000000000000a4 .LEHB2
     /tmp/ccwEsnVK.s:104    .text:00000000000000ac .LEHE2
     /tmp/ccwEsnVK.s:1079   .debug_abbrev:0000000000000000 .Ldebug_abbrev0
     /tmp/ccwEsnVK.s:2123   .debug_str:00000000000005f9 .LASF100
     /tmp/ccwEsnVK.s:2035   .debug_str:000000000000034c .LASF101
     /tmp/ccwEsnVK.s:1947   .debug_str:0000000000000088 .LASF102
     /tmp/ccwEsnVK.s:5      .text:0000000000000000 .Ltext0
GAS LISTING /tmp/ccwEsnVK.s 			page 10


     /tmp/ccwEsnVK.s:263    .text:0000000000000168 .Letext0
     /tmp/ccwEsnVK.s:1925   .debug_line:0000000000000000 .Ldebug_line0
     /tmp/ccwEsnVK.s:2051   .debug_str:00000000000003b7 .LASF0
     /tmp/ccwEsnVK.s:2061   .debug_str:00000000000003e0 .LASF1
     /tmp/ccwEsnVK.s:2039   .debug_str:000000000000035f .LASF2
     /tmp/ccwEsnVK.s:2015   .debug_str:00000000000002cd .LASF4
     /tmp/ccwEsnVK.s:2101   .debug_str:0000000000000553 .LASF3
     /tmp/ccwEsnVK.s:1949   .debug_str:00000000000000ab .LASF5
     /tmp/ccwEsnVK.s:2065   .debug_str:0000000000000408 .LASF6
     /tmp/ccwEsnVK.s:2049   .debug_str:00000000000003a4 .LASF7
     /tmp/ccwEsnVK.s:2129   .debug_str:00000000000006ea .LASF8
     /tmp/ccwEsnVK.s:2003   .debug_str:000000000000024a .LASF9
     /tmp/ccwEsnVK.s:2077   .debug_str:0000000000000485 .LASF10
     /tmp/ccwEsnVK.s:2125   .debug_str:00000000000006bd .LASF11
     /tmp/ccwEsnVK.s:1953   .debug_str:00000000000000b7 .LASF12
     /tmp/ccwEsnVK.s:1931   .debug_str:0000000000000022 .LASF13
     /tmp/ccwEsnVK.s:1963   .debug_str:0000000000000119 .LASF14
     /tmp/ccwEsnVK.s:2091   .debug_str:00000000000004ff .LASF15
     /tmp/ccwEsnVK.s:1969   .debug_str:0000000000000152 .LASF16
     /tmp/ccwEsnVK.s:2075   .debug_str:000000000000047b .LASF17
     /tmp/ccwEsnVK.s:1993   .debug_str:0000000000000201 .LASF28
     /tmp/ccwEsnVK.s:2027   .debug_str:0000000000000302 .LASF24
     /tmp/ccwEsnVK.s:2081   .debug_str:00000000000004b0 .LASF26
     /tmp/ccwEsnVK.s:2011   .debug_str:0000000000000291 .LASF103
     /tmp/ccwEsnVK.s:1959   .debug_str:00000000000000f7 .LASF104
     /tmp/ccwEsnVK.s:2031   .debug_str:000000000000032c .LASF105
     /tmp/ccwEsnVK.s:1937   .debug_str:0000000000000041 .LASF106
     /tmp/ccwEsnVK.s:1977   .debug_str:000000000000019c .LASF18
     /tmp/ccwEsnVK.s:2085   .debug_str:00000000000004e3 .LASF20
     /tmp/ccwEsnVK.s:2067   .debug_str:000000000000041b .LASF107
     /tmp/ccwEsnVK.s:2001   .debug_str:0000000000000233 .LASF108
     /tmp/ccwEsnVK.s:2041   .debug_str:000000000000036d .LASF19
     /tmp/ccwEsnVK.s:2149   .debug_str:0000000000000773 .LASF21
     /tmp/ccwEsnVK.s:2025   .debug_str:00000000000002f5 .LASF22
     /tmp/ccwEsnVK.s:2079   .debug_str:0000000000000494 .LASF23
     /tmp/ccwEsnVK.s:2087   .debug_str:00000000000004ef .LASF109
     /tmp/ccwEsnVK.s:2093   .debug_str:0000000000000515 .LASF25
     /tmp/ccwEsnVK.s:2045   .debug_str:0000000000000383 .LASF27
     /tmp/ccwEsnVK.s:1983   .debug_str:00000000000001c5 .LASF29
     /tmp/ccwEsnVK.s:2097   .debug_str:000000000000052b .LASF110
     /tmp/ccwEsnVK.s:2019   .debug_str:00000000000002dd .LASF30
     /tmp/ccwEsnVK.s:2057   .debug_str:00000000000003d4 .LASF31
     /tmp/ccwEsnVK.s:2023   .debug_str:00000000000002ed .LASF32
     /tmp/ccwEsnVK.s:2017   .debug_str:00000000000002d4 .LASF33
     /tmp/ccwEsnVK.s:2135   .debug_str:0000000000000715 .LASF34
     /tmp/ccwEsnVK.s:2013   .debug_str:00000000000002a5 .LASF111
     /tmp/ccwEsnVK.s:2055   .debug_str:00000000000003cb .LASF83
     /tmp/ccwEsnVK.s:1989   .debug_str:00000000000001e9 .LASF85
     /tmp/ccwEsnVK.s:1991   .debug_str:00000000000001fc .LASF35
     /tmp/ccwEsnVK.s:2059   .debug_str:00000000000003da .LASF36
     /tmp/ccwEsnVK.s:1945   .debug_str:000000000000007a .LASF37
     /tmp/ccwEsnVK.s:1981   .debug_str:00000000000001aa .LASF38
     /tmp/ccwEsnVK.s:2113   .debug_str:00000000000005bb .LASF39
     /tmp/ccwEsnVK.s:1929   .debug_str:0000000000000008 .LASF40
     /tmp/ccwEsnVK.s:2089   .debug_str:00000000000004f4 .LASF41
     /tmp/ccwEsnVK.s:2143   .debug_str:0000000000000748 .LASF42
     /tmp/ccwEsnVK.s:1933   .debug_str:0000000000000032 .LASF43
GAS LISTING /tmp/ccwEsnVK.s 			page 11


     /tmp/ccwEsnVK.s:2111   .debug_str:00000000000005a6 .LASF46
     /tmp/ccwEsnVK.s:1979   .debug_str:00000000000001a1 .LASF44
     /tmp/ccwEsnVK.s:1965   .debug_str:0000000000000125 .LASF49
     /tmp/ccwEsnVK.s:2103   .debug_str:0000000000000565 .LASF45
     /tmp/ccwEsnVK.s:2105   .debug_str:000000000000056c .LASF47
     /tmp/ccwEsnVK.s:2121   .debug_str:00000000000005f2 .LASF48
     /tmp/ccwEsnVK.s:2115   .debug_str:00000000000005c8 .LASF50
     /tmp/ccwEsnVK.s:1997   .debug_str:0000000000000225 .LASF51
     /tmp/ccwEsnVK.s:1971   .debug_str:0000000000000168 .LASF52
     /tmp/ccwEsnVK.s:1927   .debug_str:0000000000000000 .LASF53
     /tmp/ccwEsnVK.s:2007   .debug_str:000000000000026e .LASF54
     /tmp/ccwEsnVK.s:1985   .debug_str:00000000000001cd .LASF55
     /tmp/ccwEsnVK.s:1955   .debug_str:00000000000000c7 .LASF56
     /tmp/ccwEsnVK.s:2147   .debug_str:000000000000076b .LASF57
     /tmp/ccwEsnVK.s:1987   .debug_str:00000000000001d5 .LASF58
     /tmp/ccwEsnVK.s:2053   .debug_str:00000000000003c4 .LASF59
     /tmp/ccwEsnVK.s:2139   .debug_str:0000000000000730 .LASF60
     /tmp/ccwEsnVK.s:1943   .debug_str:0000000000000073 .LASF61
     /tmp/ccwEsnVK.s:1995   .debug_str:0000000000000212 .LASF62
     /tmp/ccwEsnVK.s:1999   .debug_str:000000000000022d .LASF63
     /tmp/ccwEsnVK.s:2119   .debug_str:00000000000005e0 .LASF64
     /tmp/ccwEsnVK.s:1941   .debug_str:000000000000006d .LASF65
     /tmp/ccwEsnVK.s:2153   .debug_str:000000000000079b .LASF66
     /tmp/ccwEsnVK.s:2145   .debug_str:0000000000000760 .LASF67
     /tmp/ccwEsnVK.s:2099   .debug_str:000000000000053b .LASF68
     /tmp/ccwEsnVK.s:2021   .debug_str:00000000000002e2 .LASF69
     /tmp/ccwEsnVK.s:2029   .debug_str:0000000000000314 .LASF70
     /tmp/ccwEsnVK.s:1961   .debug_str:000000000000010f .LASF71
     /tmp/ccwEsnVK.s:2033   .debug_str:0000000000000336 .LASF72
     /tmp/ccwEsnVK.s:2043   .debug_str:0000000000000379 .LASF73
     /tmp/ccwEsnVK.s:2005   .debug_str:0000000000000258 .LASF74
     /tmp/ccwEsnVK.s:1973   .debug_str:000000000000017c .LASF75
     /tmp/ccwEsnVK.s:1957   .debug_str:00000000000000db .LASF76
     /tmp/ccwEsnVK.s:1975   .debug_str:000000000000018b .LASF77
     /tmp/ccwEsnVK.s:2127   .debug_str:00000000000006cc .LASF78
     /tmp/ccwEsnVK.s:2117   .debug_str:00000000000005db .LASF79
     /tmp/ccwEsnVK.s:2071   .debug_str:0000000000000448 .LASF80
     /tmp/ccwEsnVK.s:1951   .debug_str:00000000000000b2 .LASF81
     /tmp/ccwEsnVK.s:2047   .debug_str:0000000000000393 .LASF82
     /tmp/ccwEsnVK.s:2131   .debug_str:00000000000006fa .LASF84
     /tmp/ccwEsnVK.s:2069   .debug_str:0000000000000426 .LASF86
     /tmp/ccwEsnVK.s:2063   .debug_str:00000000000003f3 .LASF87
     /tmp/ccwEsnVK.s:2073   .debug_str:0000000000000459 .LASF88
     /tmp/ccwEsnVK.s:2109   .debug_str:000000000000058f .LASF89
     /tmp/ccwEsnVK.s:1939   .debug_str:0000000000000049 .LASF90
     /tmp/ccwEsnVK.s:2151   .debug_str:000000000000078a .LASF112
     /tmp/ccwEsnVK.s:149    .text:00000000000000c8 .LFB43
     /tmp/ccwEsnVK.s:213    .text:0000000000000130 .LFE43
     /tmp/ccwEsnVK.s:1829   .debug_loc:0000000000000000 .LLST3
     /tmp/ccwEsnVK.s:167    .text:00000000000000e4 .LBB9
     /tmp/ccwEsnVK.s:174    .text:00000000000000e8 .LBE9
     /tmp/ccwEsnVK.s:1840   .debug_loc:0000000000000036 .LLST4
     /tmp/ccwEsnVK.s:181    .text:00000000000000f4 .LVL13
     /tmp/ccwEsnVK.s:189    .text:000000000000010c .LVL14
     /tmp/ccwEsnVK.s:210    .text:000000000000012c .LVL17
     /tmp/ccwEsnVK.s:219    .text:0000000000000130 .LFB42
     /tmp/ccwEsnVK.s:252    .text:0000000000000168 .LFE42
GAS LISTING /tmp/ccwEsnVK.s 			page 12


     /tmp/ccwEsnVK.s:233    .text:0000000000000148 .LVL18
     /tmp/ccwEsnVK.s:237    .text:0000000000000150 .LVL19
     /tmp/ccwEsnVK.s:241    .text:0000000000000158 .LVL20
     /tmp/ccwEsnVK.s:123    .text:00000000000000c8 .LFE41
     /tmp/ccwEsnVK.s:1847   .debug_loc:0000000000000059 .LLST0
     /tmp/ccwEsnVK.s:40     .text:000000000000002c .LBB7
     /tmp/ccwEsnVK.s:95     .text:0000000000000094 .LBE7
     /tmp/ccwEsnVK.s:1876   .debug_loc:00000000000000ce .LLST1
     /tmp/ccwEsnVK.s:1901   .debug_loc:0000000000000130 .LLST2
     /tmp/ccwEsnVK.s:51     .text:0000000000000040 .LVL4
     /tmp/ccwEsnVK.s:80     .text:000000000000007c .LVL5
     /tmp/ccwEsnVK.s:36     .text:0000000000000028 .LVL2
     /tmp/ccwEsnVK.s:99     .text:00000000000000a0 .LVL7
     /tmp/ccwEsnVK.s:103    .text:00000000000000ac .LVL8
     /tmp/ccwEsnVK.s:2141   .debug_str:0000000000000743 .LASF91
     /tmp/ccwEsnVK.s:2083   .debug_str:00000000000004d3 .LASF113
     /tmp/ccwEsnVK.s:2133   .debug_str:000000000000070f .LASF92
     /tmp/ccwEsnVK.s:2095   .debug_str:000000000000051b .LASF94
     /tmp/ccwEsnVK.s:1935   .debug_str:000000000000003b .LASF93
     /tmp/ccwEsnVK.s:2137   .debug_str:0000000000000723 .LASF95
     /tmp/ccwEsnVK.s:2037   .debug_str:0000000000000358 .LASF96
     /tmp/ccwEsnVK.s:2107   .debug_str:000000000000057f .LASF97
     /tmp/ccwEsnVK.s:2009   .debug_str:0000000000000282 .LASF98
     /tmp/ccwEsnVK.s:1967   .debug_str:000000000000013a .LASF99
     /tmp/ccwEsnVK.s:165    .text:00000000000000e4 .LVL11
     /tmp/ccwEsnVK.s:199    .text:0000000000000118 .LVL15
     /tmp/ccwEsnVK.s:203    .text:0000000000000120 .LVL16
     /tmp/ccwEsnVK.s:172    .text:00000000000000e8 .LVL12
     /tmp/ccwEsnVK.s:16     .text:0000000000000000 .LVL0
     /tmp/ccwEsnVK.s:33     .text:0000000000000020 .LVL1
     /tmp/ccwEsnVK.s:93     .text:0000000000000094 .LVL6
     /tmp/ccwEsnVK.s:118    .text:00000000000000c0 .LVL10
     /tmp/ccwEsnVK.s:39     .text:000000000000002c .LVL3
     /tmp/ccwEsnVK.s:115    .text:00000000000000bc .LVL9
     /tmp/ccwEsnVK.s:268    .debug_info:0000000000000000 .Ldebug_info0
     /tmp/ccwEsnVK.s:126    .gcc_except_table:0000000000000000 .LLSDA41

UNDEFINED SYMBOLS
_Znwm
_Znam
_ZN9Scheduler3putEP3TCB
_ZdlPv
_Unwind_Resume
__gxx_personality_v0
_ZN9Scheduler3getEv
_ZN3TCB13contextSwitchEPNS_7ContextES1_
_ZN5Riscv13pushRegistersEv
_ZN5Riscv12popRegistersEv
