GAS LISTING /tmp/cczYOJBS.s 			page 1


   1              		.file	"tcb.cpp"
   2              		.option pic
   3              		.option norelax
   4              		.text
   5              	.Ltext0:
   6              		.align	2
   7              		.globl	_ZN3TCB12createThreadEPFvvE
   9              	_ZN3TCB12createThreadEPFvvE:
  10              	.LFB41:
  11              		.file 1 "src/tcb.cpp"
   1:src/tcb.cpp   **** #include "../h/tcb.hpp"
   2:src/tcb.cpp   **** #include "../h/riscv.hpp"
   3:src/tcb.cpp   **** #include "../h/scheduler.hpp"
   4:src/tcb.cpp   **** 
   5:src/tcb.cpp   **** TCB* TCB::running = nullptr;
   6:src/tcb.cpp   **** 
   7:src/tcb.cpp   **** TCB* TCB::createThread(Body body) {
  12              		.loc 1 7 35
  13              		.cfi_startproc
  14              		.cfi_personality 0x9b,DW.ref.__gxx_personality_v0
  15              		.cfi_lsda 0x1b,.LLSDA41
  16              	.LVL0:
  17 0000 130101FE 		addi	sp,sp,-32
  18              		.cfi_def_cfa_offset 32
  19 0004 233C1100 		sd	ra,24(sp)
  20 0008 23388100 		sd	s0,16(sp)
  21 000c 23349100 		sd	s1,8(sp)
  22 0010 23302101 		sd	s2,0(sp)
  23              		.cfi_offset 1, -8
  24              		.cfi_offset 8, -16
  25              		.cfi_offset 9, -24
  26              		.cfi_offset 18, -32
  27 0014 13040102 		addi	s0,sp,32
  28              		.cfi_def_cfa 8, 0
  29 0018 13090500 		mv	s2,a0
   8:src/tcb.cpp   ****     return new TCB(body);
  30              		.loc 1 8 5
  31              		.loc 1 8 24 is_stmt 0
  32 001c 13058002 		li	a0,40
  33              	.LVL1:
  34              	.LEHB0:
  35 0020 97000000 		call	_Znwm@plt
  35      E7800000 
  36              	.LVL2:
  37              	.LEHE0:
  38 0028 93040500 		mv	s1,a0
  39              	.LVL3:
  40              	.LBB7:
  41              	.LBB8:
  42              		.file 2 "src/../h/tcb.hpp"
   1:src/../h/tcb.hpp **** #ifndef TCB_H
   2:src/../h/tcb.hpp **** #define TCB_H
   3:src/../h/tcb.hpp **** 
   4:src/../h/tcb.hpp **** #include "../lib/hw.h"
   5:src/../h/tcb.hpp **** #include "../h/scheduler.hpp"
   6:src/../h/tcb.hpp **** 
   7:src/../h/tcb.hpp **** class TCB {
GAS LISTING /tmp/cczYOJBS.s 			page 2


   8:src/../h/tcb.hpp **** public:
   9:src/../h/tcb.hpp ****     ~TCB(){ delete[] stack; }
  10:src/../h/tcb.hpp **** 
  11:src/../h/tcb.hpp ****     bool isFinished() const { return finished; }
  12:src/../h/tcb.hpp **** 
  13:src/../h/tcb.hpp ****     void setFinished(bool finished) { this->finished = finished; }
  14:src/../h/tcb.hpp **** 
  15:src/../h/tcb.hpp ****     using Body = void (*)();
  16:src/../h/tcb.hpp **** 
  17:src/../h/tcb.hpp ****     static TCB* createThread(Body body);
  18:src/../h/tcb.hpp **** 
  19:src/../h/tcb.hpp ****     static void yield();
  20:src/../h/tcb.hpp **** 
  21:src/../h/tcb.hpp ****     static TCB* running;
  22:src/../h/tcb.hpp **** 
  23:src/../h/tcb.hpp **** private:
  24:src/../h/tcb.hpp ****     TCB(Body body) :
  25:src/../h/tcb.hpp ****         body(body),
  26:src/../h/tcb.hpp ****         stack(body != nullptr ? new uint64[STACK_SIZE] : nullptr),
  27:src/../h/tcb.hpp ****         context({
  28:src/../h/tcb.hpp ****             body != nullptr ? (uint64) body : 0,
  29:src/../h/tcb.hpp ****             stack != nullptr ? (uint64)&stack[STACK_SIZE] : 0
  30:src/../h/tcb.hpp ****         }),
  31:src/../h/tcb.hpp ****         finished(false) {
  43              		.loc 2 31 23
  44 002c 23302501 		sd	s2,0(a0)
  26:src/../h/tcb.hpp ****         context({
  45              		.loc 2 26 31
  46 0030 630A0900 		beqz	s2,.L7
  26:src/../h/tcb.hpp ****         context({
  47              		.loc 2 26 54
  48 0034 37250000 		li	a0,8192
  49              	.LEHB1:
  50 0038 97000000 		call	_Znam@plt
  50      E7800000 
  51              	.LVL4:
  52 0040 6F008000 		j	.L2
  53              	.L7:
  26:src/../h/tcb.hpp ****         context({
  54              		.loc 2 26 31
  55 0044 13050000 		li	a0,0
  56              	.L2:
  57              		.loc 2 31 23
  58 0048 23B4A400 		sd	a0,8(s1)
  28:src/../h/tcb.hpp ****             stack != nullptr ? (uint64)&stack[STACK_SIZE] : 0
  59              		.loc 2 28 29
  60 004c 630A0902 		beqz	s2,.L8
  61 0050 93070900 		mv	a5,s2
  62              	.L3:
  63              		.loc 2 31 23
  64 0054 23B8F400 		sd	a5,16(s1)
  29:src/../h/tcb.hpp ****         }),
  65              		.loc 2 29 30
  66 0058 63080502 		beqz	a0,.L9
  29:src/../h/tcb.hpp ****         }),
  67              		.loc 2 29 40
  68 005c B7270000 		li	a5,8192
GAS LISTING /tmp/cczYOJBS.s 			page 3


  69 0060 3305F500 		add	a0,a0,a5
  70              	.L4:
  71              		.loc 2 31 23
  72 0064 23BCA400 		sd	a0,24(s1)
  73 0068 23800402 		sb	zero,32(s1)
  32:src/../h/tcb.hpp ****         if(body != nullptr) Scheduler::put(this);
  74              		.loc 2 32 9 is_stmt 1
  75 006c 63000904 		beqz	s2,.L1
  76              		.loc 2 32 29
  77              		.loc 2 32 43 is_stmt 0
  78 0070 13850400 		mv	a0,s1
  79 0074 97000000 		call	_ZN9Scheduler3putEP3TCB@plt
  79      E7800000 
  80              	.LVL5:
  81              	.LEHE1:
  82 007c 6F000003 		j	.L1
  83              	.L8:
  28:src/../h/tcb.hpp ****             stack != nullptr ? (uint64)&stack[STACK_SIZE] : 0
  84              		.loc 2 28 29
  85 0080 93070000 		li	a5,0
  86 0084 6FF01FFD 		j	.L3
  87              	.L9:
  29:src/../h/tcb.hpp ****         }),
  88              		.loc 2 29 30
  89 0088 13050000 		li	a0,0
  90 008c 6FF09FFD 		j	.L4
  91              	.L10:
  92 0090 13090500 		mv	s2,a0
  93              	.LVL6:
  94              	.LBE8:
  95              	.LBE7:
  96              		.loc 1 8 24
  97 0094 13850400 		mv	a0,s1
  98 0098 97000000 		call	_ZdlPv@plt
  98      E7800000 
  99              	.LVL7:
 100 00a0 13050900 		mv	a0,s2
 101              	.LEHB2:
 102 00a4 97000000 		call	_Unwind_Resume@plt
 102      E7800000 
 103              	.LVL8:
 104              	.LEHE2:
 105              	.L1:
   9:src/tcb.cpp   **** }
 106              		.loc 1 9 1
 107 00ac 13850400 		mv	a0,s1
 108 00b0 83308101 		ld	ra,24(sp)
 109              		.cfi_restore 1
 110 00b4 03340101 		ld	s0,16(sp)
 111              		.cfi_restore 8
 112              		.cfi_def_cfa 2, 32
 113 00b8 83348100 		ld	s1,8(sp)
 114              		.cfi_restore 9
 115              	.LVL9:
 116 00bc 03390100 		ld	s2,0(sp)
 117              		.cfi_restore 18
 118              	.LVL10:
GAS LISTING /tmp/cczYOJBS.s 			page 4


 119 00c0 13010102 		addi	sp,sp,32
 120              		.cfi_def_cfa_offset 0
 121 00c4 67800000 		jr	ra
 122              		.cfi_endproc
 123              	.LFE41:
 124              		.globl	__gxx_personality_v0
 125              		.section	.gcc_except_table,"a",@progbits
 126              	.LLSDA41:
 127 0000 FF       		.byte	0xff
 128 0001 FF       		.byte	0xff
 129 0002 03       		.byte	0x3
 130 0003 27       		.byte	0x27
 131 0004 00000000 		.4byte	.LEHB0-.LFB41
 132 0008 00000000 		.4byte	.LEHE0-.LEHB0
 133 000c 00000000 		.4byte	0
 134 0010 00       		.byte	0
 135 0011 00000000 		.4byte	.LEHB1-.LFB41
 136 0015 00000000 		.4byte	.LEHE1-.LEHB1
 137 0019 00000000 		.4byte	.L10-.LFB41
 138 001d 00       		.byte	0
 139 001e 00000000 		.4byte	.LEHB2-.LFB41
 140 0022 00000000 		.4byte	.LEHE2-.LEHB2
 141 0026 00000000 		.4byte	0
 142 002a 00       		.byte	0
 143              		.text
 145              		.align	2
 146              		.globl	_ZN3TCB8dispatchEv
 148              	_ZN3TCB8dispatchEv:
 149              	.LFB43:
  10:src/tcb.cpp   **** 
  11:src/tcb.cpp   **** void TCB::yield() {
  12:src/tcb.cpp   ****     Riscv::pushRegisters();
  13:src/tcb.cpp   **** 
  14:src/tcb.cpp   ****     TCB::dispatch();
  15:src/tcb.cpp   **** 
  16:src/tcb.cpp   ****     Riscv::popRegisters();
  17:src/tcb.cpp   **** }
  18:src/tcb.cpp   **** 
  19:src/tcb.cpp   **** void TCB::dispatch() {
 150              		.loc 1 19 22 is_stmt 1
 151              		.cfi_startproc
 152 00c8 130101FE 		addi	sp,sp,-32
 153              		.cfi_def_cfa_offset 32
 154 00cc 233C1100 		sd	ra,24(sp)
 155 00d0 23388100 		sd	s0,16(sp)
 156 00d4 23349100 		sd	s1,8(sp)
 157              		.cfi_offset 1, -8
 158              		.cfi_offset 8, -16
 159              		.cfi_offset 9, -24
 160 00d8 13040102 		addi	s0,sp,32
 161              		.cfi_def_cfa 8, 0
  20:src/tcb.cpp   ****     TCB* old = running;
 162              		.loc 1 20 5
 163              		.loc 1 20 10 is_stmt 0
 164 00dc 97040000 		ld	s1,.LANCHOR0
 164      83B40400 
 165              	.LVL11:
GAS LISTING /tmp/cczYOJBS.s 			page 5


  21:src/tcb.cpp   ****     if(!old->isFinished()){ Scheduler::put(old); }
 166              		.loc 1 21 5 is_stmt 1
 167              	.LBB9:
 168              	.LBB10:
  11:src/../h/tcb.hpp **** 
 169              		.loc 2 11 31
  11:src/../h/tcb.hpp **** 
 170              		.loc 2 11 38 is_stmt 0
 171 00e4 83C70402 		lbu	a5,32(s1)
 172              	.LVL12:
 173              	.LBE10:
 174              	.LBE9:
 175              		.loc 1 21 5
 176 00e8 638C0702 		beqz	a5,.L15
 177              	.L13:
  22:src/tcb.cpp   ****     running = Scheduler::get();
 178              		.loc 1 22 5 is_stmt 1
 179              		.loc 1 22 29 is_stmt 0
 180 00ec 97000000 		call	_ZN9Scheduler3getEv@plt
 180      E7800000 
 181              	.LVL13:
 182              		.loc 1 22 13
 183 00f4 97070000 		sd	a0,.LANCHOR0,a5
 183      23B0A700 
  23:src/tcb.cpp   **** 
  24:src/tcb.cpp   ****     TCB::contextSwitch(&old->context, &running->context);
 184              		.loc 1 24 5 is_stmt 1
 185              		.loc 1 24 23 is_stmt 0
 186 00fc 93050501 		addi	a1,a0,16
 187 0100 13850401 		addi	a0,s1,16
 188 0104 97000000 		call	_ZN3TCB13contextSwitchEPNS_7ContextES1_@plt
 188      E7800000 
 189              	.LVL14:
  25:src/tcb.cpp   **** }...
 190              		.loc 1 25 1
 191 010c 83308101 		ld	ra,24(sp)
 192              		.cfi_remember_state
 193              		.cfi_restore 1
 194 0110 03340101 		ld	s0,16(sp)
 195              		.cfi_restore 8
 196              		.cfi_def_cfa 2, 32
 197 0114 83348100 		ld	s1,8(sp)
 198              		.cfi_restore 9
 199              	.LVL15:
 200 0118 13010102 		addi	sp,sp,32
 201              		.cfi_def_cfa_offset 0
 202 011c 67800000 		jr	ra
 203              	.LVL16:
 204              	.L15:
 205              		.cfi_restore_state
  21:src/tcb.cpp   ****     if(!old->isFinished()){ Scheduler::put(old); }
 206              		.loc 1 21 29 is_stmt 1 discriminator 1
  21:src/tcb.cpp   ****     if(!old->isFinished()){ Scheduler::put(old); }
 207              		.loc 1 21 43 is_stmt 0 discriminator 1
 208 0120 13850400 		mv	a0,s1
 209 0124 97000000 		call	_ZN9Scheduler3putEP3TCB@plt
 209      E7800000 
GAS LISTING /tmp/cczYOJBS.s 			page 6


 210              	.LVL17:
 211 012c 6FF01FFC 		j	.L13
 212              		.cfi_endproc
 213              	.LFE43:
 215              		.align	2
 216              		.globl	_ZN3TCB5yieldEv
 218              	_ZN3TCB5yieldEv:
 219              	.LFB42:
  11:src/tcb.cpp   **** void TCB::yield() {
 220              		.loc 1 11 19 is_stmt 1
 221              		.cfi_startproc
 222 0130 130101FF 		addi	sp,sp,-16
 223              		.cfi_def_cfa_offset 16
 224 0134 23341100 		sd	ra,8(sp)
 225 0138 23308100 		sd	s0,0(sp)
 226              		.cfi_offset 1, -8
 227              		.cfi_offset 8, -16
 228 013c 13040101 		addi	s0,sp,16
 229              		.cfi_def_cfa 8, 0
  12:src/tcb.cpp   ****     Riscv::pushRegisters();
 230              		.loc 1 12 5
  12:src/tcb.cpp   ****     Riscv::pushRegisters();
 231              		.loc 1 12 25 is_stmt 0
 232 0140 97000000 		call	_ZN5Riscv13pushRegistersEv@plt
 232      E7800000 
 233              	.LVL18:
  14:src/tcb.cpp   ****     TCB::dispatch();
 234              		.loc 1 14 5 is_stmt 1
  14:src/tcb.cpp   ****     TCB::dispatch();
 235              		.loc 1 14 18 is_stmt 0
 236 0148 97000000 		call	_ZN3TCB8dispatchEv
 236      E7800000 
 237              	.LVL19:
  16:src/tcb.cpp   ****     Riscv::popRegisters();
 238              		.loc 1 16 5 is_stmt 1
  16:src/tcb.cpp   ****     Riscv::popRegisters();
 239              		.loc 1 16 24 is_stmt 0
 240 0150 97000000 		call	_ZN5Riscv12popRegistersEv@plt
 240      E7800000 
 241              	.LVL20:
  17:src/tcb.cpp   **** }
 242              		.loc 1 17 1
 243 0158 83308100 		ld	ra,8(sp)
 244              		.cfi_restore 1
 245 015c 03340100 		ld	s0,0(sp)
 246              		.cfi_restore 8
 247              		.cfi_def_cfa 2, 16
 248 0160 13010101 		addi	sp,sp,16
 249              		.cfi_def_cfa_offset 0
 250 0164 67800000 		jr	ra
 251              		.cfi_endproc
 252              	.LFE42:
 254              		.globl	_ZN3TCB7runningE
 255              		.bss
 256              		.align	3
 257              		.set	.LANCHOR0,. + 0
 260              	_ZN3TCB7runningE:
GAS LISTING /tmp/cczYOJBS.s 			page 7


 261 0000 00000000 		.zero	8
 261      00000000 
 262              		.text
 263              	.Letext0:
 264              		.file 3 "src/../h/../lib/hw.h"
 265              		.file 4 "src/../h/../h/scheduler.hpp"
 266              		.file 5 "src/../h/riscv.hpp"
 2179              		.align	3
 2182              	DW.ref.__gxx_personality_v0:
 2183 0000 00000000 		.dword	__gxx_personality_v0
 2183      00000000 
 2184              		.ident	"GCC: (Ubuntu 9.4.0-1ubuntu1~20.04) 9.4.0"
 2185              		.section	.note.GNU-stack,"",@progbits
GAS LISTING /tmp/cczYOJBS.s 			page 8


DEFINED SYMBOLS
                            *ABS*:0000000000000000 tcb.cpp
     /tmp/cczYOJBS.s:9      .text:0000000000000000 _ZN3TCB12createThreadEPFvvE
     /tmp/cczYOJBS.s:13     .text:0000000000000000 .L0 
     /tmp/cczYOJBS.s:2182   .data.rel.local.DW.ref.__gxx_personality_v0:0000000000000000 DW.ref.__gxx_personality_v0
     /tmp/cczYOJBS.s:17     .text:0000000000000000 .L0 
     /tmp/cczYOJBS.s:18     .text:0000000000000004 .L0 
     /tmp/cczYOJBS.s:23     .text:0000000000000014 .L0 
     /tmp/cczYOJBS.s:24     .text:0000000000000014 .L0 
     /tmp/cczYOJBS.s:25     .text:0000000000000014 .L0 
     /tmp/cczYOJBS.s:26     .text:0000000000000014 .L0 
     /tmp/cczYOJBS.s:28     .text:0000000000000018 .L0 
     /tmp/cczYOJBS.s:31     .text:000000000000001c .L0 
     /tmp/cczYOJBS.s:32     .text:000000000000001c .L0 
     /tmp/cczYOJBS.s:44     .text:000000000000002c .L0 
     /tmp/cczYOJBS.s:46     .text:0000000000000030 .L0 
     /tmp/cczYOJBS.s:48     .text:0000000000000034 .L0 
     /tmp/cczYOJBS.s:55     .text:0000000000000044 .L0 
     /tmp/cczYOJBS.s:58     .text:0000000000000048 .L0 
     /tmp/cczYOJBS.s:60     .text:000000000000004c .L0 
     /tmp/cczYOJBS.s:64     .text:0000000000000054 .L0 
     /tmp/cczYOJBS.s:66     .text:0000000000000058 .L0 
     /tmp/cczYOJBS.s:68     .text:000000000000005c .L0 
     /tmp/cczYOJBS.s:72     .text:0000000000000064 .L0 
     /tmp/cczYOJBS.s:75     .text:000000000000006c .L0 
     /tmp/cczYOJBS.s:77     .text:0000000000000070 .L0 
     /tmp/cczYOJBS.s:78     .text:0000000000000070 .L0 
     /tmp/cczYOJBS.s:85     .text:0000000000000080 .L0 
     /tmp/cczYOJBS.s:89     .text:0000000000000088 .L0 
     /tmp/cczYOJBS.s:97     .text:0000000000000094 .L0 
     /tmp/cczYOJBS.s:107    .text:00000000000000ac .L0 
     /tmp/cczYOJBS.s:109    .text:00000000000000b4 .L0 
     /tmp/cczYOJBS.s:111    .text:00000000000000b8 .L0 
     /tmp/cczYOJBS.s:112    .text:00000000000000b8 .L0 
     /tmp/cczYOJBS.s:114    .text:00000000000000bc .L0 
     /tmp/cczYOJBS.s:117    .text:00000000000000c0 .L0 
     /tmp/cczYOJBS.s:120    .text:00000000000000c4 .L0 
     /tmp/cczYOJBS.s:122    .text:00000000000000c8 .L0 
     /tmp/cczYOJBS.s:148    .text:00000000000000c8 _ZN3TCB8dispatchEv
     /tmp/cczYOJBS.s:151    .text:00000000000000c8 .L0 
     /tmp/cczYOJBS.s:152    .text:00000000000000c8 .L0 
     /tmp/cczYOJBS.s:153    .text:00000000000000cc .L0 
     /tmp/cczYOJBS.s:157    .text:00000000000000d8 .L0 
     /tmp/cczYOJBS.s:158    .text:00000000000000d8 .L0 
     /tmp/cczYOJBS.s:159    .text:00000000000000d8 .L0 
     /tmp/cczYOJBS.s:161    .text:00000000000000dc .L0 
     /tmp/cczYOJBS.s:163    .text:00000000000000dc .L0 
     /tmp/cczYOJBS.s:164    .text:00000000000000dc .L0 
     /tmp/cczYOJBS.s:169    .text:00000000000000e4 .L0 
     /tmp/cczYOJBS.s:170    .text:00000000000000e4 .L0 
     /tmp/cczYOJBS.s:171    .text:00000000000000e4 .L0 
     /tmp/cczYOJBS.s:176    .text:00000000000000e8 .L0 
     /tmp/cczYOJBS.s:179    .text:00000000000000ec .L0 
     /tmp/cczYOJBS.s:180    .text:00000000000000ec .L0 
     /tmp/cczYOJBS.s:183    .text:00000000000000f4 .L0 
     /tmp/cczYOJBS.s:185    .text:00000000000000fc .L0 
     /tmp/cczYOJBS.s:186    .text:00000000000000fc .L0 
GAS LISTING /tmp/cczYOJBS.s 			page 9


     /tmp/cczYOJBS.s:191    .text:000000000000010c .L0 
     /tmp/cczYOJBS.s:192    .text:0000000000000110 .L0 
     /tmp/cczYOJBS.s:193    .text:0000000000000110 .L0 
     /tmp/cczYOJBS.s:195    .text:0000000000000114 .L0 
     /tmp/cczYOJBS.s:196    .text:0000000000000114 .L0 
     /tmp/cczYOJBS.s:198    .text:0000000000000118 .L0 
     /tmp/cczYOJBS.s:201    .text:000000000000011c .L0 
     /tmp/cczYOJBS.s:205    .text:0000000000000120 .L0 
     /tmp/cczYOJBS.s:207    .text:0000000000000120 .L0 
     /tmp/cczYOJBS.s:208    .text:0000000000000120 .L0 
     /tmp/cczYOJBS.s:212    .text:0000000000000130 .L0 
     /tmp/cczYOJBS.s:218    .text:0000000000000130 _ZN3TCB5yieldEv
     /tmp/cczYOJBS.s:221    .text:0000000000000130 .L0 
     /tmp/cczYOJBS.s:222    .text:0000000000000130 .L0 
     /tmp/cczYOJBS.s:223    .text:0000000000000134 .L0 
     /tmp/cczYOJBS.s:226    .text:000000000000013c .L0 
     /tmp/cczYOJBS.s:227    .text:000000000000013c .L0 
     /tmp/cczYOJBS.s:229    .text:0000000000000140 .L0 
     /tmp/cczYOJBS.s:231    .text:0000000000000140 .L0 
     /tmp/cczYOJBS.s:232    .text:0000000000000140 .L0 
     /tmp/cczYOJBS.s:235    .text:0000000000000148 .L0 
     /tmp/cczYOJBS.s:236    .text:0000000000000148 .L0 
     /tmp/cczYOJBS.s:239    .text:0000000000000150 .L0 
     /tmp/cczYOJBS.s:240    .text:0000000000000150 .L0 
     /tmp/cczYOJBS.s:243    .text:0000000000000158 .L0 
     /tmp/cczYOJBS.s:244    .text:000000000000015c .L0 
     /tmp/cczYOJBS.s:246    .text:0000000000000160 .L0 
     /tmp/cczYOJBS.s:247    .text:0000000000000160 .L0 
     /tmp/cczYOJBS.s:249    .text:0000000000000164 .L0 
     /tmp/cczYOJBS.s:251    .text:0000000000000168 .L0 
     /tmp/cczYOJBS.s:260    .bss:0000000000000000 _ZN3TCB7runningE
     /tmp/cczYOJBS.s:257    .bss:0000000000000000 .LANCHOR0
     /tmp/cczYOJBS.s:267    .text:0000000000000168 .L0 
     /tmp/cczYOJBS.s:164    .text:00000000000000dc .L0 
     /tmp/cczYOJBS.s:183    .text:00000000000000f4 .L0 
     /tmp/cczYOJBS.s:53     .text:0000000000000044 .L7
     /tmp/cczYOJBS.s:56     .text:0000000000000048 .L2
     /tmp/cczYOJBS.s:83     .text:0000000000000080 .L8
     /tmp/cczYOJBS.s:87     .text:0000000000000088 .L9
     /tmp/cczYOJBS.s:105    .text:00000000000000ac .L1
     /tmp/cczYOJBS.s:62     .text:0000000000000054 .L3
     /tmp/cczYOJBS.s:70     .text:0000000000000064 .L4
     /tmp/cczYOJBS.s:204    .text:0000000000000120 .L15
     /tmp/cczYOJBS.s:177    .text:00000000000000ec .L13
     /tmp/cczYOJBS.s:34     .text:0000000000000020 .LEHB0
     /tmp/cczYOJBS.s:10     .text:0000000000000000 .LFB41
     /tmp/cczYOJBS.s:37     .text:0000000000000028 .LEHE0
     /tmp/cczYOJBS.s:49     .text:0000000000000038 .LEHB1
     /tmp/cczYOJBS.s:81     .text:000000000000007c .LEHE1
     /tmp/cczYOJBS.s:91     .text:0000000000000090 .L10
     /tmp/cczYOJBS.s:101    .text:00000000000000a4 .LEHB2
     /tmp/cczYOJBS.s:104    .text:00000000000000ac .LEHE2
     /tmp/cczYOJBS.s:1079   .debug_abbrev:0000000000000000 .Ldebug_abbrev0
     /tmp/cczYOJBS.s:2144   .debug_str:00000000000005cf .LASF98
     /tmp/cczYOJBS.s:2058   .debug_str:0000000000000358 .LASF99
     /tmp/cczYOJBS.s:1970   .debug_str:0000000000000088 .LASF100
     /tmp/cczYOJBS.s:5      .text:0000000000000000 .Ltext0
GAS LISTING /tmp/cczYOJBS.s 			page 10


     /tmp/cczYOJBS.s:263    .text:0000000000000168 .Letext0
     /tmp/cczYOJBS.s:1948   .debug_line:0000000000000000 .Ldebug_line0
     /tmp/cczYOJBS.s:2074   .debug_str:00000000000003c3 .LASF0
     /tmp/cczYOJBS.s:2084   .debug_str:00000000000003ec .LASF1
     /tmp/cczYOJBS.s:2062   .debug_str:000000000000036b .LASF2
     /tmp/cczYOJBS.s:2038   .debug_str:00000000000002e0 .LASF4
     /tmp/cczYOJBS.s:2122   .debug_str:000000000000052d .LASF3
     /tmp/cczYOJBS.s:1972   .debug_str:00000000000000ab .LASF5
     /tmp/cczYOJBS.s:2088   .debug_str:0000000000000414 .LASF6
     /tmp/cczYOJBS.s:2072   .debug_str:00000000000003b0 .LASF7
     /tmp/cczYOJBS.s:2150   .debug_str:00000000000006c0 .LASF8
     /tmp/cczYOJBS.s:2026   .debug_str:000000000000025d .LASF9
     /tmp/cczYOJBS.s:2098   .debug_str:000000000000046f .LASF10
     /tmp/cczYOJBS.s:2146   .debug_str:0000000000000693 .LASF11
     /tmp/cczYOJBS.s:1976   .debug_str:00000000000000b7 .LASF12
     /tmp/cczYOJBS.s:1954   .debug_str:0000000000000022 .LASF13
     /tmp/cczYOJBS.s:1986   .debug_str:0000000000000119 .LASF14
     /tmp/cczYOJBS.s:2112   .debug_str:00000000000004d9 .LASF15
     /tmp/cczYOJBS.s:1992   .debug_str:0000000000000152 .LASF16
     /tmp/cczYOJBS.s:2096   .debug_str:0000000000000465 .LASF17
     /tmp/cczYOJBS.s:2016   .debug_str:0000000000000214 .LASF24
     /tmp/cczYOJBS.s:2034   .debug_str:00000000000002a4 .LASF101
     /tmp/cczYOJBS.s:1982   .debug_str:00000000000000f7 .LASF102
     /tmp/cczYOJBS.s:2054   .debug_str:0000000000000338 .LASF103
     /tmp/cczYOJBS.s:1960   .debug_str:0000000000000041 .LASF104
     /tmp/cczYOJBS.s:2000   .debug_str:00000000000001af .LASF18
     /tmp/cczYOJBS.s:2106   .debug_str:00000000000004bd .LASF20
     /tmp/cczYOJBS.s:2090   .debug_str:0000000000000427 .LASF105
     /tmp/cczYOJBS.s:2024   .debug_str:0000000000000246 .LASF106
     /tmp/cczYOJBS.s:2064   .debug_str:0000000000000379 .LASF19
     /tmp/cczYOJBS.s:2170   .debug_str:0000000000000749 .LASF21
     /tmp/cczYOJBS.s:2048   .debug_str:0000000000000308 .LASF22
     /tmp/cczYOJBS.s:2100   .debug_str:000000000000047e .LASF23
     /tmp/cczYOJBS.s:2108   .debug_str:00000000000004c9 .LASF107
     /tmp/cczYOJBS.s:2114   .debug_str:00000000000004ef .LASF33
     /tmp/cczYOJBS.s:2068   .debug_str:000000000000038f .LASF35
     /tmp/cczYOJBS.s:2006   .debug_str:00000000000001d8 .LASF25
     /tmp/cczYOJBS.s:2118   .debug_str:0000000000000505 .LASF108
     /tmp/cczYOJBS.s:2042   .debug_str:00000000000002f0 .LASF26
     /tmp/cczYOJBS.s:2080   .debug_str:00000000000003e0 .LASF27
     /tmp/cczYOJBS.s:2046   .debug_str:0000000000000300 .LASF28
     /tmp/cczYOJBS.s:2040   .debug_str:00000000000002e7 .LASF29
     /tmp/cczYOJBS.s:2156   .debug_str:00000000000006eb .LASF30
     /tmp/cczYOJBS.s:2036   .debug_str:00000000000002b8 .LASF109
     /tmp/cczYOJBS.s:2078   .debug_str:00000000000003d7 .LASF81
     /tmp/cczYOJBS.s:2012   .debug_str:00000000000001fc .LASF83
     /tmp/cczYOJBS.s:2050   .debug_str:0000000000000315 .LASF110
     /tmp/cczYOJBS.s:2014   .debug_str:000000000000020f .LASF31
     /tmp/cczYOJBS.s:2082   .debug_str:00000000000003e6 .LASF32
     /tmp/cczYOJBS.s:1968   .debug_str:000000000000007a .LASF34
     /tmp/cczYOJBS.s:2004   .debug_str:00000000000001bd .LASF36
     /tmp/cczYOJBS.s:2134   .debug_str:0000000000000591 .LASF37
     /tmp/cczYOJBS.s:1952   .debug_str:0000000000000008 .LASF38
     /tmp/cczYOJBS.s:2110   .debug_str:00000000000004ce .LASF39
     /tmp/cczYOJBS.s:2164   .debug_str:000000000000071e .LASF40
     /tmp/cczYOJBS.s:1956   .debug_str:0000000000000032 .LASF41
     /tmp/cczYOJBS.s:2132   .debug_str:000000000000057c .LASF44
GAS LISTING /tmp/cczYOJBS.s 			page 11


     /tmp/cczYOJBS.s:2002   .debug_str:00000000000001b4 .LASF42
     /tmp/cczYOJBS.s:1988   .debug_str:0000000000000125 .LASF47
     /tmp/cczYOJBS.s:2124   .debug_str:000000000000053f .LASF43
     /tmp/cczYOJBS.s:2102   .debug_str:000000000000049a .LASF45
     /tmp/cczYOJBS.s:2142   .debug_str:00000000000005c8 .LASF46
     /tmp/cczYOJBS.s:2136   .debug_str:000000000000059e .LASF48
     /tmp/cczYOJBS.s:2020   .debug_str:0000000000000238 .LASF49
     /tmp/cczYOJBS.s:1994   .debug_str:0000000000000168 .LASF50
     /tmp/cczYOJBS.s:1950   .debug_str:0000000000000000 .LASF51
     /tmp/cczYOJBS.s:2030   .debug_str:0000000000000281 .LASF52
     /tmp/cczYOJBS.s:2008   .debug_str:00000000000001e0 .LASF53
     /tmp/cczYOJBS.s:1978   .debug_str:00000000000000c7 .LASF54
     /tmp/cczYOJBS.s:2168   .debug_str:0000000000000741 .LASF55
     /tmp/cczYOJBS.s:2010   .debug_str:00000000000001e8 .LASF56
     /tmp/cczYOJBS.s:2076   .debug_str:00000000000003d0 .LASF57
     /tmp/cczYOJBS.s:2160   .debug_str:0000000000000706 .LASF58
     /tmp/cczYOJBS.s:1966   .debug_str:0000000000000073 .LASF59
     /tmp/cczYOJBS.s:2018   .debug_str:0000000000000225 .LASF60
     /tmp/cczYOJBS.s:2022   .debug_str:0000000000000240 .LASF61
     /tmp/cczYOJBS.s:2140   .debug_str:00000000000005b6 .LASF62
     /tmp/cczYOJBS.s:1964   .debug_str:000000000000006d .LASF63
     /tmp/cczYOJBS.s:2174   .debug_str:0000000000000771 .LASF64
     /tmp/cczYOJBS.s:2166   .debug_str:0000000000000736 .LASF65
     /tmp/cczYOJBS.s:2120   .debug_str:0000000000000515 .LASF66
     /tmp/cczYOJBS.s:2044   .debug_str:00000000000002f5 .LASF67
     /tmp/cczYOJBS.s:2052   .debug_str:0000000000000320 .LASF68
     /tmp/cczYOJBS.s:1984   .debug_str:000000000000010f .LASF69
     /tmp/cczYOJBS.s:2056   .debug_str:0000000000000342 .LASF70
     /tmp/cczYOJBS.s:2066   .debug_str:0000000000000385 .LASF71
     /tmp/cczYOJBS.s:2028   .debug_str:000000000000026b .LASF72
     /tmp/cczYOJBS.s:2126   .debug_str:0000000000000546 .LASF73
     /tmp/cczYOJBS.s:1980   .debug_str:00000000000000db .LASF74
     /tmp/cczYOJBS.s:1998   .debug_str:000000000000019e .LASF75
     /tmp/cczYOJBS.s:2148   .debug_str:00000000000006a2 .LASF76
     /tmp/cczYOJBS.s:2138   .debug_str:00000000000005b1 .LASF77
     /tmp/cczYOJBS.s:2092   .debug_str:0000000000000432 .LASF78
     /tmp/cczYOJBS.s:1974   .debug_str:00000000000000b2 .LASF79
     /tmp/cczYOJBS.s:2070   .debug_str:000000000000039f .LASF80
     /tmp/cczYOJBS.s:2152   .debug_str:00000000000006d0 .LASF82
     /tmp/cczYOJBS.s:1996   .debug_str:000000000000017c .LASF84
     /tmp/cczYOJBS.s:2086   .debug_str:00000000000003ff .LASF85
     /tmp/cczYOJBS.s:2094   .debug_str:0000000000000443 .LASF86
     /tmp/cczYOJBS.s:2130   .debug_str:0000000000000565 .LASF87
     /tmp/cczYOJBS.s:1962   .debug_str:0000000000000049 .LASF88
     /tmp/cczYOJBS.s:2172   .debug_str:0000000000000760 .LASF111
     /tmp/cczYOJBS.s:149    .text:00000000000000c8 .LFB43
     /tmp/cczYOJBS.s:213    .text:0000000000000130 .LFE43
     /tmp/cczYOJBS.s:1852   .debug_loc:0000000000000000 .LLST3
     /tmp/cczYOJBS.s:167    .text:00000000000000e4 .LBB9
     /tmp/cczYOJBS.s:174    .text:00000000000000e8 .LBE9
     /tmp/cczYOJBS.s:1863   .debug_loc:0000000000000036 .LLST4
     /tmp/cczYOJBS.s:181    .text:00000000000000f4 .LVL13
     /tmp/cczYOJBS.s:189    .text:000000000000010c .LVL14
     /tmp/cczYOJBS.s:210    .text:000000000000012c .LVL17
     /tmp/cczYOJBS.s:219    .text:0000000000000130 .LFB42
     /tmp/cczYOJBS.s:252    .text:0000000000000168 .LFE42
     /tmp/cczYOJBS.s:233    .text:0000000000000148 .LVL18
GAS LISTING /tmp/cczYOJBS.s 			page 12


     /tmp/cczYOJBS.s:237    .text:0000000000000150 .LVL19
     /tmp/cczYOJBS.s:241    .text:0000000000000158 .LVL20
     /tmp/cczYOJBS.s:123    .text:00000000000000c8 .LFE41
     /tmp/cczYOJBS.s:1870   .debug_loc:0000000000000059 .LLST0
     /tmp/cczYOJBS.s:40     .text:000000000000002c .LBB7
     /tmp/cczYOJBS.s:95     .text:0000000000000094 .LBE7
     /tmp/cczYOJBS.s:1899   .debug_loc:00000000000000ce .LLST1
     /tmp/cczYOJBS.s:1924   .debug_loc:0000000000000130 .LLST2
     /tmp/cczYOJBS.s:51     .text:0000000000000040 .LVL4
     /tmp/cczYOJBS.s:80     .text:000000000000007c .LVL5
     /tmp/cczYOJBS.s:36     .text:0000000000000028 .LVL2
     /tmp/cczYOJBS.s:99     .text:00000000000000a0 .LVL7
     /tmp/cczYOJBS.s:103    .text:00000000000000ac .LVL8
     /tmp/cczYOJBS.s:2162   .debug_str:0000000000000719 .LASF89
     /tmp/cczYOJBS.s:2104   .debug_str:00000000000004ad .LASF112
     /tmp/cczYOJBS.s:2154   .debug_str:00000000000006e5 .LASF90
     /tmp/cczYOJBS.s:2116   .debug_str:00000000000004f5 .LASF92
     /tmp/cczYOJBS.s:1958   .debug_str:000000000000003b .LASF91
     /tmp/cczYOJBS.s:2158   .debug_str:00000000000006f9 .LASF93
     /tmp/cczYOJBS.s:2060   .debug_str:0000000000000364 .LASF94
     /tmp/cczYOJBS.s:2128   .debug_str:0000000000000555 .LASF95
     /tmp/cczYOJBS.s:2032   .debug_str:0000000000000295 .LASF96
     /tmp/cczYOJBS.s:1990   .debug_str:000000000000013a .LASF97
     /tmp/cczYOJBS.s:165    .text:00000000000000e4 .LVL11
     /tmp/cczYOJBS.s:199    .text:0000000000000118 .LVL15
     /tmp/cczYOJBS.s:203    .text:0000000000000120 .LVL16
     /tmp/cczYOJBS.s:172    .text:00000000000000e8 .LVL12
     /tmp/cczYOJBS.s:16     .text:0000000000000000 .LVL0
     /tmp/cczYOJBS.s:33     .text:0000000000000020 .LVL1
     /tmp/cczYOJBS.s:93     .text:0000000000000094 .LVL6
     /tmp/cczYOJBS.s:118    .text:00000000000000c0 .LVL10
     /tmp/cczYOJBS.s:39     .text:000000000000002c .LVL3
     /tmp/cczYOJBS.s:115    .text:00000000000000bc .LVL9
     /tmp/cczYOJBS.s:268    .debug_info:0000000000000000 .Ldebug_info0
     /tmp/cczYOJBS.s:126    .gcc_except_table:0000000000000000 .LLSDA41

UNDEFINED SYMBOLS
_Znwm
_Znam
_ZN9Scheduler3putEP3TCB
_ZdlPv
_Unwind_Resume
__gxx_personality_v0
_ZN9Scheduler3getEv
_ZN3TCB13contextSwitchEPNS_7ContextES1_
_ZN5Riscv13pushRegistersEv
_ZN5Riscv12popRegistersEv
