GAS LISTING /tmp/ccq3perE.s 			page 1


   1              		.file	"tcb.cpp"
   2              		.option pic
   3              		.option norelax
   4              		.text
   5              	.Ltext0:
   6              		.align	2
   7              		.globl	_ZN3TCB12createThreadEPFvPvES0_
   9              	_ZN3TCB12createThreadEPFvPvES0_:
  10              	.LFB54:
  11              		.file 1 "src/tcb.cpp"
   1:src/tcb.cpp   **** #include "../h/tcb.hpp"
   2:src/tcb.cpp   **** #include "../h/riscv.hpp"
   3:src/tcb.cpp   **** #include "../h/scheduler.hpp"
   4:src/tcb.cpp   **** #include "../h/syscall_c.hpp"
   5:src/tcb.cpp   **** 
   6:src/tcb.cpp   **** TCB* TCB::running = nullptr;
   7:src/tcb.cpp   **** uint64 TCB::timeSliceCounter = 0;
   8:src/tcb.cpp   **** 
   9:src/tcb.cpp   **** TCB* TCB::createThread(Body body, void* arg) {
  12              		.loc 1 9 46
  13              		.cfi_startproc
  14              		.cfi_personality 0x9b,DW.ref.__gxx_personality_v0
  15              		.cfi_lsda 0x1b,.LLSDA54
  16              	.LVL0:
  17 0000 130101FC 		addi	sp,sp,-64
  18              		.cfi_def_cfa_offset 64
  19 0004 233C1102 		sd	ra,56(sp)
  20 0008 23388102 		sd	s0,48(sp)
  21 000c 23349102 		sd	s1,40(sp)
  22 0010 23302103 		sd	s2,32(sp)
  23 0014 233C3101 		sd	s3,24(sp)
  24              		.cfi_offset 1, -8
  25              		.cfi_offset 8, -16
  26              		.cfi_offset 9, -24
  27              		.cfi_offset 18, -32
  28              		.cfi_offset 19, -40
  29 0018 13040104 		addi	s0,sp,64
  30              		.cfi_def_cfa 8, 0
  31 001c 13090500 		mv	s2,a0
  32 0020 93890500 		mv	s3,a1
  10:src/tcb.cpp   ****     TCB* tcb = new TCB(body, arg);
  33              		.loc 1 10 5
  34              		.loc 1 10 33 is_stmt 0
  35 0024 13058004 		li	a0,72
  36              	.LVL1:
  37              	.LEHB0:
  38 0028 97000000 		call	_Znwm@plt
  38      E7800000 
  39              	.LVL2:
  40              	.LEHE0:
  41 0030 93040500 		mv	s1,a0
  42              	.LVL3:
  43              	.LBB32:
  44              	.LBB33:
  45              		.file 2 "src/../h/tcb.hpp"
   1:src/../h/tcb.hpp **** #ifndef TCB_H
   2:src/../h/tcb.hpp **** #define TCB_H
GAS LISTING /tmp/ccq3perE.s 			page 2


   3:src/../h/tcb.hpp **** 
   4:src/../h/tcb.hpp **** #include "riscv.hpp"
   5:src/../h/tcb.hpp **** #include "../lib/hw.h"
   6:src/../h/tcb.hpp **** #include "../h/scheduler.hpp"
   7:src/../h/tcb.hpp **** #include "../h/mySemaphore.hpp"
   8:src/../h/tcb.hpp **** 
   9:src/../h/tcb.hpp **** class TCB {
  10:src/../h/tcb.hpp **** public:
  11:src/../h/tcb.hpp ****     ~TCB(){ delete[] stack; }
  12:src/../h/tcb.hpp **** 
  13:src/../h/tcb.hpp ****     bool isFinished() const { return finished; }
  14:src/../h/tcb.hpp **** 
  15:src/../h/tcb.hpp ****     void setFinished(bool finished) { this->finished = finished; }
  16:src/../h/tcb.hpp **** 
  17:src/../h/tcb.hpp ****     bool isBlocked() const { return blocked; }
  18:src/../h/tcb.hpp **** 
  19:src/../h/tcb.hpp ****     void setBlocked(bool blocked) { this->blocked = blocked; }
  20:src/../h/tcb.hpp **** 
  21:src/../h/tcb.hpp ****     uint64 getSepc() const { return this->context.sepc; }
  22:src/../h/tcb.hpp **** 
  23:src/../h/tcb.hpp ****     void setSepc(uint64 value) { this->context.sepc = value; }
  24:src/../h/tcb.hpp **** 
  25:src/../h/tcb.hpp ****     uint64 getSstatus() const { return this->context.sstatus; }
  26:src/../h/tcb.hpp **** 
  27:src/../h/tcb.hpp ****     void setSstatus(uint64 value) { this->context.sstatus = value; }
  28:src/../h/tcb.hpp **** 
  29:src/../h/tcb.hpp ****     bool isMain() const { return this->main; }
  30:src/../h/tcb.hpp **** 
  31:src/../h/tcb.hpp ****     uint64 getTimeSlice() const { return time_slice; }
  32:src/../h/tcb.hpp **** 
  33:src/../h/tcb.hpp ****     using Body = void (*)(void *);
  34:src/../h/tcb.hpp **** 
  35:src/../h/tcb.hpp ****     static TCB* createThread(Body body, void* arg);
  36:src/../h/tcb.hpp **** 
  37:src/../h/tcb.hpp ****     static TCB* createThreadWithoutStarting(Body body, void* arg);
  38:src/../h/tcb.hpp **** 
  39:src/../h/tcb.hpp ****     static void startThread(TCB* tcb);
  40:src/../h/tcb.hpp **** 
  41:src/../h/tcb.hpp ****     static void yield();
  42:src/../h/tcb.hpp **** 
  43:src/../h/tcb.hpp ****     static TCB* running;
  44:src/../h/tcb.hpp **** 
  45:src/../h/tcb.hpp **** private:
  46:src/../h/tcb.hpp ****     explicit TCB(Body body, void* arg) :
  47:src/../h/tcb.hpp ****         body(body),
  48:src/../h/tcb.hpp ****         arg(arg),
  49:src/../h/tcb.hpp ****         stack(body != nullptr ? new uint64[DEFAULT_STACK_SIZE] : nullptr),
  50:src/../h/tcb.hpp ****         context({
  51:src/../h/tcb.hpp ****             (uint64) &threadWrapper,
  52:src/../h/tcb.hpp ****             stack != nullptr ? (uint64)&stack[DEFAULT_STACK_SIZE] : 0,
  53:src/../h/tcb.hpp ****             Riscv::r_sepc(),
  54:src/../h/tcb.hpp ****             Riscv::r_sstatus()
  55:src/../h/tcb.hpp ****         }),
  56:src/../h/tcb.hpp ****         time_slice(DEFAULT_TIME_SLICE),
  57:src/../h/tcb.hpp ****         main(body == nullptr),
  58:src/../h/tcb.hpp ****         finished(false),
  59:src/../h/tcb.hpp ****         blocked(false) {}
GAS LISTING /tmp/ccq3perE.s 			page 3


  46              		.loc 2 59 22
  47 0034 23302501 		sd	s2,0(a0)
  48 0038 23343501 		sd	s3,8(a0)
  49:src/../h/tcb.hpp ****         context({
  49              		.loc 2 49 31
  50 003c 630A0900 		beqz	s2,.L6
  49:src/../h/tcb.hpp ****         context({
  51              		.loc 2 49 62
  52 0040 37850000 		li	a0,32768
  53              	.LEHB1:
  54 0044 97000000 		call	_Znam@plt
  54      E7800000 
  55              	.LVL4:
  56              	.LEHE1:
  57 004c 6F008000 		j	.L2
  58              	.L6:
  49:src/../h/tcb.hpp ****         context({
  59              		.loc 2 49 31
  60 0050 13050000 		li	a0,0
  61              	.L2:
  62              		.loc 2 59 22
  63 0054 23B8A400 		sd	a0,16(s1)
  64 0058 97070000 		lla	a5,_ZN3TCB13threadWrapperEv
  64      93870700 
  65 0060 23BCF400 		sd	a5,24(s1)
  52:src/../h/tcb.hpp ****             Riscv::r_sepc(),
  66              		.loc 2 52 30
  67 0064 63080506 		beqz	a0,.L7
  52:src/../h/tcb.hpp ****             Riscv::r_sepc(),
  68              		.loc 2 52 40
  69 0068 B7870000 		li	a5,32768
  70 006c 3305F500 		add	a0,a0,a5
  71              	.L3:
  72              		.loc 2 59 22
  73 0070 23B0A402 		sd	a0,32(s1)
  74              	.LBB34:
  75              	.LBB35:
  76              		.file 3 "src/../h/riscv.hpp"
   1:src/../h/riscv.hpp **** #ifndef RISCV_H
   2:src/../h/riscv.hpp **** #define RISCV_H
   3:src/../h/riscv.hpp **** 
   4:src/../h/riscv.hpp **** #include "../lib/hw.h"
   5:src/../h/riscv.hpp **** 
   6:src/../h/riscv.hpp **** class Riscv {
   7:src/../h/riscv.hpp **** public:
   8:src/../h/riscv.hpp ****     static int ERROR;
   9:src/../h/riscv.hpp **** 
  10:src/../h/riscv.hpp ****     // Stavljanje/skidanje registara x3,...,x31 na stek/sa steka
  11:src/../h/riscv.hpp ****     static void pushRegisters();
  12:src/../h/riscv.hpp ****     static void popRegisters();
  13:src/../h/riscv.hpp **** 
  14:src/../h/riscv.hpp ****     // Uzimanje vrednosti sstatus.spp i sstatus.spie bita (nije inline funkcija)
  15:src/../h/riscv.hpp ****     static void popSppSpie();
  16:src/../h/riscv.hpp **** 
  17:src/../h/riscv.hpp ****     // Citanje vrednosti registra scause
  18:src/../h/riscv.hpp ****     static uint64 r_scause();
  19:src/../h/riscv.hpp **** 
GAS LISTING /tmp/ccq3perE.s 			page 4


  20:src/../h/riscv.hpp ****     // Upisivanje u registar scause
  21:src/../h/riscv.hpp ****     static void w_scause(uint64 scause);
  22:src/../h/riscv.hpp **** 
  23:src/../h/riscv.hpp ****     // Citanje registra sepc
  24:src/../h/riscv.hpp ****     static uint64 r_sepc();
  25:src/../h/riscv.hpp **** 
  26:src/../h/riscv.hpp ****     // Upisivanje u registar sepc
  27:src/../h/riscv.hpp ****     static void w_sepc(uint64 sepc);
  28:src/../h/riscv.hpp **** 
  29:src/../h/riscv.hpp ****     // Citanje registra stvec
  30:src/../h/riscv.hpp ****     static uint64 r_stvec();
  31:src/../h/riscv.hpp **** 
  32:src/../h/riscv.hpp ****     // Upisivanje u registar stvec
  33:src/../h/riscv.hpp ****     static void w_stvec(uint64 stvec);
  34:src/../h/riscv.hpp **** 
  35:src/../h/riscv.hpp ****     // Citanje registra stval
  36:src/../h/riscv.hpp ****     static uint64 r_stval();
  37:src/../h/riscv.hpp **** 
  38:src/../h/riscv.hpp ****     // Upisivanje u registar stval
  39:src/../h/riscv.hpp ****     static void w_stval(uint64 stval);
  40:src/../h/riscv.hpp **** 
  41:src/../h/riscv.hpp ****     enum BitMaskSip {
  42:src/../h/riscv.hpp ****         SIP_SSIP = (1 << 1),
  43:src/../h/riscv.hpp ****         SIP_STIP = (1 << 5),
  44:src/../h/riscv.hpp ****         SIP_SEIP = (1 << 9)
  45:src/../h/riscv.hpp ****     };
  46:src/../h/riscv.hpp **** 
  47:src/../h/riscv.hpp ****     // Postavi masku za registar sip
  48:src/../h/riscv.hpp ****     static void ms_sip(uint64 mask);
  49:src/../h/riscv.hpp **** 
  50:src/../h/riscv.hpp ****     // Obrisi masku iz registra sip
  51:src/../h/riscv.hpp ****     static void mc_sip(uint64 mask);
  52:src/../h/riscv.hpp **** 
  53:src/../h/riscv.hpp ****     // Citanje registra sip
  54:src/../h/riscv.hpp ****     static uint64 r_sip();
  55:src/../h/riscv.hpp **** 
  56:src/../h/riscv.hpp ****     // Upisivanje u registar sip
  57:src/../h/riscv.hpp ****     static void w_sip(uint64 sip);
  58:src/../h/riscv.hpp **** 
  59:src/../h/riscv.hpp ****     enum BitMaskSstatus {
  60:src/../h/riscv.hpp ****         SSTATUS_SIE = (1 << 1),
  61:src/../h/riscv.hpp ****         SSTATUS_SPIE = (1 << 5),
  62:src/../h/riscv.hpp ****         SSTATUS_SPP = (1 << 8),
  63:src/../h/riscv.hpp ****     };
  64:src/../h/riscv.hpp **** 
  65:src/../h/riscv.hpp ****     // Postavi masku za registar sstatus
  66:src/../h/riscv.hpp ****     static void ms_sstatus(uint64 mask);
  67:src/../h/riscv.hpp **** 
  68:src/../h/riscv.hpp ****     // Obrisi masku iz registra sstatus
  69:src/../h/riscv.hpp ****     static void mc_sstatus(uint64 mask);
  70:src/../h/riscv.hpp **** 
  71:src/../h/riscv.hpp ****     // Citanje registra sstatus
  72:src/../h/riscv.hpp ****     static uint64 r_sstatus();
  73:src/../h/riscv.hpp **** 
  74:src/../h/riscv.hpp ****     // Upisivanje u registar sstatus
  75:src/../h/riscv.hpp ****     static void w_sstatus(uint64 sstatus);
  76:src/../h/riscv.hpp **** 
GAS LISTING /tmp/ccq3perE.s 			page 5


  77:src/../h/riscv.hpp ****     // Supervizorska prekidna rutina
  78:src/../h/riscv.hpp ****     static void supervisorTrap();
  79:src/../h/riscv.hpp **** 
  80:src/../h/riscv.hpp ****     // Citanje registra a0
  81:src/../h/riscv.hpp ****     static uint64 r_a0();
  82:src/../h/riscv.hpp **** 
  83:src/../h/riscv.hpp ****     // Upisivanje u registar a0
  84:src/../h/riscv.hpp ****     static void w_a0(uint64 value);
  85:src/../h/riscv.hpp **** 
  86:src/../h/riscv.hpp ****     static void exitEmulator();
  87:src/../h/riscv.hpp **** 
  88:src/../h/riscv.hpp **** private:
  89:src/../h/riscv.hpp ****     // Rukovalac prekidnom rutinom
  90:src/../h/riscv.hpp ****     static void handleSupervisorTrap();
  91:src/../h/riscv.hpp **** };
  92:src/../h/riscv.hpp **** 
  93:src/../h/riscv.hpp **** inline uint64 Riscv::r_scause() {
  94:src/../h/riscv.hpp ****     uint64 volatile scause;
  95:src/../h/riscv.hpp ****     __asm__ volatile("csrr %0, scause" : "=r"(scause));
  96:src/../h/riscv.hpp ****     return scause;
  97:src/../h/riscv.hpp **** }
  98:src/../h/riscv.hpp **** 
  99:src/../h/riscv.hpp **** inline void Riscv::w_scause(uint64 scause) {
 100:src/../h/riscv.hpp ****     __asm__ volatile("csrw scause, %0" : : "r"(scause));
 101:src/../h/riscv.hpp **** }
 102:src/../h/riscv.hpp **** 
 103:src/../h/riscv.hpp **** inline uint64 Riscv::r_sepc() {
 104:src/../h/riscv.hpp ****     uint64 volatile sepc;
  77              		.loc 3 104 5 is_stmt 1
 105:src/../h/riscv.hpp ****     __asm__ volatile("csrr %0, sepc" : "=r"(sepc));
  78              		.loc 3 105 5
  79              		.loc 3 105 51 is_stmt 0
  80              	#APP
  81              	# 105 "src/../h/riscv.hpp" 1
 106              	    return sepc;
  82              		csrr a5, sepc
  83              	# 0 "" 2
  84              	#NO_APP
  85 0078 2330F4FC 		sd	a5,-64(s0)
  86              		.loc 3 106 5 is_stmt 1
  87              		.loc 3 106 12 is_stmt 0
  88 007c 833704FC 		ld	a5,-64(s0)
  89              	.LBE35:
  90              	.LBE34:
  91              		.loc 2 59 22
  92 0080 23B4F402 		sd	a5,40(s1)
  93              	.LBB36:
  94              	.LBB37:
 107:src/../h/riscv.hpp **** }
 108:src/../h/riscv.hpp **** 
 109:src/../h/riscv.hpp **** inline void Riscv::w_sepc(uint64 sepc) {
 110:src/../h/riscv.hpp ****     __asm__ volatile("csrw sepc, %0" : : "r"(sepc));
 111:src/../h/riscv.hpp **** }
 112:src/../h/riscv.hpp **** 
 113:src/../h/riscv.hpp **** inline uint64 Riscv::r_stvec() {
 114:src/../h/riscv.hpp ****     uint64 volatile stvec;
 115:src/../h/riscv.hpp ****     __asm__ volatile("csrr %0, stvec" : "=r"(stvec));
GAS LISTING /tmp/ccq3perE.s 			page 6


 116:src/../h/riscv.hpp ****     return stvec;
 117:src/../h/riscv.hpp **** }
 118:src/../h/riscv.hpp **** 
 119:src/../h/riscv.hpp **** inline void Riscv::w_stvec(uint64 stvec) {
 120:src/../h/riscv.hpp ****     __asm__ volatile("csrw stvec, %0" : : "r"(stvec));
 121:src/../h/riscv.hpp **** }
 122:src/../h/riscv.hpp **** 
 123:src/../h/riscv.hpp **** inline uint64 Riscv::r_stval() {
 124:src/../h/riscv.hpp ****     uint64 volatile stval;
 125:src/../h/riscv.hpp ****     __asm__ volatile("csrr %0, stval" : "=r"(stval));
 126:src/../h/riscv.hpp ****     return stval;
 127:src/../h/riscv.hpp **** }
 128:src/../h/riscv.hpp **** 
 129:src/../h/riscv.hpp **** inline void Riscv::w_stval(uint64 stval) {
 130:src/../h/riscv.hpp ****     __asm__ volatile("csrw stval, %0" : : "r"(stval));
 131:src/../h/riscv.hpp **** }
 132:src/../h/riscv.hpp **** 
 133:src/../h/riscv.hpp **** inline void Riscv::ms_sip(uint64 mask) {
 134:src/../h/riscv.hpp ****     __asm__ volatile("csrs sip, %0" : : "r"(mask));
 135:src/../h/riscv.hpp **** }
 136:src/../h/riscv.hpp **** 
 137:src/../h/riscv.hpp **** inline void Riscv::mc_sip(uint64 mask) {
 138:src/../h/riscv.hpp ****     __asm__ volatile("csrc sip, %0" : : "r"(mask));
 139:src/../h/riscv.hpp **** }
 140:src/../h/riscv.hpp **** 
 141:src/../h/riscv.hpp **** inline uint64 Riscv::r_sip() {
 142:src/../h/riscv.hpp ****     uint64 volatile sip;
 143:src/../h/riscv.hpp ****     __asm__ volatile("csrr %0, sip" : "=r"(sip));
 144:src/../h/riscv.hpp ****     return sip;
 145:src/../h/riscv.hpp **** }
 146:src/../h/riscv.hpp **** 
 147:src/../h/riscv.hpp **** inline void Riscv::w_sip(uint64 sip) {
 148:src/../h/riscv.hpp ****     __asm__ volatile("csrc sip, %0" : : "r"(sip));
 149:src/../h/riscv.hpp **** }
 150:src/../h/riscv.hpp **** 
 151:src/../h/riscv.hpp **** inline void Riscv::ms_sstatus(uint64 mask) {
 152:src/../h/riscv.hpp ****     __asm__ volatile("csrs sstatus, %0" : : "r"(mask));
 153:src/../h/riscv.hpp **** }
 154:src/../h/riscv.hpp **** 
 155:src/../h/riscv.hpp **** inline void Riscv::mc_sstatus(uint64 mask) {
 156:src/../h/riscv.hpp ****     __asm__ volatile("csrc sstatus, %0" : : "r"(mask));
 157:src/../h/riscv.hpp **** }
 158:src/../h/riscv.hpp **** 
 159:src/../h/riscv.hpp **** inline uint64 Riscv::r_sstatus() {
 160:src/../h/riscv.hpp ****     uint64 volatile sstatus;
  95              		.loc 3 160 5 is_stmt 1
 161:src/../h/riscv.hpp ****     __asm__ volatile("csrr %0, sstatus" : "=r"(sstatus));
  96              		.loc 3 161 5
  97              		.loc 3 161 57 is_stmt 0
  98              	#APP
  99              	# 161 "src/../h/riscv.hpp" 1
 162              	    return sstatus;
 100              		csrr a5, sstatus
 101              	# 0 "" 2
 102              	#NO_APP
 103 0088 2334F4FC 		sd	a5,-56(s0)
 104              		.loc 3 162 5 is_stmt 1
GAS LISTING /tmp/ccq3perE.s 			page 7


 105              		.loc 3 162 12 is_stmt 0
 106 008c 833784FC 		ld	a5,-56(s0)
 107              	.LBE37:
 108              	.LBE36:
 109              		.loc 2 59 22
 110 0090 23B8F402 		sd	a5,48(s1)
 111 0094 93072000 		li	a5,2
 112 0098 23BCF402 		sd	a5,56(s1)
  57:src/../h/tcb.hpp ****         finished(false),
 113              		.loc 2 57 19
 114 009c 13391900 		seqz	s2,s2
 115              	.LVL5:
 116              		.loc 2 59 22
 117 00a0 23802405 		sb	s2,64(s1)
 118 00a4 A3800404 		sb	zero,65(s1)
 119 00a8 23810404 		sb	zero,66(s1)
 120              	.LVL6:
 121              	.LBE33:
 122              	.LBE32:
  11:src/tcb.cpp   ****     if(!tcb->isMain()) Scheduler::put(tcb);
 123              		.loc 1 11 5 is_stmt 1
 124              	.LBB39:
 125              	.LBB40:
  29:src/../h/tcb.hpp **** 
 126              		.loc 2 29 27
  29:src/../h/tcb.hpp **** 
 127              		.loc 2 29 40 is_stmt 0
 128 00ac 13791900 		andi	s2,s2,1
 129              	.LVL7:
 130              	.LBE40:
 131              	.LBE39:
 132              		.loc 1 11 5
 133 00b0 63060902 		beqz	s2,.L10
 134              	.L1:
  12:src/tcb.cpp   ****     return tcb;
  13:src/tcb.cpp   **** }
 135              		.loc 1 13 1
 136 00b4 13850400 		mv	a0,s1
 137 00b8 83308103 		ld	ra,56(sp)
 138              		.cfi_remember_state
 139              		.cfi_restore 1
 140 00bc 03340103 		ld	s0,48(sp)
 141              		.cfi_restore 8
 142              		.cfi_def_cfa 2, 64
 143 00c0 83348102 		ld	s1,40(sp)
 144              		.cfi_restore 9
 145              	.LVL8:
 146 00c4 03390102 		ld	s2,32(sp)
 147              		.cfi_restore 18
 148 00c8 83398101 		ld	s3,24(sp)
 149              		.cfi_restore 19
 150              	.LVL9:
 151 00cc 13010104 		addi	sp,sp,64
 152              		.cfi_def_cfa_offset 0
 153 00d0 67800000 		jr	ra
 154              	.LVL10:
 155              	.L7:
GAS LISTING /tmp/ccq3perE.s 			page 8


 156              		.cfi_restore_state
 157              	.LBB41:
 158              	.LBB38:
  52:src/../h/tcb.hpp ****             Riscv::r_sepc(),
 159              		.loc 2 52 30
 160 00d4 13050000 		li	a0,0
 161 00d8 6FF09FF9 		j	.L3
 162              	.LVL11:
 163              	.L10:
 164              	.LBE38:
 165              	.LBE41:
  11:src/tcb.cpp   ****     return tcb;
 166              		.loc 1 11 24 is_stmt 1 discriminator 1
  11:src/tcb.cpp   ****     return tcb;
 167              		.loc 1 11 38 is_stmt 0 discriminator 1
 168 00dc 13850400 		mv	a0,s1
 169              	.LEHB2:
 170 00e0 97000000 		call	_ZN9Scheduler3putEP3TCB@plt
 170      E7800000 
 171              	.LVL12:
  12:src/tcb.cpp   ****     return tcb;
 172              		.loc 1 12 5 is_stmt 1 discriminator 1
  12:src/tcb.cpp   ****     return tcb;
 173              		.loc 1 12 12 is_stmt 0 discriminator 1
 174 00e8 6FF0DFFC 		j	.L1
 175              	.LVL13:
 176              	.L8:
 177 00ec 13090500 		mv	s2,a0
 178              	.LVL14:
  10:src/tcb.cpp   ****     if(!tcb->isMain()) Scheduler::put(tcb);
 179              		.loc 1 10 33
 180 00f0 13850400 		mv	a0,s1
 181 00f4 97000000 		call	_ZdlPv@plt
 181      E7800000 
 182              	.LVL15:
 183 00fc 13050900 		mv	a0,s2
 184 0100 97000000 		call	_Unwind_Resume@plt
 184      E7800000 
 185              	.LVL16:
 186              	.LEHE2:
 187              		.cfi_endproc
 188              	.LFE54:
 189              		.globl	__gxx_personality_v0
 190              		.section	.gcc_except_table,"a",@progbits
 191              	.LLSDA54:
 192 0000 FF       		.byte	0xff
 193 0001 FF       		.byte	0xff
 194 0002 03       		.byte	0x3
 195 0003 27       		.byte	0x27
 196 0004 00000000 		.4byte	.LEHB0-.LFB54
 197 0008 00000000 		.4byte	.LEHE0-.LEHB0
 198 000c 00000000 		.4byte	0
 199 0010 00       		.byte	0
 200 0011 00000000 		.4byte	.LEHB1-.LFB54
 201 0015 00000000 		.4byte	.LEHE1-.LEHB1
 202 0019 00000000 		.4byte	.L8-.LFB54
 203 001d 00       		.byte	0
GAS LISTING /tmp/ccq3perE.s 			page 9


 204 001e 00000000 		.4byte	.LEHB2-.LFB54
 205 0022 00000000 		.4byte	.LEHE2-.LEHB2
 206 0026 00000000 		.4byte	0
 207 002a 00       		.byte	0
 208              		.text
 210              		.align	2
 211              		.globl	_ZN3TCB27createThreadWithoutStartingEPFvPvES0_
 213              	_ZN3TCB27createThreadWithoutStartingEPFvPvES0_:
 214              	.LFB55:
  14:src/tcb.cpp   **** 
  15:src/tcb.cpp   **** TCB* TCB::createThreadWithoutStarting(Body body, void* arg) {
 215              		.loc 1 15 61 is_stmt 1
 216              		.cfi_startproc
 217              		.cfi_personality 0x9b,DW.ref.__gxx_personality_v0
 218              		.cfi_lsda 0x1b,.LLSDA55
 219              	.LVL17:
 220 0108 130101FC 		addi	sp,sp,-64
 221              		.cfi_def_cfa_offset 64
 222 010c 233C1102 		sd	ra,56(sp)
 223 0110 23388102 		sd	s0,48(sp)
 224 0114 23349102 		sd	s1,40(sp)
 225 0118 23302103 		sd	s2,32(sp)
 226 011c 233C3101 		sd	s3,24(sp)
 227              		.cfi_offset 1, -8
 228              		.cfi_offset 8, -16
 229              		.cfi_offset 9, -24
 230              		.cfi_offset 18, -32
 231              		.cfi_offset 19, -40
 232 0120 13040104 		addi	s0,sp,64
 233              		.cfi_def_cfa 8, 0
 234 0124 13090500 		mv	s2,a0
 235 0128 93890500 		mv	s3,a1
  16:src/tcb.cpp   ****     return new TCB(body, arg);
 236              		.loc 1 16 5
 237              		.loc 1 16 29 is_stmt 0
 238 012c 13058004 		li	a0,72
 239              	.LVL18:
 240              	.LEHB3:
 241 0130 97000000 		call	_Znwm@plt
 241      E7800000 
 242              	.LVL19:
 243              	.LEHE3:
 244 0138 93040500 		mv	s1,a0
 245              	.LVL20:
 246              	.LBB49:
 247              	.LBB50:
 248              		.loc 2 59 22
 249 013c 23302501 		sd	s2,0(a0)
 250 0140 23343501 		sd	s3,8(a0)
  49:src/../h/tcb.hpp ****         context({
 251              		.loc 2 49 31
 252 0144 630A0900 		beqz	s2,.L15
  49:src/../h/tcb.hpp ****         context({
 253              		.loc 2 49 62
 254 0148 37850000 		li	a0,32768
 255              	.LEHB4:
 256 014c 97000000 		call	_Znam@plt
GAS LISTING /tmp/ccq3perE.s 			page 10


 256      E7800000 
 257              	.LVL21:
 258              	.LEHE4:
 259 0154 6F008000 		j	.L12
 260              	.L15:
  49:src/../h/tcb.hpp ****         context({
 261              		.loc 2 49 31
 262 0158 13050000 		li	a0,0
 263              	.L12:
 264              		.loc 2 59 22
 265 015c 23B8A400 		sd	a0,16(s1)
 266 0160 97070000 		lla	a5,_ZN3TCB13threadWrapperEv
 266      93870700 
 267 0168 23BCF400 		sd	a5,24(s1)
  52:src/../h/tcb.hpp ****             Riscv::r_sepc(),
 268              		.loc 2 52 30
 269 016c 63040506 		beqz	a0,.L16
  52:src/../h/tcb.hpp ****             Riscv::r_sepc(),
 270              		.loc 2 52 40
 271 0170 B7870000 		li	a5,32768
 272 0174 3305F500 		add	a0,a0,a5
 273              	.L13:
 274              		.loc 2 59 22
 275 0178 23B0A402 		sd	a0,32(s1)
 276              	.LBB51:
 277              	.LBB52:
 104:src/../h/riscv.hpp ****     __asm__ volatile("csrr %0, sepc" : "=r"(sepc));
 278              		.loc 3 104 5 is_stmt 1
 105:src/../h/riscv.hpp ****     return sepc;
 279              		.loc 3 105 5
 105:src/../h/riscv.hpp ****     return sepc;
 280              		.loc 3 105 51 is_stmt 0
 281              	#APP
 282              	# 105 "src/../h/riscv.hpp" 1
 283              		csrr a5, sepc
 284              	# 0 "" 2
 285              	#NO_APP
 286 0180 2330F4FC 		sd	a5,-64(s0)
 106:src/../h/riscv.hpp **** }
 287              		.loc 3 106 5 is_stmt 1
 106:src/../h/riscv.hpp **** }
 288              		.loc 3 106 12 is_stmt 0
 289 0184 833704FC 		ld	a5,-64(s0)
 290              	.LBE52:
 291              	.LBE51:
 292              		.loc 2 59 22
 293 0188 23B4F402 		sd	a5,40(s1)
 294              	.LBB53:
 295              	.LBB54:
 160:src/../h/riscv.hpp ****     __asm__ volatile("csrr %0, sstatus" : "=r"(sstatus));
 296              		.loc 3 160 5 is_stmt 1
 161:src/../h/riscv.hpp ****     return sstatus;
 297              		.loc 3 161 5
 161:src/../h/riscv.hpp ****     return sstatus;
 298              		.loc 3 161 57 is_stmt 0
 299              	#APP
 300              	# 161 "src/../h/riscv.hpp" 1
GAS LISTING /tmp/ccq3perE.s 			page 11


 301              		csrr a5, sstatus
 302              	# 0 "" 2
 303              	#NO_APP
 304 0190 2334F4FC 		sd	a5,-56(s0)
 305              		.loc 3 162 5 is_stmt 1
 306              		.loc 3 162 12 is_stmt 0
 307 0194 833784FC 		ld	a5,-56(s0)
 308              	.LBE54:
 309              	.LBE53:
 310              		.loc 2 59 22
 311 0198 23B8F402 		sd	a5,48(s1)
 312 019c 93072000 		li	a5,2
 313 01a0 23BCF402 		sd	a5,56(s1)
  57:src/../h/tcb.hpp ****         finished(false),
 314              		.loc 2 57 19
 315 01a4 13391900 		seqz	s2,s2
 316              	.LVL22:
 317              		.loc 2 59 22
 318 01a8 23802405 		sb	s2,64(s1)
 319 01ac A3800404 		sb	zero,65(s1)
 320 01b0 23810404 		sb	zero,66(s1)
 321              	.LVL23:
 322              	.LBE50:
 323              	.LBE49:
  17:src/tcb.cpp   **** }
 324              		.loc 1 17 1
 325 01b4 13850400 		mv	a0,s1
 326 01b8 83308103 		ld	ra,56(sp)
 327              		.cfi_remember_state
 328              		.cfi_restore 1
 329 01bc 03340103 		ld	s0,48(sp)
 330              		.cfi_restore 8
 331              		.cfi_def_cfa 2, 64
 332 01c0 83348102 		ld	s1,40(sp)
 333              		.cfi_restore 9
 334 01c4 03390102 		ld	s2,32(sp)
 335              		.cfi_restore 18
 336 01c8 83398101 		ld	s3,24(sp)
 337              		.cfi_restore 19
 338              	.LVL24:
 339 01cc 13010104 		addi	sp,sp,64
 340              		.cfi_def_cfa_offset 0
 341 01d0 67800000 		jr	ra
 342              	.LVL25:
 343              	.L16:
 344              		.cfi_restore_state
 345              	.LBB56:
 346              	.LBB55:
  52:src/../h/tcb.hpp ****             Riscv::r_sepc(),
 347              		.loc 2 52 30
 348 01d4 13050000 		li	a0,0
 349 01d8 6FF01FFA 		j	.L13
 350              	.L17:
 351 01dc 13090500 		mv	s2,a0
 352              	.LVL26:
 353              	.LBE55:
 354              	.LBE56:
GAS LISTING /tmp/ccq3perE.s 			page 12


  16:src/tcb.cpp   **** }
 355              		.loc 1 16 29
 356 01e0 13850400 		mv	a0,s1
 357 01e4 97000000 		call	_ZdlPv@plt
 357      E7800000 
 358              	.LVL27:
 359 01ec 13050900 		mv	a0,s2
 360              	.LEHB5:
 361 01f0 97000000 		call	_Unwind_Resume@plt
 361      E7800000 
 362              	.LVL28:
 363              	.LEHE5:
 364              		.cfi_endproc
 365              	.LFE55:
 366              		.section	.gcc_except_table
 367              	.LLSDA55:
 368 002b FF       		.byte	0xff
 369 002c FF       		.byte	0xff
 370 002d 03       		.byte	0x3
 371 002e 27       		.byte	0x27
 372 002f 00000000 		.4byte	.LEHB3-.LFB55
 373 0033 00000000 		.4byte	.LEHE3-.LEHB3
 374 0037 00000000 		.4byte	0
 375 003b 00       		.byte	0
 376 003c 00000000 		.4byte	.LEHB4-.LFB55
 377 0040 00000000 		.4byte	.LEHE4-.LEHB4
 378 0044 00000000 		.4byte	.L17-.LFB55
 379 0048 00       		.byte	0
 380 0049 00000000 		.4byte	.LEHB5-.LFB55
 381 004d 00000000 		.4byte	.LEHE5-.LEHB5
 382 0051 00000000 		.4byte	0
 383 0055 00       		.byte	0
 384              		.text
 386              		.align	2
 387              		.globl	_ZN3TCB11startThreadEPS_
 389              	_ZN3TCB11startThreadEPS_:
 390              	.LFB56:
  18:src/tcb.cpp   **** 
  19:src/tcb.cpp   **** void TCB::startThread(TCB* tcb) {
 391              		.loc 1 19 33 is_stmt 1
 392              		.cfi_startproc
 393              	.LVL29:
 394 01f8 130101FF 		addi	sp,sp,-16
 395              		.cfi_def_cfa_offset 16
 396 01fc 23341100 		sd	ra,8(sp)
 397 0200 23308100 		sd	s0,0(sp)
 398              		.cfi_offset 1, -8
 399              		.cfi_offset 8, -16
 400 0204 13040101 		addi	s0,sp,16
 401              		.cfi_def_cfa 8, 0
  20:src/tcb.cpp   ****     Scheduler::put(tcb);
 402              		.loc 1 20 5
 403              		.loc 1 20 19 is_stmt 0
 404 0208 97000000 		call	_ZN9Scheduler3putEP3TCB@plt
 404      E7800000 
 405              	.LVL30:
  21:src/tcb.cpp   **** }
GAS LISTING /tmp/ccq3perE.s 			page 13


 406              		.loc 1 21 1
 407 0210 83308100 		ld	ra,8(sp)
 408              		.cfi_restore 1
 409 0214 03340100 		ld	s0,0(sp)
 410              		.cfi_restore 8
 411              		.cfi_def_cfa 2, 16
 412 0218 13010101 		addi	sp,sp,16
 413              		.cfi_def_cfa_offset 0
 414 021c 67800000 		jr	ra
 415              		.cfi_endproc
 416              	.LFE56:
 418              		.align	2
 419              		.globl	_ZN3TCB5yieldEv
 421              	_ZN3TCB5yieldEv:
 422              	.LFB57:
  22:src/tcb.cpp   **** 
  23:src/tcb.cpp   **** void TCB::yield() {
 423              		.loc 1 23 19 is_stmt 1
 424              		.cfi_startproc
 425 0220 130101FF 		addi	sp,sp,-16
 426              		.cfi_def_cfa_offset 16
 427 0224 23348100 		sd	s0,8(sp)
 428              		.cfi_offset 8, -8
 429 0228 13040101 		addi	s0,sp,16
 430              		.cfi_def_cfa 8, 0
  24:src/tcb.cpp   ****     Riscv::w_a0(0);
 431              		.loc 1 24 5
 432              	.LVL31:
 433              	.LBB57:
 434              	.LBB58:
 163:src/../h/riscv.hpp **** }
 164:src/../h/riscv.hpp **** 
 165:src/../h/riscv.hpp **** inline void Riscv::w_sstatus(uint64 sstatus) {
 166:src/../h/riscv.hpp ****     __asm__ volatile("csrc sstatus, %0" : : "r"(sstatus));
 167:src/../h/riscv.hpp **** }
 168:src/../h/riscv.hpp **** 
 169:src/../h/riscv.hpp **** inline uint64 Riscv::r_a0() {
 170:src/../h/riscv.hpp ****     uint64 volatile a0;
 171:src/../h/riscv.hpp ****     __asm__ volatile("mv %0, a0" : "=r"(a0));
 172:src/../h/riscv.hpp ****     return a0;
 173:src/../h/riscv.hpp **** }
 174:src/../h/riscv.hpp **** 
 175:src/../h/riscv.hpp **** inline void Riscv::w_a0(uint64 value) {
 176:src/../h/riscv.hpp ****     __asm__ volatile("mv a0, %0" : : "r"(value));
 435              		.loc 3 176 5
 436              		.loc 3 176 49 is_stmt 0
 437 022c 93070000 		li	a5,0
 438              	#APP
 439              	# 176 "src/../h/riscv.hpp" 1
 177              	}
 440              		mv a0, a5
 441              	# 0 "" 2
 442              	.LVL32:
 443              	#NO_APP
 444              	.LBE58:
 445              	.LBE57:
  25:src/tcb.cpp   ****     __asm__ volatile("ecall");
GAS LISTING /tmp/ccq3perE.s 			page 14


 446              		.loc 1 25 5 is_stmt 1
 447              		.loc 1 25 30 is_stmt 0
 448              	#APP
 449              	# 25 "src/tcb.cpp" 1
  26              	}
 450              		ecall
 451              	# 0 "" 2
 452              		.loc 1 26 1
 453              	#NO_APP
 454 0238 03348100 		ld	s0,8(sp)
 455              		.cfi_restore 8
 456              		.cfi_def_cfa 2, 16
 457 023c 13010101 		addi	sp,sp,16
 458              		.cfi_def_cfa_offset 0
 459 0240 67800000 		jr	ra
 460              		.cfi_endproc
 461              	.LFE57:
 463              		.align	2
 464              		.globl	_ZN3TCB13threadWrapperEv
 466              	_ZN3TCB13threadWrapperEv:
 467              	.LFB59:
  27:src/tcb.cpp   **** 
  28:src/tcb.cpp   **** void TCB::dispatch() {
  29:src/tcb.cpp   ****     TCB* old = running;
  30:src/tcb.cpp   ****     if(!old->isFinished() && !old->isBlocked()){ Scheduler::put(old); }
  31:src/tcb.cpp   ****     running = Scheduler::get();
  32:src/tcb.cpp   **** 
  33:src/tcb.cpp   ****     if(running->isMain()) {
  34:src/tcb.cpp   ****         Riscv::ms_sstatus(Riscv::SSTATUS_SPP);
  35:src/tcb.cpp   ****     } else {
  36:src/tcb.cpp   ****         Riscv::mc_sstatus(Riscv::SSTATUS_SPP);
  37:src/tcb.cpp   ****     }
  38:src/tcb.cpp   **** 
  39:src/tcb.cpp   ****     TCB::contextSwitch(&old->context, &running->context);
  40:src/tcb.cpp   **** }
  41:src/tcb.cpp   **** 
  42:src/tcb.cpp   **** void TCB::threadWrapper() {
 468              		.loc 1 42 27 is_stmt 1
 469              		.cfi_startproc
 470 0244 130101FE 		addi	sp,sp,-32
 471              		.cfi_def_cfa_offset 32
 472 0248 233C1100 		sd	ra,24(sp)
 473 024c 23388100 		sd	s0,16(sp)
 474 0250 23349100 		sd	s1,8(sp)
 475              		.cfi_offset 1, -8
 476              		.cfi_offset 8, -16
 477              		.cfi_offset 9, -24
 478 0254 13040102 		addi	s0,sp,32
 479              		.cfi_def_cfa 8, 0
  43:src/tcb.cpp   ****     Riscv::popSppSpie();
 480              		.loc 1 43 5
 481              		.loc 1 43 22 is_stmt 0
 482 0258 97000000 		call	_ZN5Riscv10popSppSpieEv@plt
 482      E7800000 
 483              	.LVL33:
  44:src/tcb.cpp   ****     running->body(running->arg);
 484              		.loc 1 44 5 is_stmt 1
GAS LISTING /tmp/ccq3perE.s 			page 15


 485              		.loc 1 44 14 is_stmt 0
 486 0260 97040000 		lla	s1,.LANCHOR0
 486      93840400 
 487 0268 83B70400 		ld	a5,0(s1)
 488 026c 03B70700 		ld	a4,0(a5)
 489              		.loc 1 44 18
 490 0270 03B58700 		ld	a0,8(a5)
 491 0274 E7000700 		jalr	a4
 492              	.LVL34:
  45:src/tcb.cpp   ****     running->setFinished(true);
 493              		.loc 1 45 5 is_stmt 1
 494              		.loc 1 45 25 is_stmt 0
 495 0278 83B70400 		ld	a5,0(s1)
 496              	.LVL35:
 497              	.LBB59:
 498              	.LBB60:
  15:src/../h/tcb.hpp **** 
 499              		.loc 2 15 39 is_stmt 1
  15:src/../h/tcb.hpp **** 
 500              		.loc 2 15 54 is_stmt 0
 501 027c 13071000 		li	a4,1
 502 0280 A380E704 		sb	a4,65(a5)
 503              	.LVL36:
 504              	.LBE60:
 505              	.LBE59:
  46:src/tcb.cpp   ****     TCB::yield();
 506              		.loc 1 46 5 is_stmt 1
 507              		.loc 1 46 15 is_stmt 0
 508 0284 97000000 		call	_ZN3TCB5yieldEv
 508      E7800000 
 509              	.LVL37:
  47:src/tcb.cpp   **** }...
 510              		.loc 1 47 1
 511 028c 83308101 		ld	ra,24(sp)
 512              		.cfi_restore 1
 513 0290 03340101 		ld	s0,16(sp)
 514              		.cfi_restore 8
 515              		.cfi_def_cfa 2, 32
 516 0294 83348100 		ld	s1,8(sp)
 517              		.cfi_restore 9
 518 0298 13010102 		addi	sp,sp,32
 519              		.cfi_def_cfa_offset 0
 520 029c 67800000 		jr	ra
 521              		.cfi_endproc
 522              	.LFE59:
 524              		.align	2
 525              		.globl	_ZN3TCB8dispatchEv
 527              	_ZN3TCB8dispatchEv:
 528              	.LFB58:
  28:src/tcb.cpp   **** void TCB::dispatch() {
 529              		.loc 1 28 22 is_stmt 1
 530              		.cfi_startproc
 531 02a0 130101FE 		addi	sp,sp,-32
 532              		.cfi_def_cfa_offset 32
 533 02a4 233C1100 		sd	ra,24(sp)
 534 02a8 23388100 		sd	s0,16(sp)
 535 02ac 23349100 		sd	s1,8(sp)
GAS LISTING /tmp/ccq3perE.s 			page 16


 536              		.cfi_offset 1, -8
 537              		.cfi_offset 8, -16
 538              		.cfi_offset 9, -24
 539 02b0 13040102 		addi	s0,sp,32
 540              		.cfi_def_cfa 8, 0
  29:src/tcb.cpp   ****     TCB* old = running;
 541              		.loc 1 29 5
  29:src/tcb.cpp   ****     TCB* old = running;
 542              		.loc 1 29 10 is_stmt 0
 543 02b4 97040000 		ld	s1,.LANCHOR0
 543      83B40400 
 544              	.LVL38:
  30:src/tcb.cpp   ****     if(!old->isFinished() && !old->isBlocked()){ Scheduler::put(old); }
 545              		.loc 1 30 5 is_stmt 1
 546              	.LBB61:
 547              	.LBB62:
  13:src/../h/tcb.hpp **** 
 548              		.loc 2 13 31
  13:src/../h/tcb.hpp **** 
 549              		.loc 2 13 38 is_stmt 0
 550 02bc 83C71404 		lbu	a5,65(s1)
 551              	.LVL39:
 552              	.LBE62:
 553              	.LBE61:
  30:src/tcb.cpp   ****     if(!old->isFinished() && !old->isBlocked()){ Scheduler::put(old); }
 554              		.loc 1 30 27
 555 02c0 63960700 		bnez	a5,.L27
 556              	.LVL40:
 557              	.LBB63:
 558              	.LBB64:
  17:src/../h/tcb.hpp **** 
 559              		.loc 2 17 30 is_stmt 1
  17:src/../h/tcb.hpp **** 
 560              		.loc 2 17 37 is_stmt 0
 561 02c4 83C72404 		lbu	a5,66(s1)
 562              	.LVL41:
 563              	.LBE64:
 564              	.LBE63:
  30:src/tcb.cpp   ****     if(!old->isFinished() && !old->isBlocked()){ Scheduler::put(old); }
 565              		.loc 1 30 27
 566 02c8 63840704 		beqz	a5,.L31
 567              	.L27:
  31:src/tcb.cpp   ****     running = Scheduler::get();
 568              		.loc 1 31 5 is_stmt 1
  31:src/tcb.cpp   ****     running = Scheduler::get();
 569              		.loc 1 31 29 is_stmt 0
 570 02cc 97000000 		call	_ZN9Scheduler3getEv@plt
 570      E7800000 
 571              	.LVL42:
  31:src/tcb.cpp   ****     running = Scheduler::get();
 572              		.loc 1 31 13
 573 02d4 97070000 		sd	a0,.LANCHOR0,a5
 573      23B0A700 
  33:src/tcb.cpp   ****     if(running->isMain()) {
 574              		.loc 1 33 5 is_stmt 1
 575              	.LVL43:
 576              	.LBB65:
GAS LISTING /tmp/ccq3perE.s 			page 17


 577              	.LBB66:
  29:src/../h/tcb.hpp **** 
 578              		.loc 2 29 27
  29:src/../h/tcb.hpp **** 
 579              		.loc 2 29 40 is_stmt 0
 580 02dc 83470504 		lbu	a5,64(a0)
 581              	.LVL44:
 582              	.LBE66:
 583              	.LBE65:
  33:src/tcb.cpp   ****     if(running->isMain()) {
 584              		.loc 1 33 5
 585 02e0 63800704 		beqz	a5,.L28
  34:src/tcb.cpp   ****         Riscv::ms_sstatus(Riscv::SSTATUS_SPP);
 586              		.loc 1 34 9 is_stmt 1
 587              	.LVL45:
 588              	.LBB67:
 589              	.LBB68:
 152:src/../h/riscv.hpp **** }
 590              		.loc 3 152 5
 152:src/../h/riscv.hpp **** }
 591              		.loc 3 152 55 is_stmt 0
 592 02e4 93070010 		li	a5,256
 593              	#APP
 594              	# 152 "src/../h/riscv.hpp" 1
 595              		csrs sstatus, a5
 596              	# 0 "" 2
 597              	.LVL46:
 598              	#NO_APP
 599              	.L29:
 600              	.LBE68:
 601              	.LBE67:
  39:src/tcb.cpp   ****     TCB::contextSwitch(&old->context, &running->context);
 602              		.loc 1 39 5 is_stmt 1
  39:src/tcb.cpp   ****     TCB::contextSwitch(&old->context, &running->context);
 603              		.loc 1 39 23 is_stmt 0
 604 02ec 93058501 		addi	a1,a0,24
 605 02f0 13858401 		addi	a0,s1,24
 606 02f4 97000000 		call	_ZN3TCB13contextSwitchEPNS_7ContextES1_@plt
 606      E7800000 
 607              	.LVL47:
  40:src/tcb.cpp   **** }
 608              		.loc 1 40 1
 609 02fc 83308101 		ld	ra,24(sp)
 610              		.cfi_remember_state
 611              		.cfi_restore 1
 612 0300 03340101 		ld	s0,16(sp)
 613              		.cfi_restore 8
 614              		.cfi_def_cfa 2, 32
 615 0304 83348100 		ld	s1,8(sp)
 616              		.cfi_restore 9
 617              	.LVL48:
 618 0308 13010102 		addi	sp,sp,32
 619              		.cfi_def_cfa_offset 0
 620 030c 67800000 		jr	ra
 621              	.LVL49:
 622              	.L31:
 623              		.cfi_restore_state
GAS LISTING /tmp/ccq3perE.s 			page 18


  30:src/tcb.cpp   ****     if(!old->isFinished() && !old->isBlocked()){ Scheduler::put(old); }
 624              		.loc 1 30 50 is_stmt 1
  30:src/tcb.cpp   ****     if(!old->isFinished() && !old->isBlocked()){ Scheduler::put(old); }
 625              		.loc 1 30 64 is_stmt 0
 626 0310 13850400 		mv	a0,s1
 627 0314 97000000 		call	_ZN9Scheduler3putEP3TCB@plt
 627      E7800000 
 628              	.LVL50:
 629 031c 6FF01FFB 		j	.L27
 630              	.L28:
  36:src/tcb.cpp   ****         Riscv::mc_sstatus(Riscv::SSTATUS_SPP);
 631              		.loc 1 36 9 is_stmt 1
 632              	.LVL51:
 633              	.LBB69:
 634              	.LBB70:
 156:src/../h/riscv.hpp **** }
 635              		.loc 3 156 5
 156:src/../h/riscv.hpp **** }
 636              		.loc 3 156 55 is_stmt 0
 637 0320 93070010 		li	a5,256
 638              	#APP
 639              	# 156 "src/../h/riscv.hpp" 1
 157:src/../h/riscv.hpp **** 
 640              		csrc sstatus, a5
 641              	# 0 "" 2
 642              		.loc 3 157 1
 643              	#NO_APP
 644 0328 6FF05FFC 		j	.L29
 645              	.LBE70:
 646              	.LBE69:
 647              		.cfi_endproc
 648              	.LFE58:
 650              		.globl	_ZN3TCB16timeSliceCounterE
 651              		.globl	_ZN3TCB7runningE
 652              		.bss
 653              		.align	3
 654              		.set	.LANCHOR0,. + 0
 657              	_ZN3TCB7runningE:
 658 0000 00000000 		.zero	8
 658      00000000 
 661              	_ZN3TCB16timeSliceCounterE:
 662 0008 00000000 		.zero	8
 662      00000000 
 663              		.text
 664              	.Letext0:
 665              		.file 4 "src/../h/../lib/hw.h"
 666              		.file 5 "src/../h/../h/scheduler.hpp"
 667              		.file 6 "src/../h/../h/list.hpp"
 668              		.file 7 "src/../h/syscall_c.hpp"
 4000              		.align	3
 4003              	DW.ref.__gxx_personality_v0:
 4004 0000 00000000 		.dword	__gxx_personality_v0
 4004      00000000 
 4005              		.ident	"GCC: (Ubuntu 9.4.0-1ubuntu1~20.04) 9.4.0"
 4006              		.section	.note.GNU-stack,"",@progbits
GAS LISTING /tmp/ccq3perE.s 			page 19


DEFINED SYMBOLS
                            *ABS*:0000000000000000 tcb.cpp
     /tmp/ccq3perE.s:9      .text:0000000000000000 _ZN3TCB12createThreadEPFvPvES0_
     /tmp/ccq3perE.s:13     .text:0000000000000000 .L0 
     /tmp/ccq3perE.s:4003   .data.rel.local.DW.ref.__gxx_personality_v0:0000000000000000 DW.ref.__gxx_personality_v0
     /tmp/ccq3perE.s:17     .text:0000000000000000 .L0 
     /tmp/ccq3perE.s:18     .text:0000000000000004 .L0 
     /tmp/ccq3perE.s:24     .text:0000000000000018 .L0 
     /tmp/ccq3perE.s:25     .text:0000000000000018 .L0 
     /tmp/ccq3perE.s:26     .text:0000000000000018 .L0 
     /tmp/ccq3perE.s:27     .text:0000000000000018 .L0 
     /tmp/ccq3perE.s:28     .text:0000000000000018 .L0 
     /tmp/ccq3perE.s:30     .text:000000000000001c .L0 
     /tmp/ccq3perE.s:34     .text:0000000000000024 .L0 
     /tmp/ccq3perE.s:35     .text:0000000000000024 .L0 
     /tmp/ccq3perE.s:47     .text:0000000000000034 .L0 
     /tmp/ccq3perE.s:50     .text:000000000000003c .L0 
     /tmp/ccq3perE.s:52     .text:0000000000000040 .L0 
     /tmp/ccq3perE.s:60     .text:0000000000000050 .L0 
     /tmp/ccq3perE.s:63     .text:0000000000000054 .L0 
     /tmp/ccq3perE.s:466    .text:0000000000000244 _ZN3TCB13threadWrapperEv
     /tmp/ccq3perE.s:67     .text:0000000000000064 .L0 
     /tmp/ccq3perE.s:69     .text:0000000000000068 .L0 
     /tmp/ccq3perE.s:73     .text:0000000000000070 .L0 
     /tmp/ccq3perE.s:78     .text:0000000000000074 .L0 
     /tmp/ccq3perE.s:79     .text:0000000000000074 .L0 
  src/../h/riscv.hpp:105    .text:0000000000000074 .L0 
     /tmp/ccq3perE.s:87     .text:000000000000007c .L0 
     /tmp/ccq3perE.s:88     .text:000000000000007c .L0 
     /tmp/ccq3perE.s:92     .text:0000000000000080 .L0 
     /tmp/ccq3perE.s:96     .text:0000000000000084 .L0 
     /tmp/ccq3perE.s:97     .text:0000000000000084 .L0 
  src/../h/riscv.hpp:161    .text:0000000000000084 .L0 
     /tmp/ccq3perE.s:105    .text:000000000000008c .L0 
     /tmp/ccq3perE.s:106    .text:000000000000008c .L0 
     /tmp/ccq3perE.s:110    .text:0000000000000090 .L0 
     /tmp/ccq3perE.s:114    .text:000000000000009c .L0 
     /tmp/ccq3perE.s:117    .text:00000000000000a0 .L0 
     /tmp/ccq3perE.s:126    .text:00000000000000ac .L0 
     /tmp/ccq3perE.s:127    .text:00000000000000ac .L0 
     /tmp/ccq3perE.s:128    .text:00000000000000ac .L0 
     /tmp/ccq3perE.s:133    .text:00000000000000b0 .L0 
     /tmp/ccq3perE.s:136    .text:00000000000000b4 .L0 
     /tmp/ccq3perE.s:138    .text:00000000000000bc .L0 
     /tmp/ccq3perE.s:139    .text:00000000000000bc .L0 
     /tmp/ccq3perE.s:141    .text:00000000000000c0 .L0 
     /tmp/ccq3perE.s:142    .text:00000000000000c0 .L0 
     /tmp/ccq3perE.s:144    .text:00000000000000c4 .L0 
     /tmp/ccq3perE.s:147    .text:00000000000000c8 .L0 
     /tmp/ccq3perE.s:149    .text:00000000000000cc .L0 
     /tmp/ccq3perE.s:152    .text:00000000000000d0 .L0 
     /tmp/ccq3perE.s:156    .text:00000000000000d4 .L0 
     /tmp/ccq3perE.s:160    .text:00000000000000d4 .L0 
     /tmp/ccq3perE.s:167    .text:00000000000000dc .L0 
     /tmp/ccq3perE.s:168    .text:00000000000000dc .L0 
     /tmp/ccq3perE.s:173    .text:00000000000000e8 .L0 
     /tmp/ccq3perE.s:174    .text:00000000000000e8 .L0 
GAS LISTING /tmp/ccq3perE.s 			page 20


     /tmp/ccq3perE.s:180    .text:00000000000000f0 .L0 
     /tmp/ccq3perE.s:187    .text:0000000000000108 .L0 
     /tmp/ccq3perE.s:213    .text:0000000000000108 _ZN3TCB27createThreadWithoutStartingEPFvPvES0_
     /tmp/ccq3perE.s:216    .text:0000000000000108 .L0 
     /tmp/ccq3perE.s:220    .text:0000000000000108 .L0 
     /tmp/ccq3perE.s:221    .text:000000000000010c .L0 
     /tmp/ccq3perE.s:227    .text:0000000000000120 .L0 
     /tmp/ccq3perE.s:228    .text:0000000000000120 .L0 
     /tmp/ccq3perE.s:229    .text:0000000000000120 .L0 
     /tmp/ccq3perE.s:230    .text:0000000000000120 .L0 
     /tmp/ccq3perE.s:231    .text:0000000000000120 .L0 
     /tmp/ccq3perE.s:233    .text:0000000000000124 .L0 
     /tmp/ccq3perE.s:237    .text:000000000000012c .L0 
     /tmp/ccq3perE.s:238    .text:000000000000012c .L0 
     /tmp/ccq3perE.s:249    .text:000000000000013c .L0 
     /tmp/ccq3perE.s:252    .text:0000000000000144 .L0 
     /tmp/ccq3perE.s:254    .text:0000000000000148 .L0 
     /tmp/ccq3perE.s:262    .text:0000000000000158 .L0 
     /tmp/ccq3perE.s:265    .text:000000000000015c .L0 
     /tmp/ccq3perE.s:269    .text:000000000000016c .L0 
     /tmp/ccq3perE.s:271    .text:0000000000000170 .L0 
     /tmp/ccq3perE.s:275    .text:0000000000000178 .L0 
     /tmp/ccq3perE.s:279    .text:000000000000017c .L0 
     /tmp/ccq3perE.s:280    .text:000000000000017c .L0 
  src/../h/riscv.hpp:105    .text:000000000000017c .L0 
     /tmp/ccq3perE.s:288    .text:0000000000000184 .L0 
     /tmp/ccq3perE.s:289    .text:0000000000000184 .L0 
     /tmp/ccq3perE.s:293    .text:0000000000000188 .L0 
     /tmp/ccq3perE.s:297    .text:000000000000018c .L0 
     /tmp/ccq3perE.s:298    .text:000000000000018c .L0 
  src/../h/riscv.hpp:161    .text:000000000000018c .L0 
     /tmp/ccq3perE.s:306    .text:0000000000000194 .L0 
     /tmp/ccq3perE.s:307    .text:0000000000000194 .L0 
     /tmp/ccq3perE.s:311    .text:0000000000000198 .L0 
     /tmp/ccq3perE.s:315    .text:00000000000001a4 .L0 
     /tmp/ccq3perE.s:318    .text:00000000000001a8 .L0 
     /tmp/ccq3perE.s:325    .text:00000000000001b4 .L0 
     /tmp/ccq3perE.s:327    .text:00000000000001bc .L0 
     /tmp/ccq3perE.s:328    .text:00000000000001bc .L0 
     /tmp/ccq3perE.s:330    .text:00000000000001c0 .L0 
     /tmp/ccq3perE.s:331    .text:00000000000001c0 .L0 
     /tmp/ccq3perE.s:333    .text:00000000000001c4 .L0 
     /tmp/ccq3perE.s:335    .text:00000000000001c8 .L0 
     /tmp/ccq3perE.s:337    .text:00000000000001cc .L0 
     /tmp/ccq3perE.s:340    .text:00000000000001d0 .L0 
     /tmp/ccq3perE.s:344    .text:00000000000001d4 .L0 
     /tmp/ccq3perE.s:348    .text:00000000000001d4 .L0 
     /tmp/ccq3perE.s:356    .text:00000000000001e0 .L0 
     /tmp/ccq3perE.s:364    .text:00000000000001f8 .L0 
     /tmp/ccq3perE.s:389    .text:00000000000001f8 _ZN3TCB11startThreadEPS_
     /tmp/ccq3perE.s:392    .text:00000000000001f8 .L0 
     /tmp/ccq3perE.s:394    .text:00000000000001f8 .L0 
     /tmp/ccq3perE.s:395    .text:00000000000001fc .L0 
     /tmp/ccq3perE.s:398    .text:0000000000000204 .L0 
     /tmp/ccq3perE.s:399    .text:0000000000000204 .L0 
     /tmp/ccq3perE.s:401    .text:0000000000000208 .L0 
     /tmp/ccq3perE.s:403    .text:0000000000000208 .L0 
GAS LISTING /tmp/ccq3perE.s 			page 21


     /tmp/ccq3perE.s:404    .text:0000000000000208 .L0 
     /tmp/ccq3perE.s:407    .text:0000000000000210 .L0 
     /tmp/ccq3perE.s:408    .text:0000000000000214 .L0 
     /tmp/ccq3perE.s:410    .text:0000000000000218 .L0 
     /tmp/ccq3perE.s:411    .text:0000000000000218 .L0 
     /tmp/ccq3perE.s:413    .text:000000000000021c .L0 
     /tmp/ccq3perE.s:415    .text:0000000000000220 .L0 
     /tmp/ccq3perE.s:421    .text:0000000000000220 _ZN3TCB5yieldEv
     /tmp/ccq3perE.s:424    .text:0000000000000220 .L0 
     /tmp/ccq3perE.s:425    .text:0000000000000220 .L0 
     /tmp/ccq3perE.s:426    .text:0000000000000224 .L0 
     /tmp/ccq3perE.s:428    .text:0000000000000228 .L0 
     /tmp/ccq3perE.s:430    .text:000000000000022c .L0 
     /tmp/ccq3perE.s:435    .text:000000000000022c .L0 
     /tmp/ccq3perE.s:436    .text:000000000000022c .L0 
     /tmp/ccq3perE.s:437    .text:000000000000022c .L0 
     /tmp/ccq3perE.s:447    .text:0000000000000234 .L0 
         src/tcb.cpp:25     .text:0000000000000234 .L0 
     /tmp/ccq3perE.s:454    .text:0000000000000238 .L0 
     /tmp/ccq3perE.s:455    .text:000000000000023c .L0 
     /tmp/ccq3perE.s:456    .text:000000000000023c .L0 
     /tmp/ccq3perE.s:458    .text:0000000000000240 .L0 
     /tmp/ccq3perE.s:460    .text:0000000000000244 .L0 
     /tmp/ccq3perE.s:469    .text:0000000000000244 .L0 
     /tmp/ccq3perE.s:470    .text:0000000000000244 .L0 
     /tmp/ccq3perE.s:471    .text:0000000000000248 .L0 
     /tmp/ccq3perE.s:475    .text:0000000000000254 .L0 
     /tmp/ccq3perE.s:476    .text:0000000000000254 .L0 
     /tmp/ccq3perE.s:477    .text:0000000000000254 .L0 
     /tmp/ccq3perE.s:479    .text:0000000000000258 .L0 
     /tmp/ccq3perE.s:481    .text:0000000000000258 .L0 
     /tmp/ccq3perE.s:482    .text:0000000000000258 .L0 
     /tmp/ccq3perE.s:485    .text:0000000000000260 .L0 
     /tmp/ccq3perE.s:486    .text:0000000000000260 .L0 
     /tmp/ccq3perE.s:490    .text:0000000000000270 .L0 
     /tmp/ccq3perE.s:494    .text:0000000000000278 .L0 
     /tmp/ccq3perE.s:495    .text:0000000000000278 .L0 
     /tmp/ccq3perE.s:500    .text:000000000000027c .L0 
     /tmp/ccq3perE.s:501    .text:000000000000027c .L0 
     /tmp/ccq3perE.s:507    .text:0000000000000284 .L0 
     /tmp/ccq3perE.s:508    .text:0000000000000284 .L0 
     /tmp/ccq3perE.s:511    .text:000000000000028c .L0 
     /tmp/ccq3perE.s:512    .text:0000000000000290 .L0 
     /tmp/ccq3perE.s:514    .text:0000000000000294 .L0 
     /tmp/ccq3perE.s:515    .text:0000000000000294 .L0 
     /tmp/ccq3perE.s:517    .text:0000000000000298 .L0 
     /tmp/ccq3perE.s:519    .text:000000000000029c .L0 
     /tmp/ccq3perE.s:521    .text:00000000000002a0 .L0 
     /tmp/ccq3perE.s:527    .text:00000000000002a0 _ZN3TCB8dispatchEv
     /tmp/ccq3perE.s:530    .text:00000000000002a0 .L0 
     /tmp/ccq3perE.s:531    .text:00000000000002a0 .L0 
     /tmp/ccq3perE.s:532    .text:00000000000002a4 .L0 
     /tmp/ccq3perE.s:536    .text:00000000000002b0 .L0 
     /tmp/ccq3perE.s:537    .text:00000000000002b0 .L0 
     /tmp/ccq3perE.s:538    .text:00000000000002b0 .L0 
     /tmp/ccq3perE.s:540    .text:00000000000002b4 .L0 
     /tmp/ccq3perE.s:542    .text:00000000000002b4 .L0 
GAS LISTING /tmp/ccq3perE.s 			page 22


     /tmp/ccq3perE.s:543    .text:00000000000002b4 .L0 
     /tmp/ccq3perE.s:548    .text:00000000000002bc .L0 
     /tmp/ccq3perE.s:549    .text:00000000000002bc .L0 
     /tmp/ccq3perE.s:550    .text:00000000000002bc .L0 
     /tmp/ccq3perE.s:555    .text:00000000000002c0 .L0 
     /tmp/ccq3perE.s:560    .text:00000000000002c4 .L0 
     /tmp/ccq3perE.s:561    .text:00000000000002c4 .L0 
     /tmp/ccq3perE.s:566    .text:00000000000002c8 .L0 
     /tmp/ccq3perE.s:569    .text:00000000000002cc .L0 
     /tmp/ccq3perE.s:570    .text:00000000000002cc .L0 
     /tmp/ccq3perE.s:573    .text:00000000000002d4 .L0 
     /tmp/ccq3perE.s:578    .text:00000000000002dc .L0 
     /tmp/ccq3perE.s:579    .text:00000000000002dc .L0 
     /tmp/ccq3perE.s:580    .text:00000000000002dc .L0 
     /tmp/ccq3perE.s:585    .text:00000000000002e0 .L0 
     /tmp/ccq3perE.s:590    .text:00000000000002e4 .L0 
     /tmp/ccq3perE.s:591    .text:00000000000002e4 .L0 
     /tmp/ccq3perE.s:592    .text:00000000000002e4 .L0 
     /tmp/ccq3perE.s:603    .text:00000000000002ec .L0 
     /tmp/ccq3perE.s:604    .text:00000000000002ec .L0 
     /tmp/ccq3perE.s:609    .text:00000000000002fc .L0 
     /tmp/ccq3perE.s:610    .text:0000000000000300 .L0 
     /tmp/ccq3perE.s:611    .text:0000000000000300 .L0 
     /tmp/ccq3perE.s:613    .text:0000000000000304 .L0 
     /tmp/ccq3perE.s:614    .text:0000000000000304 .L0 
     /tmp/ccq3perE.s:616    .text:0000000000000308 .L0 
     /tmp/ccq3perE.s:619    .text:000000000000030c .L0 
     /tmp/ccq3perE.s:623    .text:0000000000000310 .L0 
     /tmp/ccq3perE.s:625    .text:0000000000000310 .L0 
     /tmp/ccq3perE.s:626    .text:0000000000000310 .L0 
     /tmp/ccq3perE.s:635    .text:0000000000000320 .L0 
     /tmp/ccq3perE.s:636    .text:0000000000000320 .L0 
     /tmp/ccq3perE.s:637    .text:0000000000000320 .L0 
     /tmp/ccq3perE.s:644    .text:0000000000000328 .L0 
     /tmp/ccq3perE.s:647    .text:000000000000032c .L0 
     /tmp/ccq3perE.s:661    .bss:0000000000000008 _ZN3TCB16timeSliceCounterE
     /tmp/ccq3perE.s:657    .bss:0000000000000000 _ZN3TCB7runningE
     /tmp/ccq3perE.s:654    .bss:0000000000000000 .LANCHOR0
     /tmp/ccq3perE.s:669    .text:000000000000032c .L0 
     /tmp/ccq3perE.s:64     .text:0000000000000058 .L0 
     /tmp/ccq3perE.s:266    .text:0000000000000160 .L0 
     /tmp/ccq3perE.s:486    .text:0000000000000260 .L0 
     /tmp/ccq3perE.s:543    .text:00000000000002b4 .L0 
     /tmp/ccq3perE.s:573    .text:00000000000002d4 .L0 
     /tmp/ccq3perE.s:58     .text:0000000000000050 .L6
     /tmp/ccq3perE.s:61     .text:0000000000000054 .L2
     /tmp/ccq3perE.s:155    .text:00000000000000d4 .L7
     /tmp/ccq3perE.s:163    .text:00000000000000dc .L10
     /tmp/ccq3perE.s:71     .text:0000000000000070 .L3
     /tmp/ccq3perE.s:134    .text:00000000000000b4 .L1
     /tmp/ccq3perE.s:260    .text:0000000000000158 .L15
     /tmp/ccq3perE.s:263    .text:000000000000015c .L12
     /tmp/ccq3perE.s:343    .text:00000000000001d4 .L16
     /tmp/ccq3perE.s:273    .text:0000000000000178 .L13
     /tmp/ccq3perE.s:567    .text:00000000000002cc .L27
     /tmp/ccq3perE.s:622    .text:0000000000000310 .L31
     /tmp/ccq3perE.s:630    .text:0000000000000320 .L28
GAS LISTING /tmp/ccq3perE.s 			page 23


     /tmp/ccq3perE.s:599    .text:00000000000002ec .L29
     /tmp/ccq3perE.s:37     .text:0000000000000028 .LEHB0
     /tmp/ccq3perE.s:10     .text:0000000000000000 .LFB54
     /tmp/ccq3perE.s:40     .text:0000000000000030 .LEHE0
     /tmp/ccq3perE.s:53     .text:0000000000000044 .LEHB1
     /tmp/ccq3perE.s:56     .text:000000000000004c .LEHE1
     /tmp/ccq3perE.s:176    .text:00000000000000ec .L8
     /tmp/ccq3perE.s:169    .text:00000000000000e0 .LEHB2
     /tmp/ccq3perE.s:186    .text:0000000000000108 .LEHE2
     /tmp/ccq3perE.s:240    .text:0000000000000130 .LEHB3
     /tmp/ccq3perE.s:214    .text:0000000000000108 .LFB55
     /tmp/ccq3perE.s:243    .text:0000000000000138 .LEHE3
     /tmp/ccq3perE.s:255    .text:000000000000014c .LEHB4
     /tmp/ccq3perE.s:258    .text:0000000000000154 .LEHE4
     /tmp/ccq3perE.s:350    .text:00000000000001dc .L17
     /tmp/ccq3perE.s:360    .text:00000000000001f0 .LEHB5
     /tmp/ccq3perE.s:363    .text:00000000000001f8 .LEHE5
     /tmp/ccq3perE.s:2259   .debug_abbrev:0000000000000000 .Ldebug_abbrev0
     /tmp/ccq3perE.s:3925   .debug_str:00000000000007b4 .LASF151
     /tmp/ccq3perE.s:3759   .debug_str:0000000000000333 .LASF152
     /tmp/ccq3perE.s:3727   .debug_str:0000000000000236 .LASF153
     /tmp/ccq3perE.s:5      .text:0000000000000000 .Ltext0
     /tmp/ccq3perE.s:664    .text:000000000000032c .Letext0
     /tmp/ccq3perE.s:3663   .debug_line:0000000000000000 .Ldebug_line0
     /tmp/ccq3perE.s:3761   .debug_str:000000000000033f .LASF0
     /tmp/ccq3perE.s:3785   .debug_str:00000000000003fe .LASF1
     /tmp/ccq3perE.s:3873   .debug_str:0000000000000665 .LASF2
     /tmp/ccq3perE.s:3879   .debug_str:0000000000000695 .LASF4
     /tmp/ccq3perE.s:3771   .debug_str:0000000000000379 .LASF3
     /tmp/ccq3perE.s:3675   .debug_str:0000000000000064 .LASF5
     /tmp/ccq3perE.s:3843   .debug_str:0000000000000587 .LASF6
     /tmp/ccq3perE.s:3779   .debug_str:00000000000003cf .LASF7
     /tmp/ccq3perE.s:3741   .debug_str:0000000000000299 .LASF8
     /tmp/ccq3perE.s:3745   .debug_str:00000000000002c5 .LASF9
     /tmp/ccq3perE.s:3693   .debug_str:00000000000000eb .LASF10
     /tmp/ccq3perE.s:3733   .debug_str:0000000000000276 .LASF11
     /tmp/ccq3perE.s:3703   .debug_str:0000000000000165 .LASF12
     /tmp/ccq3perE.s:3691   .debug_str:00000000000000db .LASF13
     /tmp/ccq3perE.s:3909   .debug_str:0000000000000750 .LASF14
     /tmp/ccq3perE.s:3721   .debug_str:00000000000001e9 .LASF15
     /tmp/ccq3perE.s:3899   .debug_str:000000000000070a .LASF16
     /tmp/ccq3perE.s:3963   .debug_str:00000000000009bb .LASF66
     /tmp/ccq3perE.s:3955   .debug_str:000000000000097f .LASF154
     /tmp/ccq3perE.s:3797   .debug_str:000000000000044d .LASF17
     /tmp/ccq3perE.s:3923   .debug_str:00000000000007a7 .LASF18
     /tmp/ccq3perE.s:3709   .debug_str:000000000000018a .LASF19
     /tmp/ccq3perE.s:3825   .debug_str:0000000000000504 .LASF68
     /tmp/ccq3perE.s:3887   .debug_str:00000000000006bb .LASF20
     /tmp/ccq3perE.s:3725   .debug_str:000000000000021b .LASF22
     /tmp/ccq3perE.s:3763   .debug_str:000000000000034c .LASF21
     /tmp/ccq3perE.s:3975   .debug_str:00000000000009f2 .LASF23
     /tmp/ccq3perE.s:3747   .debug_str:00000000000002d3 .LASF24
     /tmp/ccq3perE.s:3757   .debug_str:000000000000031b .LASF25
     /tmp/ccq3perE.s:3945   .debug_str:0000000000000910 .LASF26
     /tmp/ccq3perE.s:3939   .debug_str:00000000000008d5 .LASF28
     /tmp/ccq3perE.s:3869   .debug_str:0000000000000651 .LASF30
     /tmp/ccq3perE.s:3829   .debug_str:000000000000051e .LASF32
GAS LISTING /tmp/ccq3perE.s 			page 24


     /tmp/ccq3perE.s:3855   .debug_str:00000000000005e8 .LASF27
     /tmp/ccq3perE.s:3857   .debug_str:00000000000005ef .LASF29
     /tmp/ccq3perE.s:3823   .debug_str:00000000000004fd .LASF31
     /tmp/ccq3perE.s:3781   .debug_str:00000000000003e2 .LASF33
     /tmp/ccq3perE.s:3979   .debug_str:0000000000000a16 .LASF34
     /tmp/ccq3perE.s:3931   .debug_str:0000000000000891 .LASF35
     /tmp/ccq3perE.s:3819   .debug_str:00000000000004f0 .LASF36
     /tmp/ccq3perE.s:3827   .debug_str:000000000000050a .LASF37
     /tmp/ccq3perE.s:3793   .debug_str:000000000000043d .LASF38
     /tmp/ccq3perE.s:3859   .debug_str:0000000000000602 .LASF39
     /tmp/ccq3perE.s:3993   .debug_str:0000000000000a97 .LASF40
     /tmp/ccq3perE.s:3767   .debug_str:000000000000035f .LASF41
     /tmp/ccq3perE.s:3905   .debug_str:0000000000000738 .LASF42
     /tmp/ccq3perE.s:3883   .debug_str:00000000000006a1 .LASF43
     /tmp/ccq3perE.s:3885   .debug_str:00000000000006b4 .LASF44
     /tmp/ccq3perE.s:3695   .debug_str:00000000000000fa .LASF45
     /tmp/ccq3perE.s:3717   .debug_str:00000000000001c9 .LASF46
     /tmp/ccq3perE.s:3753   .debug_str:00000000000002fc .LASF47
     /tmp/ccq3perE.s:3765   .debug_str:0000000000000359 .LASF48
     /tmp/ccq3perE.s:3713   .debug_str:00000000000001ae .LASF49
     /tmp/ccq3perE.s:3677   .debug_str:000000000000006b .LASF50
     /tmp/ccq3perE.s:3877   .debug_str:000000000000067d .LASF51
     /tmp/ccq3perE.s:3871   .debug_str:000000000000065a .LASF52
     /tmp/ccq3perE.s:3989   .debug_str:0000000000000a72 .LASF53
     /tmp/ccq3perE.s:3965   .debug_str:00000000000009c1 .LASF54
     /tmp/ccq3perE.s:3981   .debug_str:0000000000000a1e .LASF55
     /tmp/ccq3perE.s:3959   .debug_str:0000000000000993 .LASF56
     /tmp/ccq3perE.s:3809   .debug_str:0000000000000496 .LASF57
     /tmp/ccq3perE.s:3943   .debug_str:0000000000000901 .LASF58
     /tmp/ccq3perE.s:3743   .debug_str:00000000000002a9 .LASF59
     /tmp/ccq3perE.s:3971   .debug_str:00000000000009db .LASF60
     /tmp/ccq3perE.s:3835   .debug_str:000000000000053f .LASF61
     /tmp/ccq3perE.s:3773   .debug_str:000000000000038b .LASF62
     /tmp/ccq3perE.s:3907   .debug_str:000000000000073f .LASF63
     /tmp/ccq3perE.s:3673   .debug_str:0000000000000057 .LASF64
     /tmp/ccq3perE.s:3719   .debug_str:00000000000001cf .LASF65
     /tmp/ccq3perE.s:3847   .debug_str:00000000000005a4 .LASF130
     /tmp/ccq3perE.s:3775   .debug_str:0000000000000390 .LASF132
     /tmp/ccq3perE.s:3739   .debug_str:000000000000028f .LASF67
     /tmp/ccq3perE.s:3895   .debug_str:00000000000006f0 .LASF69
     /tmp/ccq3perE.s:3949   .debug_str:0000000000000934 .LASF70
     /tmp/ccq3perE.s:3837   .debug_str:0000000000000550 .LASF71
     /tmp/ccq3perE.s:3985   .debug_str:0000000000000a43 .LASF155
     /tmp/ccq3perE.s:3751   .debug_str:00000000000002e4 .LASF156
     /tmp/ccq3perE.s:3845   .debug_str:000000000000059a .LASF72
     /tmp/ccq3perE.s:3813   .debug_str:00000000000004be .LASF73
     /tmp/ccq3perE.s:3901   .debug_str:0000000000000720 .LASF75
     /tmp/ccq3perE.s:3729   .debug_str:0000000000000259 .LASF80
     /tmp/ccq3perE.s:3875   .debug_str:0000000000000673 .LASF157
     /tmp/ccq3perE.s:3865   .debug_str:000000000000062a .LASF158
     /tmp/ccq3perE.s:3783   .debug_str:00000000000003f5 .LASF74
     /tmp/ccq3perE.s:3687   .debug_str:00000000000000a9 .LASF76
     /tmp/ccq3perE.s:3795   .debug_str:0000000000000445 .LASF77
     /tmp/ccq3perE.s:3723   .debug_str:00000000000001ff .LASF78
     /tmp/ccq3perE.s:3839   .debug_str:0000000000000573 .LASF79
     /tmp/ccq3perE.s:3961   .debug_str:000000000000099d .LASF81
     /tmp/ccq3perE.s:3891   .debug_str:00000000000006da .LASF82
GAS LISTING /tmp/ccq3perE.s 			page 25


     /tmp/ccq3perE.s:3777   .debug_str:00000000000003b2 .LASF83
     /tmp/ccq3perE.s:3995   .debug_str:0000000000000a9f .LASF84
     /tmp/ccq3perE.s:3987   .debug_str:0000000000000a57 .LASF85
     /tmp/ccq3perE.s:3861   .debug_str:0000000000000616 .LASF86
     /tmp/ccq3perE.s:3669   .debug_str:0000000000000015 .LASF87
     /tmp/ccq3perE.s:3967   .debug_str:00000000000009cb .LASF159
     /tmp/ccq3perE.s:3903   .debug_str:0000000000000733 .LASF88
     /tmp/ccq3perE.s:3821   .debug_str:00000000000004f8 .LASF89
     /tmp/ccq3perE.s:3911   .debug_str:000000000000075c .LASF160
     /tmp/ccq3perE.s:3929   .debug_str:000000000000088c .LASF90
     /tmp/ccq3perE.s:3969   .debug_str:00000000000009d3 .LASF91
     /tmp/ccq3perE.s:3881   .debug_str:000000000000069c .LASF92
     /tmp/ccq3perE.s:3933   .debug_str:00000000000008a5 .LASF93
     /tmp/ccq3perE.s:3913   .debug_str:0000000000000764 .LASF94
     /tmp/ccq3perE.s:3815   .debug_str:00000000000004c3 .LASF95
     /tmp/ccq3perE.s:3683   .debug_str:000000000000008f .LASF96
     /tmp/ccq3perE.s:3941   .debug_str:00000000000008ea .LASF97
     /tmp/ccq3perE.s:3977   .debug_str:0000000000000a0c .LASF98
     /tmp/ccq3perE.s:3689   .debug_str:00000000000000c6 .LASF99
     /tmp/ccq3perE.s:3915   .debug_str:000000000000076f .LASF100
     /tmp/ccq3perE.s:3701   .debug_str:000000000000014f .LASF101
     /tmp/ccq3perE.s:3679   .debug_str:0000000000000076 .LASF102
     /tmp/ccq3perE.s:3853   .debug_str:00000000000005d5 .LASF103
     /tmp/ccq3perE.s:3841   .debug_str:000000000000057f .LASF104
     /tmp/ccq3perE.s:3811   .debug_str:00000000000004ac .LASF105
     /tmp/ccq3perE.s:3893   .debug_str:00000000000006e5 .LASF106
     /tmp/ccq3perE.s:3807   .debug_str:000000000000047f .LASF107
     /tmp/ccq3perE.s:3803   .debug_str:0000000000000464 .LASF108
     /tmp/ccq3perE.s:3817   .debug_str:00000000000004da .LASF109
     /tmp/ccq3perE.s:3707   .debug_str:0000000000000183 .LASF110
     /tmp/ccq3perE.s:3973   .debug_str:00000000000009e0 .LASF111
     /tmp/ccq3perE.s:3789   .debug_str:0000000000000417 .LASF112
     /tmp/ccq3perE.s:3951   .debug_str:0000000000000946 .LASF113
     /tmp/ccq3perE.s:3755   .debug_str:000000000000030e .LASF114
     /tmp/ccq3perE.s:3953   .debug_str:000000000000095f .LASF115
     /tmp/ccq3perE.s:3833   .debug_str:000000000000053a .LASF161
     /tmp/ccq3perE.s:3935   .debug_str:00000000000008b1 .LASF116
     /tmp/ccq3perE.s:3699   .debug_str:0000000000000120 .LASF117
     /tmp/ccq3perE.s:3917   .debug_str:000000000000077a .LASF118
     /tmp/ccq3perE.s:3919   .debug_str:0000000000000786 .LASF119
     /tmp/ccq3perE.s:3787   .debug_str:0000000000000411 .LASF120
     /tmp/ccq3perE.s:3867   .debug_str:0000000000000641 .LASF121
     /tmp/ccq3perE.s:3921   .debug_str:000000000000079f .LASF122
     /tmp/ccq3perE.s:3927   .debug_str:0000000000000878 .LASF162
     /tmp/ccq3perE.s:3665   .debug_str:0000000000000000 .LASF123
     /tmp/ccq3perE.s:3801   .debug_str:000000000000045e .LASF124
     /tmp/ccq3perE.s:3937   .debug_str:00000000000008cd .LASF125
     /tmp/ccq3perE.s:3863   .debug_str:000000000000061f .LASF126
     /tmp/ccq3perE.s:3737   .debug_str:000000000000028a .LASF127
     /tmp/ccq3perE.s:3897   .debug_str:0000000000000701 .LASF128
     /tmp/ccq3perE.s:3849   .debug_str:00000000000005b9 .LASF129
     /tmp/ccq3perE.s:3685   .debug_str:000000000000009b .LASF131
     /tmp/ccq3perE.s:3791   .debug_str:0000000000000424 .LASF133
     /tmp/ccq3perE.s:3705   .debug_str:0000000000000175 .LASF134
     /tmp/ccq3perE.s:3671   .debug_str:000000000000002f .LASF163
     /tmp/ccq3perE.s:3715   .debug_str:00000000000001c0 .LASF135
     /tmp/ccq3perE.s:3697   .debug_str:000000000000010d .LASF136
GAS LISTING /tmp/ccq3perE.s 			page 26


     /tmp/ccq3perE.s:3889   .debug_str:00000000000006c9 .LASF164
     /tmp/ccq3perE.s:3799   .debug_str:0000000000000459 .LASF137
     /tmp/ccq3perE.s:3681   .debug_str:000000000000007e .LASF138
     /tmp/ccq3perE.s:3947   .debug_str:0000000000000919 .LASF139
     /tmp/ccq3perE.s:467    .text:0000000000000244 .LFB59
     /tmp/ccq3perE.s:522    .text:00000000000002a0 .LFE59
     /tmp/ccq3perE.s:497    .text:000000000000027c .LBB59
     /tmp/ccq3perE.s:505    .text:0000000000000284 .LBE59
     /tmp/ccq3perE.s:3317   .debug_loc:0000000000000000 .LLST14
     /tmp/ccq3perE.s:3325   .debug_loc:0000000000000024 .LLST15
     /tmp/ccq3perE.s:483    .text:0000000000000260 .LVL33
     /tmp/ccq3perE.s:509    .text:000000000000028c .LVL37
     /tmp/ccq3perE.s:528    .text:00000000000002a0 .LFB58
     /tmp/ccq3perE.s:648    .text:000000000000032c .LFE58
     /tmp/ccq3perE.s:3332   .debug_loc:0000000000000047 .LLST16
     /tmp/ccq3perE.s:546    .text:00000000000002bc .LBB61
     /tmp/ccq3perE.s:553    .text:00000000000002c0 .LBE61
     /tmp/ccq3perE.s:3343   .debug_loc:000000000000007d .LLST17
     /tmp/ccq3perE.s:557    .text:00000000000002c4 .LBB63
     /tmp/ccq3perE.s:564    .text:00000000000002c8 .LBE63
     /tmp/ccq3perE.s:3350   .debug_loc:00000000000000a0 .LLST18
     /tmp/ccq3perE.s:576    .text:00000000000002dc .LBB65
     /tmp/ccq3perE.s:583    .text:00000000000002e0 .LBE65
     /tmp/ccq3perE.s:3357   .debug_loc:00000000000000c3 .LLST19
     /tmp/ccq3perE.s:588    .text:00000000000002e4 .LBB67
     /tmp/ccq3perE.s:601    .text:00000000000002ec .LBE67
     /tmp/ccq3perE.s:3364   .debug_loc:00000000000000e6 .LLST20
     /tmp/ccq3perE.s:633    .text:0000000000000320 .LBB69
     /tmp/ccq3perE.s:646    .text:000000000000032c .LBE69
     /tmp/ccq3perE.s:571    .text:00000000000002d4 .LVL42
     /tmp/ccq3perE.s:607    .text:00000000000002fc .LVL47
     /tmp/ccq3perE.s:628    .text:000000000000031c .LVL50
     /tmp/ccq3perE.s:422    .text:0000000000000220 .LFB57
     /tmp/ccq3perE.s:461    .text:0000000000000244 .LFE57
     /tmp/ccq3perE.s:433    .text:000000000000022c .LBB57
     /tmp/ccq3perE.s:445    .text:0000000000000234 .LBE57
     /tmp/ccq3perE.s:3373   .debug_loc:000000000000010c .LLST13
     /tmp/ccq3perE.s:390    .text:00000000000001f8 .LFB56
     /tmp/ccq3perE.s:416    .text:0000000000000220 .LFE56
     /tmp/ccq3perE.s:3381   .debug_loc:0000000000000130 .LLST12
     /tmp/ccq3perE.s:405    .text:0000000000000210 .LVL30
     /tmp/ccq3perE.s:365    .text:00000000000001f8 .LFE55
     /tmp/ccq3perE.s:3395   .debug_loc:0000000000000169 .LLST7
     /tmp/ccq3perE.s:3424   .debug_loc:00000000000001de .LLST8
     /tmp/ccq3perE.s:246    .text:000000000000013c .LBB49
     /tmp/ccq3perE.s:3649   .debug_ranges:0000000000000000 .Ldebug_ranges0
     /tmp/ccq3perE.s:3446   .debug_loc:000000000000023d .LLST9
     /tmp/ccq3perE.s:3457   .debug_loc:0000000000000273 .LLST10
     /tmp/ccq3perE.s:3482   .debug_loc:00000000000002d5 .LLST11
     /tmp/ccq3perE.s:276    .text:000000000000017c .LBB51
     /tmp/ccq3perE.s:291    .text:0000000000000188 .LBE51
     /tmp/ccq3perE.s:294    .text:000000000000018c .LBB53
     /tmp/ccq3perE.s:309    .text:0000000000000198 .LBE53
     /tmp/ccq3perE.s:257    .text:0000000000000154 .LVL21
     /tmp/ccq3perE.s:242    .text:0000000000000138 .LVL19
     /tmp/ccq3perE.s:358    .text:00000000000001ec .LVL27
     /tmp/ccq3perE.s:362    .text:00000000000001f8 .LVL28
GAS LISTING /tmp/ccq3perE.s 			page 27


     /tmp/ccq3perE.s:188    .text:0000000000000108 .LFE54
     /tmp/ccq3perE.s:3493   .debug_loc:000000000000030b .LLST0
     /tmp/ccq3perE.s:3533   .debug_loc:00000000000003a9 .LLST1
     /tmp/ccq3perE.s:3555   .debug_loc:0000000000000408 .LLST2
     /tmp/ccq3perE.s:43     .text:0000000000000034 .LBB32
     /tmp/ccq3perE.s:3570   .debug_loc:0000000000000451 .LLST3
     /tmp/ccq3perE.s:3585   .debug_loc:000000000000049a .LLST4
     /tmp/ccq3perE.s:3614   .debug_loc:000000000000050f .LLST5
     /tmp/ccq3perE.s:74     .text:0000000000000074 .LBB34
     /tmp/ccq3perE.s:90     .text:0000000000000080 .LBE34
     /tmp/ccq3perE.s:93     .text:0000000000000084 .LBB36
     /tmp/ccq3perE.s:108    .text:0000000000000090 .LBE36
     /tmp/ccq3perE.s:55     .text:000000000000004c .LVL4
     /tmp/ccq3perE.s:124    .text:00000000000000ac .LBB39
     /tmp/ccq3perE.s:131    .text:00000000000000b0 .LBE39
     /tmp/ccq3perE.s:3629   .debug_loc:0000000000000558 .LLST6
     /tmp/ccq3perE.s:39     .text:0000000000000030 .LVL2
     /tmp/ccq3perE.s:171    .text:00000000000000e8 .LVL12
     /tmp/ccq3perE.s:182    .text:00000000000000fc .LVL15
     /tmp/ccq3perE.s:185    .text:0000000000000108 .LVL16
     /tmp/ccq3perE.s:3735   .debug_str:0000000000000285 .LASF140
     /tmp/ccq3perE.s:3851   .debug_str:00000000000005c1 .LASF165
     /tmp/ccq3perE.s:3749   .debug_str:00000000000002de .LASF141
     /tmp/ccq3perE.s:3957   .debug_str:000000000000098e .LASF142
     /tmp/ccq3perE.s:3769   .debug_str:0000000000000373 .LASF143
     /tmp/ccq3perE.s:3805   .debug_str:000000000000046f .LASF145
     /tmp/ccq3perE.s:3731   .debug_str:0000000000000270 .LASF144
     /tmp/ccq3perE.s:3991   .debug_str:0000000000000a8a .LASF146
     /tmp/ccq3perE.s:3831   .debug_str:0000000000000533 .LASF147
     /tmp/ccq3perE.s:3667   .debug_str:0000000000000005 .LASF148
     /tmp/ccq3perE.s:3983   .debug_str:0000000000000a34 .LASF149
     /tmp/ccq3perE.s:3711   .debug_str:0000000000000196 .LASF150
     /tmp/ccq3perE.s:496    .text:000000000000027c .LVL35
     /tmp/ccq3perE.s:503    .text:0000000000000284 .LVL36
     /tmp/ccq3perE.s:544    .text:00000000000002bc .LVL38
     /tmp/ccq3perE.s:617    .text:0000000000000308 .LVL48
     /tmp/ccq3perE.s:621    .text:0000000000000310 .LVL49
     /tmp/ccq3perE.s:551    .text:00000000000002c0 .LVL39
     /tmp/ccq3perE.s:556    .text:00000000000002c4 .LVL40
     /tmp/ccq3perE.s:562    .text:00000000000002c8 .LVL41
     /tmp/ccq3perE.s:575    .text:00000000000002dc .LVL43
     /tmp/ccq3perE.s:581    .text:00000000000002e0 .LVL44
     /tmp/ccq3perE.s:587    .text:00000000000002e4 .LVL45
     /tmp/ccq3perE.s:597    .text:00000000000002ec .LVL46
     /tmp/ccq3perE.s:432    .text:000000000000022c .LVL31
     /tmp/ccq3perE.s:442    .text:0000000000000234 .LVL32
     /tmp/ccq3perE.s:393    .text:00000000000001f8 .LVL29
     /tmp/ccq3perE.s:219    .text:0000000000000108 .LVL17
     /tmp/ccq3perE.s:239    .text:0000000000000130 .LVL18
     /tmp/ccq3perE.s:316    .text:00000000000001a8 .LVL22
     /tmp/ccq3perE.s:342    .text:00000000000001d4 .LVL25
     /tmp/ccq3perE.s:352    .text:00000000000001e0 .LVL26
     /tmp/ccq3perE.s:338    .text:00000000000001cc .LVL24
     /tmp/ccq3perE.s:245    .text:000000000000013c .LVL20
     /tmp/ccq3perE.s:321    .text:00000000000001b4 .LVL23
     /tmp/ccq3perE.s:16     .text:0000000000000000 .LVL0
     /tmp/ccq3perE.s:36     .text:0000000000000028 .LVL1
GAS LISTING /tmp/ccq3perE.s 			page 28


     /tmp/ccq3perE.s:115    .text:00000000000000a0 .LVL5
     /tmp/ccq3perE.s:154    .text:00000000000000d4 .LVL10
     /tmp/ccq3perE.s:162    .text:00000000000000dc .LVL11
     /tmp/ccq3perE.s:175    .text:00000000000000ec .LVL13
     /tmp/ccq3perE.s:178    .text:00000000000000f0 .LVL14
     /tmp/ccq3perE.s:150    .text:00000000000000cc .LVL9
     /tmp/ccq3perE.s:120    .text:00000000000000ac .LVL6
     /tmp/ccq3perE.s:145    .text:00000000000000c4 .LVL8
     /tmp/ccq3perE.s:42     .text:0000000000000034 .LVL3
     /tmp/ccq3perE.s:129    .text:00000000000000b0 .LVL7
     /tmp/ccq3perE.s:670    .debug_info:0000000000000000 .Ldebug_info0
     /tmp/ccq3perE.s:122    .text:00000000000000ac .LBE32
     /tmp/ccq3perE.s:157    .text:00000000000000d4 .LBB41
     /tmp/ccq3perE.s:165    .text:00000000000000dc .LBE41
     /tmp/ccq3perE.s:323    .text:00000000000001b4 .LBE49
     /tmp/ccq3perE.s:345    .text:00000000000001d4 .LBB56
     /tmp/ccq3perE.s:354    .text:00000000000001e0 .LBE56
     /tmp/ccq3perE.s:191    .gcc_except_table:0000000000000000 .LLSDA54
     /tmp/ccq3perE.s:367    .gcc_except_table:000000000000002b .LLSDA55

UNDEFINED SYMBOLS
_Znwm
_Znam
_ZN9Scheduler3putEP3TCB
_ZdlPv
_Unwind_Resume
__gxx_personality_v0
_ZN5Riscv10popSppSpieEv
_ZN9Scheduler3getEv
_ZN3TCB13contextSwitchEPNS_7ContextES1_
