GAS LISTING /tmp/ccPqp0Em.s 			page 1


   1              		.file	"tcb.cpp"
   2              		.option pic
   3              		.option norelax
   4              		.text
   5              	.Ltext0:
   6              		.align	2
   7              		.globl	_ZN3TCB12createThreadEPFvPvES0_
   9              	_ZN3TCB12createThreadEPFvPvES0_:
  10              	.LFB42:
  11              		.file 1 "src/tcb.cpp"
   1:src/tcb.cpp   **** #include "../h/tcb.hpp"
   2:src/tcb.cpp   **** #include "../h/riscv.hpp"
   3:src/tcb.cpp   **** #include "../h/scheduler.hpp"
   4:src/tcb.cpp   **** #include "../h/syscall_c.hpp"
   5:src/tcb.cpp   **** 
   6:src/tcb.cpp   **** TCB* TCB::running = nullptr;
   7:src/tcb.cpp   **** uint64 TCB::timeSliceCounter = 0;
   8:src/tcb.cpp   **** 
   9:src/tcb.cpp   **** TCB* TCB::createThread(Body body, void* arg) {
  12              		.loc 1 9 46
  13              		.cfi_startproc
  14              		.cfi_personality 0x9b,DW.ref.__gxx_personality_v0
  15              		.cfi_lsda 0x1b,.LLSDA42
  16              	.LVL0:
  17 0000 130101FD 		addi	sp,sp,-48
  18              		.cfi_def_cfa_offset 48
  19 0004 23341102 		sd	ra,40(sp)
  20 0008 23308102 		sd	s0,32(sp)
  21 000c 233C9100 		sd	s1,24(sp)
  22 0010 23382101 		sd	s2,16(sp)
  23 0014 23343101 		sd	s3,8(sp)
  24              		.cfi_offset 1, -8
  25              		.cfi_offset 8, -16
  26              		.cfi_offset 9, -24
  27              		.cfi_offset 18, -32
  28              		.cfi_offset 19, -40
  29 0018 13040103 		addi	s0,sp,48
  30              		.cfi_def_cfa 8, 0
  31 001c 13090500 		mv	s2,a0
  32 0020 93890500 		mv	s3,a1
  10:src/tcb.cpp   ****     TCB* tcb = new TCB(body, arg);
  33              		.loc 1 10 5
  34              		.loc 1 10 33 is_stmt 0
  35 0024 13058003 		li	a0,56
  36              	.LVL1:
  37              	.LEHB0:
  38 0028 97000000 		call	_Znwm@plt
  38      E7800000 
  39              	.LVL2:
  40              	.LEHE0:
  41 0030 93040500 		mv	s1,a0
  42              	.LVL3:
  43              	.LBB9:
  44              	.LBB10:
  45              		.file 2 "src/../h/tcb.hpp"
   1:src/../h/tcb.hpp **** #ifndef TCB_H
   2:src/../h/tcb.hpp **** #define TCB_H
GAS LISTING /tmp/ccPqp0Em.s 			page 2


   3:src/../h/tcb.hpp **** 
   4:src/../h/tcb.hpp **** #include "../lib/hw.h"
   5:src/../h/tcb.hpp **** #include "../h/scheduler.hpp"
   6:src/../h/tcb.hpp **** 
   7:src/../h/tcb.hpp **** class TCB {
   8:src/../h/tcb.hpp **** public:
   9:src/../h/tcb.hpp ****     ~TCB(){ delete[] stack; }
  10:src/../h/tcb.hpp **** 
  11:src/../h/tcb.hpp ****     bool isFinished() const { return finished; }
  12:src/../h/tcb.hpp **** 
  13:src/../h/tcb.hpp ****     void setFinished(bool finished) { this->finished = finished; }
  14:src/../h/tcb.hpp **** 
  15:src/../h/tcb.hpp ****     uint64 getTimeSlice() const { return time_slice; }
  16:src/../h/tcb.hpp **** 
  17:src/../h/tcb.hpp ****     using Body = void (*)(void *);
  18:src/../h/tcb.hpp **** 
  19:src/../h/tcb.hpp ****     static TCB* createThread(Body body, void* arg);
  20:src/../h/tcb.hpp **** 
  21:src/../h/tcb.hpp ****     static TCB* createThreadWithoutStarting(Body body, void* arg);
  22:src/../h/tcb.hpp **** 
  23:src/../h/tcb.hpp ****     static void startThread(TCB* tcb);
  24:src/../h/tcb.hpp **** 
  25:src/../h/tcb.hpp ****     static void yield();
  26:src/../h/tcb.hpp **** 
  27:src/../h/tcb.hpp ****     static TCB* running;
  28:src/../h/tcb.hpp **** 
  29:src/../h/tcb.hpp **** private:
  30:src/../h/tcb.hpp ****     explicit TCB(Body body, void* arg) :
  31:src/../h/tcb.hpp ****         body(body),
  32:src/../h/tcb.hpp ****         arg(arg),
  33:src/../h/tcb.hpp ****         stack(body != nullptr ? new uint64[DEFAULT_STACK_SIZE] : nullptr),
  34:src/../h/tcb.hpp ****         context({
  35:src/../h/tcb.hpp ****             (uint64) &threadWrapper,
  36:src/../h/tcb.hpp ****             stack != nullptr ? (uint64)&stack[DEFAULT_STACK_SIZE] : 0
  37:src/../h/tcb.hpp ****         }),
  38:src/../h/tcb.hpp ****         time_slice(DEFAULT_TIME_SLICE),
  39:src/../h/tcb.hpp ****         finished(false) {}
  46              		.loc 2 39 23
  47 0034 23302501 		sd	s2,0(a0)
  48 0038 23343501 		sd	s3,8(a0)
  33:src/../h/tcb.hpp ****         context({
  49              		.loc 2 33 31
  50 003c 630A0900 		beqz	s2,.L7
  33:src/../h/tcb.hpp ****         context({
  51              		.loc 2 33 62
  52 0040 37850000 		li	a0,32768
  53              	.LEHB1:
  54 0044 97000000 		call	_Znam@plt
  54      E7800000 
  55              	.LVL4:
  56              	.LEHE1:
  57 004c 6F008000 		j	.L2
  58              	.L7:
  33:src/../h/tcb.hpp ****         context({
  59              		.loc 2 33 31
  60 0050 13050000 		li	a0,0
  61              	.L2:
GAS LISTING /tmp/ccPqp0Em.s 			page 3


  62              		.loc 2 39 23
  63 0054 23B8A400 		sd	a0,16(s1)
  64 0058 97070000 		lla	a5,_ZN3TCB13threadWrapperEv
  64      93870700 
  65 0060 23BCF400 		sd	a5,24(s1)
  36:src/../h/tcb.hpp ****         }),
  66              		.loc 2 36 30
  67 0064 63060504 		beqz	a0,.L8
  36:src/../h/tcb.hpp ****         }),
  68              		.loc 2 36 40
  69 0068 B7870000 		li	a5,32768
  70 006c B307F500 		add	a5,a0,a5
  71              	.L3:
  72              		.loc 2 39 23
  73 0070 23B0F402 		sd	a5,32(s1)
  74 0074 93072000 		li	a5,2
  75 0078 23B4F402 		sd	a5,40(s1)
  76 007c 23880402 		sb	zero,48(s1)
  77              	.LVL5:
  78              	.LBE10:
  79              	.LBE9:
  11:src/tcb.cpp   ****     if(body != nullptr) Scheduler::put(tcb);
  80              		.loc 1 11 5 is_stmt 1
  81 0080 630C0902 		beqz	s2,.L4
  82              		.loc 1 11 25 discriminator 1
  83              		.loc 1 11 39 is_stmt 0 discriminator 1
  84 0084 13850400 		mv	a0,s1
  85              	.LEHB2:
  86 0088 97000000 		call	_ZN9Scheduler3putEP3TCB@plt
  86      E7800000 
  87              	.LVL6:
  88              	.L1:
  12:src/tcb.cpp   ****     else TCB::running = tcb;
  13:src/tcb.cpp   ****     return tcb;
  14:src/tcb.cpp   **** }
  89              		.loc 1 14 1
  90 0090 13850400 		mv	a0,s1
  91 0094 83308102 		ld	ra,40(sp)
  92              		.cfi_remember_state
  93              		.cfi_restore 1
  94 0098 03340102 		ld	s0,32(sp)
  95              		.cfi_restore 8
  96              		.cfi_def_cfa 2, 48
  97 009c 83348101 		ld	s1,24(sp)
  98              		.cfi_restore 9
  99              	.LVL7:
 100 00a0 03390101 		ld	s2,16(sp)
 101              		.cfi_restore 18
 102              	.LVL8:
 103 00a4 83398100 		ld	s3,8(sp)
 104              		.cfi_restore 19
 105              	.LVL9:
 106 00a8 13010103 		addi	sp,sp,48
 107              		.cfi_def_cfa_offset 0
 108 00ac 67800000 		jr	ra
 109              	.LVL10:
 110              	.L8:
GAS LISTING /tmp/ccPqp0Em.s 			page 4


 111              		.cfi_restore_state
 112              	.LBB12:
 113              	.LBB11:
  36:src/../h/tcb.hpp ****         }),
 114              		.loc 2 36 30
 115 00b0 93070000 		li	a5,0
 116 00b4 6FF0DFFB 		j	.L3
 117              	.LVL11:
 118              	.L4:
 119              	.LBE11:
 120              	.LBE12:
  12:src/tcb.cpp   ****     else TCB::running = tcb;
 121              		.loc 1 12 10 is_stmt 1
  12:src/tcb.cpp   ****     else TCB::running = tcb;
 122              		.loc 1 12 23 is_stmt 0
 123 00b8 97070000 		sd	s1,.LANCHOR0,a5
 123      23B09700 
  13:src/tcb.cpp   **** }
 124              		.loc 1 13 5 is_stmt 1
  13:src/tcb.cpp   **** }
 125              		.loc 1 13 12 is_stmt 0
 126 00c0 6FF01FFD 		j	.L1
 127              	.LVL12:
 128              	.L9:
 129 00c4 13090500 		mv	s2,a0
 130              	.LVL13:
  10:src/tcb.cpp   ****     if(body != nullptr) Scheduler::put(tcb);
 131              		.loc 1 10 33
 132 00c8 13850400 		mv	a0,s1
 133 00cc 97000000 		call	_ZdlPv@plt
 133      E7800000 
 134              	.LVL14:
 135 00d4 13050900 		mv	a0,s2
 136 00d8 97000000 		call	_Unwind_Resume@plt
 136      E7800000 
 137              	.LVL15:
 138              	.LEHE2:
 139              		.cfi_endproc
 140              	.LFE42:
 141              		.globl	__gxx_personality_v0
 142              		.section	.gcc_except_table,"a",@progbits
 143              	.LLSDA42:
 144 0000 FF       		.byte	0xff
 145 0001 FF       		.byte	0xff
 146 0002 03       		.byte	0x3
 147 0003 27       		.byte	0x27
 148 0004 00000000 		.4byte	.LEHB0-.LFB42
 149 0008 00000000 		.4byte	.LEHE0-.LEHB0
 150 000c 00000000 		.4byte	0
 151 0010 00       		.byte	0
 152 0011 00000000 		.4byte	.LEHB1-.LFB42
 153 0015 00000000 		.4byte	.LEHE1-.LEHB1
 154 0019 00000000 		.4byte	.L9-.LFB42
 155 001d 00       		.byte	0
 156 001e 00000000 		.4byte	.LEHB2-.LFB42
 157 0022 00000000 		.4byte	.LEHE2-.LEHB2
 158 0026 00000000 		.4byte	0
GAS LISTING /tmp/ccPqp0Em.s 			page 5


 159 002a 00       		.byte	0
 160              		.text
 162              		.align	2
 163              		.globl	_ZN3TCB27createThreadWithoutStartingEPFvPvES0_
 165              	_ZN3TCB27createThreadWithoutStartingEPFvPvES0_:
 166              	.LFB43:
  15:src/tcb.cpp   **** 
  16:src/tcb.cpp   **** TCB* TCB::createThreadWithoutStarting(Body body, void* arg) {
 167              		.loc 1 16 61 is_stmt 1
 168              		.cfi_startproc
 169              		.cfi_personality 0x9b,DW.ref.__gxx_personality_v0
 170              		.cfi_lsda 0x1b,.LLSDA43
 171              	.LVL16:
 172 00e0 130101FD 		addi	sp,sp,-48
 173              		.cfi_def_cfa_offset 48
 174 00e4 23341102 		sd	ra,40(sp)
 175 00e8 23308102 		sd	s0,32(sp)
 176 00ec 233C9100 		sd	s1,24(sp)
 177 00f0 23382101 		sd	s2,16(sp)
 178 00f4 23343101 		sd	s3,8(sp)
 179              		.cfi_offset 1, -8
 180              		.cfi_offset 8, -16
 181              		.cfi_offset 9, -24
 182              		.cfi_offset 18, -32
 183              		.cfi_offset 19, -40
 184 00f8 13040103 		addi	s0,sp,48
 185              		.cfi_def_cfa 8, 0
 186 00fc 13090500 		mv	s2,a0
 187 0100 93890500 		mv	s3,a1
  17:src/tcb.cpp   ****     return new TCB(body, arg);
 188              		.loc 1 17 5
 189              		.loc 1 17 29 is_stmt 0
 190 0104 13058003 		li	a0,56
 191              	.LVL17:
 192              	.LEHB3:
 193 0108 97000000 		call	_Znwm@plt
 193      E7800000 
 194              	.LVL18:
 195              	.LEHE3:
 196 0110 93040500 		mv	s1,a0
 197              	.LVL19:
 198              	.LBB16:
 199              	.LBB17:
 200              		.loc 2 39 23
 201 0114 23302501 		sd	s2,0(a0)
 202 0118 23343501 		sd	s3,8(a0)
  33:src/../h/tcb.hpp ****         context({
 203              		.loc 2 33 31
 204 011c 630A0900 		beqz	s2,.L15
  33:src/../h/tcb.hpp ****         context({
 205              		.loc 2 33 62
 206 0120 37850000 		li	a0,32768
 207              	.LEHB4:
 208 0124 97000000 		call	_Znam@plt
 208      E7800000 
 209              	.LVL20:
 210              	.LEHE4:
GAS LISTING /tmp/ccPqp0Em.s 			page 6


 211 012c 6F008000 		j	.L12
 212              	.L15:
  33:src/../h/tcb.hpp ****         context({
 213              		.loc 2 33 31
 214 0130 13050000 		li	a0,0
 215              	.L12:
 216              		.loc 2 39 23
 217 0134 23B8A400 		sd	a0,16(s1)
 218 0138 97070000 		lla	a5,_ZN3TCB13threadWrapperEv
 218      93870700 
 219 0140 23BCF400 		sd	a5,24(s1)
  36:src/../h/tcb.hpp ****         }),
 220              		.loc 2 36 30
 221 0144 630E0502 		beqz	a0,.L16
  36:src/../h/tcb.hpp ****         }),
 222              		.loc 2 36 40
 223 0148 B7870000 		li	a5,32768
 224 014c 3305F500 		add	a0,a0,a5
 225              	.L13:
 226              		.loc 2 39 23
 227 0150 23B0A402 		sd	a0,32(s1)
 228 0154 93072000 		li	a5,2
 229 0158 23B4F402 		sd	a5,40(s1)
 230 015c 23880402 		sb	zero,48(s1)
 231              	.LVL21:
 232              	.LBE17:
 233              	.LBE16:
  18:src/tcb.cpp   **** }
 234              		.loc 1 18 1
 235 0160 13850400 		mv	a0,s1
 236 0164 83308102 		ld	ra,40(sp)
 237              		.cfi_remember_state
 238              		.cfi_restore 1
 239 0168 03340102 		ld	s0,32(sp)
 240              		.cfi_restore 8
 241              		.cfi_def_cfa 2, 48
 242 016c 83348101 		ld	s1,24(sp)
 243              		.cfi_restore 9
 244 0170 03390101 		ld	s2,16(sp)
 245              		.cfi_restore 18
 246              	.LVL22:
 247 0174 83398100 		ld	s3,8(sp)
 248              		.cfi_restore 19
 249              	.LVL23:
 250 0178 13010103 		addi	sp,sp,48
 251              		.cfi_def_cfa_offset 0
 252 017c 67800000 		jr	ra
 253              	.LVL24:
 254              	.L16:
 255              		.cfi_restore_state
 256              	.LBB19:
 257              	.LBB18:
  36:src/../h/tcb.hpp ****         }),
 258              		.loc 2 36 30
 259 0180 13050000 		li	a0,0
 260 0184 6FF0DFFC 		j	.L13
 261              	.L17:
GAS LISTING /tmp/ccPqp0Em.s 			page 7


 262 0188 13090500 		mv	s2,a0
 263              	.LVL25:
 264              	.LBE18:
 265              	.LBE19:
  17:src/tcb.cpp   **** }
 266              		.loc 1 17 29
 267 018c 13850400 		mv	a0,s1
 268 0190 97000000 		call	_ZdlPv@plt
 268      E7800000 
 269              	.LVL26:
 270 0198 13050900 		mv	a0,s2
 271              	.LEHB5:
 272 019c 97000000 		call	_Unwind_Resume@plt
 272      E7800000 
 273              	.LVL27:
 274              	.LEHE5:
 275              		.cfi_endproc
 276              	.LFE43:
 277              		.section	.gcc_except_table
 278              	.LLSDA43:
 279 002b FF       		.byte	0xff
 280 002c FF       		.byte	0xff
 281 002d 03       		.byte	0x3
 282 002e 27       		.byte	0x27
 283 002f 00000000 		.4byte	.LEHB3-.LFB43
 284 0033 00000000 		.4byte	.LEHE3-.LEHB3
 285 0037 00000000 		.4byte	0
 286 003b 00       		.byte	0
 287 003c 00000000 		.4byte	.LEHB4-.LFB43
 288 0040 00000000 		.4byte	.LEHE4-.LEHB4
 289 0044 00000000 		.4byte	.L17-.LFB43
 290 0048 00       		.byte	0
 291 0049 00000000 		.4byte	.LEHB5-.LFB43
 292 004d 00000000 		.4byte	.LEHE5-.LEHB5
 293 0051 00000000 		.4byte	0
 294 0055 00       		.byte	0
 295              		.text
 297              		.align	2
 298              		.globl	_ZN3TCB11startThreadEPS_
 300              	_ZN3TCB11startThreadEPS_:
 301              	.LFB44:
  19:src/tcb.cpp   **** 
  20:src/tcb.cpp   **** void TCB::startThread(TCB* tcb) {
 302              		.loc 1 20 33 is_stmt 1
 303              		.cfi_startproc
 304              	.LVL28:
 305 01a4 130101FF 		addi	sp,sp,-16
 306              		.cfi_def_cfa_offset 16
 307 01a8 23341100 		sd	ra,8(sp)
 308 01ac 23308100 		sd	s0,0(sp)
 309              		.cfi_offset 1, -8
 310              		.cfi_offset 8, -16
 311 01b0 13040101 		addi	s0,sp,16
 312              		.cfi_def_cfa 8, 0
  21:src/tcb.cpp   ****     Scheduler::put(tcb);
 313              		.loc 1 21 5
 314              		.loc 1 21 19 is_stmt 0
GAS LISTING /tmp/ccPqp0Em.s 			page 8


 315 01b4 97000000 		call	_ZN9Scheduler3putEP3TCB@plt
 315      E7800000 
 316              	.LVL29:
  22:src/tcb.cpp   **** }
 317              		.loc 1 22 1
 318 01bc 83308100 		ld	ra,8(sp)
 319              		.cfi_restore 1
 320 01c0 03340100 		ld	s0,0(sp)
 321              		.cfi_restore 8
 322              		.cfi_def_cfa 2, 16
 323 01c4 13010101 		addi	sp,sp,16
 324              		.cfi_def_cfa_offset 0
 325 01c8 67800000 		jr	ra
 326              		.cfi_endproc
 327              	.LFE44:
 329              		.align	2
 330              		.globl	_ZN3TCB5yieldEv
 332              	_ZN3TCB5yieldEv:
 333              	.LFB45:
  23:src/tcb.cpp   **** 
  24:src/tcb.cpp   **** void TCB::yield() {
 334              		.loc 1 24 19 is_stmt 1
 335              		.cfi_startproc
 336 01cc 130101FF 		addi	sp,sp,-16
 337              		.cfi_def_cfa_offset 16
 338 01d0 23348100 		sd	s0,8(sp)
 339              		.cfi_offset 8, -8
 340 01d4 13040101 		addi	s0,sp,16
 341              		.cfi_def_cfa 8, 0
  25:src/tcb.cpp   ****     Riscv::w_a0(0);
 342              		.loc 1 25 5
 343              	.LVL30:
 344              	.LBB20:
 345              	.LBB21:
 346              		.file 3 "src/../h/riscv.hpp"
   1:src/../h/riscv.hpp **** #ifndef RISCV_H
   2:src/../h/riscv.hpp **** #define RISCV_H
   3:src/../h/riscv.hpp **** 
   4:src/../h/riscv.hpp **** #include "../lib/hw.h"
   5:src/../h/riscv.hpp **** 
   6:src/../h/riscv.hpp **** class Riscv {
   7:src/../h/riscv.hpp **** public:
   8:src/../h/riscv.hpp ****     // Stavljanje/skidanje registara x3,...,x31 na stek/sa steka
   9:src/../h/riscv.hpp ****     static void pushRegisters();
  10:src/../h/riscv.hpp ****     static void popRegisters();
  11:src/../h/riscv.hpp **** 
  12:src/../h/riscv.hpp ****     // Uzimanje vrednosti sstatus.spp i sstatus.spie bita (nije inline funkcija)
  13:src/../h/riscv.hpp ****     static void popSppSpie();
  14:src/../h/riscv.hpp **** 
  15:src/../h/riscv.hpp ****     // Citanje vrednosti registra scause
  16:src/../h/riscv.hpp ****     static uint64 r_scause();
  17:src/../h/riscv.hpp **** 
  18:src/../h/riscv.hpp ****     // Upisivanje u registar scause
  19:src/../h/riscv.hpp ****     static void w_scause(uint64 scause);
  20:src/../h/riscv.hpp **** 
  21:src/../h/riscv.hpp ****     // Citanje registra sepc
  22:src/../h/riscv.hpp ****     static uint64 r_sepc();
GAS LISTING /tmp/ccPqp0Em.s 			page 9


  23:src/../h/riscv.hpp **** 
  24:src/../h/riscv.hpp ****     // Upisivanje u registar sepc
  25:src/../h/riscv.hpp ****     static void w_sepc(uint64 sepc);
  26:src/../h/riscv.hpp **** 
  27:src/../h/riscv.hpp ****     // Citanje registra stvec
  28:src/../h/riscv.hpp ****     static uint64 r_stvec();
  29:src/../h/riscv.hpp **** 
  30:src/../h/riscv.hpp ****     // Upisivanje u registar stvec
  31:src/../h/riscv.hpp ****     static void w_stvec(uint64 stvec);
  32:src/../h/riscv.hpp **** 
  33:src/../h/riscv.hpp ****     // Citanje registra stval
  34:src/../h/riscv.hpp ****     static uint64 r_stval();
  35:src/../h/riscv.hpp **** 
  36:src/../h/riscv.hpp ****     // Upisivanje u registar stval
  37:src/../h/riscv.hpp ****     static void w_stval(uint64 stval);
  38:src/../h/riscv.hpp **** 
  39:src/../h/riscv.hpp ****     enum BitMaskSip {
  40:src/../h/riscv.hpp ****         SIP_SSIP = (1 << 1),
  41:src/../h/riscv.hpp ****         SIP_STIP = (1 << 5),
  42:src/../h/riscv.hpp ****         SIP_SEIP = (1 << 9)
  43:src/../h/riscv.hpp ****     };
  44:src/../h/riscv.hpp **** 
  45:src/../h/riscv.hpp ****     // Postavi masku za registar sip
  46:src/../h/riscv.hpp ****     static void ms_sip(uint64 mask);
  47:src/../h/riscv.hpp **** 
  48:src/../h/riscv.hpp ****     // Obrisi masku iz registra sip
  49:src/../h/riscv.hpp ****     static void mc_sip(uint64 mask);
  50:src/../h/riscv.hpp **** 
  51:src/../h/riscv.hpp ****     // Citanje registra sip
  52:src/../h/riscv.hpp ****     static uint64 r_sip();
  53:src/../h/riscv.hpp **** 
  54:src/../h/riscv.hpp ****     // Upisivanje u registar sip
  55:src/../h/riscv.hpp ****     static void w_sip(uint64 sip);
  56:src/../h/riscv.hpp **** 
  57:src/../h/riscv.hpp ****     enum BitMaskSstatus {
  58:src/../h/riscv.hpp ****         SSTATUS_SIE = (1 << 1),
  59:src/../h/riscv.hpp ****         SSTATUS_SPIE = (1 << 5),
  60:src/../h/riscv.hpp ****         SSTATUS_SPP = (1 << 8),
  61:src/../h/riscv.hpp ****     };
  62:src/../h/riscv.hpp **** 
  63:src/../h/riscv.hpp ****     // Postavi masku za registar sstatus
  64:src/../h/riscv.hpp ****     static void ms_sstatus(uint64 mask);
  65:src/../h/riscv.hpp **** 
  66:src/../h/riscv.hpp ****     // Obrisi masku iz registra sstatus
  67:src/../h/riscv.hpp ****     static void mc_sstatus(uint64 mask);
  68:src/../h/riscv.hpp **** 
  69:src/../h/riscv.hpp ****     // Citanje registra sstatus
  70:src/../h/riscv.hpp ****     static uint64 r_sstatus();
  71:src/../h/riscv.hpp **** 
  72:src/../h/riscv.hpp ****     // Upisivanje u registar sstatus
  73:src/../h/riscv.hpp ****     static void w_sstatus(uint64 sstatus);
  74:src/../h/riscv.hpp **** 
  75:src/../h/riscv.hpp ****     // Supervizorska prekidna rutina
  76:src/../h/riscv.hpp ****     static void supervisorTrap();
  77:src/../h/riscv.hpp **** 
  78:src/../h/riscv.hpp ****     // Citanje registra a0
  79:src/../h/riscv.hpp ****     static uint64 r_a0();
GAS LISTING /tmp/ccPqp0Em.s 			page 10


  80:src/../h/riscv.hpp **** 
  81:src/../h/riscv.hpp ****     // Upisivanje u registar a0
  82:src/../h/riscv.hpp ****     static void w_a0(uint64 value);
  83:src/../h/riscv.hpp **** 
  84:src/../h/riscv.hpp **** private:
  85:src/../h/riscv.hpp ****     // Rukovalac prekidnom rutinom
  86:src/../h/riscv.hpp ****     static void handleSupervisorTrap();
  87:src/../h/riscv.hpp **** };
  88:src/../h/riscv.hpp **** 
  89:src/../h/riscv.hpp **** inline uint64 Riscv::r_scause() {
  90:src/../h/riscv.hpp ****     uint64 volatile scause;
  91:src/../h/riscv.hpp ****     __asm__ volatile("csrr %0, scause" : "=r"(scause));
  92:src/../h/riscv.hpp ****     return scause;
  93:src/../h/riscv.hpp **** }
  94:src/../h/riscv.hpp **** 
  95:src/../h/riscv.hpp **** inline void Riscv::w_scause(uint64 scause) {
  96:src/../h/riscv.hpp ****     __asm__ volatile("csrw scause, %0" : : "r"(scause));
  97:src/../h/riscv.hpp **** }
  98:src/../h/riscv.hpp **** 
  99:src/../h/riscv.hpp **** inline uint64 Riscv::r_sepc() {
 100:src/../h/riscv.hpp ****     uint64 volatile sepc;
 101:src/../h/riscv.hpp ****     __asm__ volatile("csrr %0, sepc" : "=r"(sepc));
 102:src/../h/riscv.hpp ****     return sepc;
 103:src/../h/riscv.hpp **** }
 104:src/../h/riscv.hpp **** 
 105:src/../h/riscv.hpp **** inline void Riscv::w_sepc(uint64 sepc) {
 106:src/../h/riscv.hpp ****     __asm__ volatile("csrw sepc, %0" : : "r"(sepc));
 107:src/../h/riscv.hpp **** }
 108:src/../h/riscv.hpp **** 
 109:src/../h/riscv.hpp **** inline uint64 Riscv::r_stvec() {
 110:src/../h/riscv.hpp ****     uint64 volatile stvec;
 111:src/../h/riscv.hpp ****     __asm__ volatile("csrr %0, stvec" : "=r"(stvec));
 112:src/../h/riscv.hpp ****     return stvec;
 113:src/../h/riscv.hpp **** }
 114:src/../h/riscv.hpp **** 
 115:src/../h/riscv.hpp **** inline void Riscv::w_stvec(uint64 stvec) {
 116:src/../h/riscv.hpp ****     __asm__ volatile("csrw stvec, %0" : : "r"(stvec));
 117:src/../h/riscv.hpp **** }
 118:src/../h/riscv.hpp **** 
 119:src/../h/riscv.hpp **** inline uint64 Riscv::r_stval() {
 120:src/../h/riscv.hpp ****     uint64 volatile stval;
 121:src/../h/riscv.hpp ****     __asm__ volatile("csrr %0, stval" : "=r"(stval));
 122:src/../h/riscv.hpp ****     return stval;
 123:src/../h/riscv.hpp **** }
 124:src/../h/riscv.hpp **** 
 125:src/../h/riscv.hpp **** inline void Riscv::w_stval(uint64 stval) {
 126:src/../h/riscv.hpp ****     __asm__ volatile("csrw stval, %0" : : "r"(stval));
 127:src/../h/riscv.hpp **** }
 128:src/../h/riscv.hpp **** 
 129:src/../h/riscv.hpp **** inline void Riscv::ms_sip(uint64 mask) {
 130:src/../h/riscv.hpp ****     __asm__ volatile("csrs sip, %0" : : "r"(mask));
 131:src/../h/riscv.hpp **** }
 132:src/../h/riscv.hpp **** 
 133:src/../h/riscv.hpp **** inline void Riscv::mc_sip(uint64 mask) {
 134:src/../h/riscv.hpp ****     __asm__ volatile("csrc sip, %0" : : "r"(mask));
 135:src/../h/riscv.hpp **** }
 136:src/../h/riscv.hpp **** 
GAS LISTING /tmp/ccPqp0Em.s 			page 11


 137:src/../h/riscv.hpp **** inline uint64 Riscv::r_sip() {
 138:src/../h/riscv.hpp ****     uint64 volatile sip;
 139:src/../h/riscv.hpp ****     __asm__ volatile("csrr %0, sip" : "=r"(sip));
 140:src/../h/riscv.hpp ****     return sip;
 141:src/../h/riscv.hpp **** }
 142:src/../h/riscv.hpp **** 
 143:src/../h/riscv.hpp **** inline void Riscv::w_sip(uint64 sip) {
 144:src/../h/riscv.hpp ****     __asm__ volatile("csrc sip, %0" : : "r"(sip));
 145:src/../h/riscv.hpp **** }
 146:src/../h/riscv.hpp **** 
 147:src/../h/riscv.hpp **** inline void Riscv::ms_sstatus(uint64 mask) {
 148:src/../h/riscv.hpp ****     __asm__ volatile("csrs sstatus, %0" : : "r"(mask));
 149:src/../h/riscv.hpp **** }
 150:src/../h/riscv.hpp **** 
 151:src/../h/riscv.hpp **** inline void Riscv::mc_sstatus(uint64 mask) {
 152:src/../h/riscv.hpp ****     __asm__ volatile("csrc sstatus, %0" : : "r"(mask));
 153:src/../h/riscv.hpp **** }
 154:src/../h/riscv.hpp **** 
 155:src/../h/riscv.hpp **** inline uint64 Riscv::r_sstatus() {
 156:src/../h/riscv.hpp ****     uint64 volatile sstatus;
 157:src/../h/riscv.hpp ****     __asm__ volatile("csrr %0, sstatus" : "=r"(sstatus));
 158:src/../h/riscv.hpp ****     return sstatus;
 159:src/../h/riscv.hpp **** }
 160:src/../h/riscv.hpp **** 
 161:src/../h/riscv.hpp **** inline void Riscv::w_sstatus(uint64 sstatus) {
 162:src/../h/riscv.hpp ****     __asm__ volatile("csrc sstatus, %0" : : "r"(sstatus));
 163:src/../h/riscv.hpp **** }
 164:src/../h/riscv.hpp **** 
 165:src/../h/riscv.hpp **** inline uint64 Riscv::r_a0() {
 166:src/../h/riscv.hpp ****     uint64 volatile a0;
 167:src/../h/riscv.hpp ****     __asm__ volatile("mv %0, a0" : "=r"(a0));
 168:src/../h/riscv.hpp ****     return a0;
 169:src/../h/riscv.hpp **** }
 170:src/../h/riscv.hpp **** 
 171:src/../h/riscv.hpp **** inline void Riscv::w_a0(uint64 value) {
 172:src/../h/riscv.hpp ****     __asm__ volatile("mv a0, %0" : : "r"(value));
 347              		.loc 3 172 5
 348              		.loc 3 172 49 is_stmt 0
 349 01d8 93070000 		li	a5,0
 350              	#APP
 351              	# 172 "src/../h/riscv.hpp" 1
 173              	}
 352              		mv a0, a5
 353              	# 0 "" 2
 354              	.LVL31:
 355              	#NO_APP
 356              	.LBE21:
 357              	.LBE20:
  26:src/tcb.cpp   ****     __asm__ volatile("ecall");
 358              		.loc 1 26 5 is_stmt 1
 359              		.loc 1 26 30 is_stmt 0
 360              	#APP
 361              	# 26 "src/tcb.cpp" 1
  27              	}
 362              		ecall
 363              	# 0 "" 2
 364              		.loc 1 27 1
GAS LISTING /tmp/ccPqp0Em.s 			page 12


 365              	#NO_APP
 366 01e4 03348100 		ld	s0,8(sp)
 367              		.cfi_restore 8
 368              		.cfi_def_cfa 2, 16
 369 01e8 13010101 		addi	sp,sp,16
 370              		.cfi_def_cfa_offset 0
 371 01ec 67800000 		jr	ra
 372              		.cfi_endproc
 373              	.LFE45:
 375              		.align	2
 376              		.globl	_ZN3TCB13threadWrapperEv
 378              	_ZN3TCB13threadWrapperEv:
 379              	.LFB47:
  28:src/tcb.cpp   **** 
  29:src/tcb.cpp   **** void TCB::dispatch() {
  30:src/tcb.cpp   ****     TCB* old = running;
  31:src/tcb.cpp   ****     if(!old->isFinished()){ Scheduler::put(old); }
  32:src/tcb.cpp   ****     running = Scheduler::get();
  33:src/tcb.cpp   **** 
  34:src/tcb.cpp   ****     TCB::contextSwitch(&old->context, &running->context);
  35:src/tcb.cpp   **** }
  36:src/tcb.cpp   **** 
  37:src/tcb.cpp   **** void TCB::threadWrapper() {
 380              		.loc 1 37 27 is_stmt 1
 381              		.cfi_startproc
 382 01f0 130101FF 		addi	sp,sp,-16
 383              		.cfi_def_cfa_offset 16
 384 01f4 23341100 		sd	ra,8(sp)
 385 01f8 23308100 		sd	s0,0(sp)
 386              		.cfi_offset 1, -8
 387              		.cfi_offset 8, -16
 388 01fc 13040101 		addi	s0,sp,16
 389              		.cfi_def_cfa 8, 0
  38:src/tcb.cpp   ****     Riscv::popSppSpie();
 390              		.loc 1 38 5
 391              		.loc 1 38 22 is_stmt 0
 392 0200 97000000 		call	_ZN5Riscv10popSppSpieEv@plt
 392      E7800000 
 393              	.LVL32:
  39:src/tcb.cpp   ****     running->body(running->arg);
 394              		.loc 1 39 5 is_stmt 1
 395              		.loc 1 39 14 is_stmt 0
 396 0208 97070000 		ld	a5,.LANCHOR0
 396      83B70700 
 397 0210 03B70700 		ld	a4,0(a5)
 398              		.loc 1 39 18
 399 0214 03B58700 		ld	a0,8(a5)
 400 0218 E7000700 		jalr	a4
 401              	.LVL33:
  40:src/tcb.cpp   ****     thread_exit();
 402              		.loc 1 40 5 is_stmt 1
 403              		.loc 1 40 16 is_stmt 0
 404 021c 97000000 		call	_Z11thread_exitv@plt
 404      E7800000 
 405              	.LVL34:
  41:src/tcb.cpp   ****     TCB::yield();
 406              		.loc 1 41 5 is_stmt 1
GAS LISTING /tmp/ccPqp0Em.s 			page 13


 407              		.loc 1 41 15 is_stmt 0
 408 0224 97000000 		call	_ZN3TCB5yieldEv
 408      E7800000 
 409              	.LVL35:
  42:src/tcb.cpp   **** }...
 410              		.loc 1 42 1
 411 022c 83308100 		ld	ra,8(sp)
 412              		.cfi_restore 1
 413 0230 03340100 		ld	s0,0(sp)
 414              		.cfi_restore 8
 415              		.cfi_def_cfa 2, 16
 416 0234 13010101 		addi	sp,sp,16
 417              		.cfi_def_cfa_offset 0
 418 0238 67800000 		jr	ra
 419              		.cfi_endproc
 420              	.LFE47:
 422              		.align	2
 423              		.globl	_ZN3TCB8dispatchEv
 425              	_ZN3TCB8dispatchEv:
 426              	.LFB46:
  29:src/tcb.cpp   **** void TCB::dispatch() {
 427              		.loc 1 29 22 is_stmt 1
 428              		.cfi_startproc
 429 023c 130101FE 		addi	sp,sp,-32
 430              		.cfi_def_cfa_offset 32
 431 0240 233C1100 		sd	ra,24(sp)
 432 0244 23388100 		sd	s0,16(sp)
 433 0248 23349100 		sd	s1,8(sp)
 434              		.cfi_offset 1, -8
 435              		.cfi_offset 8, -16
 436              		.cfi_offset 9, -24
 437 024c 13040102 		addi	s0,sp,32
 438              		.cfi_def_cfa 8, 0
  30:src/tcb.cpp   ****     TCB* old = running;
 439              		.loc 1 30 5
  30:src/tcb.cpp   ****     TCB* old = running;
 440              		.loc 1 30 10 is_stmt 0
 441 0250 97040000 		ld	s1,.LANCHOR0
 441      83B40400 
 442              	.LVL36:
  31:src/tcb.cpp   ****     if(!old->isFinished()){ Scheduler::put(old); }
 443              		.loc 1 31 5 is_stmt 1
 444              	.LBB22:
 445              	.LBB23:
  11:src/../h/tcb.hpp **** 
 446              		.loc 2 11 31
  11:src/../h/tcb.hpp **** 
 447              		.loc 2 11 38 is_stmt 0
 448 0258 83C70403 		lbu	a5,48(s1)
 449              	.LVL37:
 450              	.LBE23:
 451              	.LBE22:
  31:src/tcb.cpp   ****     if(!old->isFinished()){ Scheduler::put(old); }
 452              		.loc 1 31 5
 453 025c 638C0702 		beqz	a5,.L29
 454              	.L27:
  32:src/tcb.cpp   ****     running = Scheduler::get();
GAS LISTING /tmp/ccPqp0Em.s 			page 14


 455              		.loc 1 32 5 is_stmt 1
  32:src/tcb.cpp   ****     running = Scheduler::get();
 456              		.loc 1 32 29 is_stmt 0
 457 0260 97000000 		call	_ZN9Scheduler3getEv@plt
 457      E7800000 
 458              	.LVL38:
  32:src/tcb.cpp   ****     running = Scheduler::get();
 459              		.loc 1 32 13
 460 0268 97070000 		sd	a0,.LANCHOR0,a5
 460      23B0A700 
  34:src/tcb.cpp   ****     TCB::contextSwitch(&old->context, &running->context);
 461              		.loc 1 34 5 is_stmt 1
  34:src/tcb.cpp   ****     TCB::contextSwitch(&old->context, &running->context);
 462              		.loc 1 34 23 is_stmt 0
 463 0270 93058501 		addi	a1,a0,24
 464 0274 13858401 		addi	a0,s1,24
 465 0278 97000000 		call	_ZN3TCB13contextSwitchEPNS_7ContextES1_@plt
 465      E7800000 
 466              	.LVL39:
  35:src/tcb.cpp   **** }
 467              		.loc 1 35 1
 468 0280 83308101 		ld	ra,24(sp)
 469              		.cfi_remember_state
 470              		.cfi_restore 1
 471 0284 03340101 		ld	s0,16(sp)
 472              		.cfi_restore 8
 473              		.cfi_def_cfa 2, 32
 474 0288 83348100 		ld	s1,8(sp)
 475              		.cfi_restore 9
 476              	.LVL40:
 477 028c 13010102 		addi	sp,sp,32
 478              		.cfi_def_cfa_offset 0
 479 0290 67800000 		jr	ra
 480              	.LVL41:
 481              	.L29:
 482              		.cfi_restore_state
  31:src/tcb.cpp   ****     if(!old->isFinished()){ Scheduler::put(old); }
 483              		.loc 1 31 29 is_stmt 1 discriminator 1
  31:src/tcb.cpp   ****     if(!old->isFinished()){ Scheduler::put(old); }
 484              		.loc 1 31 43 is_stmt 0 discriminator 1
 485 0294 13850400 		mv	a0,s1
 486 0298 97000000 		call	_ZN9Scheduler3putEP3TCB@plt
 486      E7800000 
 487              	.LVL42:
 488 02a0 6FF01FFC 		j	.L27
 489              		.cfi_endproc
 490              	.LFE46:
 492              		.globl	_ZN3TCB16timeSliceCounterE
 493              		.globl	_ZN3TCB7runningE
 494              		.bss
 495              		.align	3
 496              		.set	.LANCHOR0,. + 0
 499              	_ZN3TCB7runningE:
 500 0000 00000000 		.zero	8
 500      00000000 
 503              	_ZN3TCB16timeSliceCounterE:
 504 0008 00000000 		.zero	8
GAS LISTING /tmp/ccPqp0Em.s 			page 15


 504      00000000 
 505              		.text
 506              	.Letext0:
 507              		.file 4 "src/../h/../lib/hw.h"
 508              		.file 5 "src/../h/../h/scheduler.hpp"
 509              		.file 6 "src/../h/syscall_c.hpp"
 3022              		.align	3
 3025              	DW.ref.__gxx_personality_v0:
 3026 0000 00000000 		.dword	__gxx_personality_v0
 3026      00000000 
 3027              		.ident	"GCC: (Ubuntu 9.4.0-1ubuntu1~20.04) 9.4.0"
 3028              		.section	.note.GNU-stack,"",@progbits
GAS LISTING /tmp/ccPqp0Em.s 			page 16


DEFINED SYMBOLS
                            *ABS*:0000000000000000 tcb.cpp
     /tmp/ccPqp0Em.s:9      .text:0000000000000000 _ZN3TCB12createThreadEPFvPvES0_
     /tmp/ccPqp0Em.s:13     .text:0000000000000000 .L0 
     /tmp/ccPqp0Em.s:3025   .data.rel.local.DW.ref.__gxx_personality_v0:0000000000000000 DW.ref.__gxx_personality_v0
     /tmp/ccPqp0Em.s:17     .text:0000000000000000 .L0 
     /tmp/ccPqp0Em.s:18     .text:0000000000000004 .L0 
     /tmp/ccPqp0Em.s:24     .text:0000000000000018 .L0 
     /tmp/ccPqp0Em.s:25     .text:0000000000000018 .L0 
     /tmp/ccPqp0Em.s:26     .text:0000000000000018 .L0 
     /tmp/ccPqp0Em.s:27     .text:0000000000000018 .L0 
     /tmp/ccPqp0Em.s:28     .text:0000000000000018 .L0 
     /tmp/ccPqp0Em.s:30     .text:000000000000001c .L0 
     /tmp/ccPqp0Em.s:34     .text:0000000000000024 .L0 
     /tmp/ccPqp0Em.s:35     .text:0000000000000024 .L0 
     /tmp/ccPqp0Em.s:47     .text:0000000000000034 .L0 
     /tmp/ccPqp0Em.s:50     .text:000000000000003c .L0 
     /tmp/ccPqp0Em.s:52     .text:0000000000000040 .L0 
     /tmp/ccPqp0Em.s:60     .text:0000000000000050 .L0 
     /tmp/ccPqp0Em.s:63     .text:0000000000000054 .L0 
     /tmp/ccPqp0Em.s:378    .text:00000000000001f0 _ZN3TCB13threadWrapperEv
     /tmp/ccPqp0Em.s:67     .text:0000000000000064 .L0 
     /tmp/ccPqp0Em.s:69     .text:0000000000000068 .L0 
     /tmp/ccPqp0Em.s:73     .text:0000000000000070 .L0 
     /tmp/ccPqp0Em.s:81     .text:0000000000000080 .L0 
     /tmp/ccPqp0Em.s:83     .text:0000000000000084 .L0 
     /tmp/ccPqp0Em.s:84     .text:0000000000000084 .L0 
     /tmp/ccPqp0Em.s:90     .text:0000000000000090 .L0 
     /tmp/ccPqp0Em.s:92     .text:0000000000000098 .L0 
     /tmp/ccPqp0Em.s:93     .text:0000000000000098 .L0 
     /tmp/ccPqp0Em.s:95     .text:000000000000009c .L0 
     /tmp/ccPqp0Em.s:96     .text:000000000000009c .L0 
     /tmp/ccPqp0Em.s:98     .text:00000000000000a0 .L0 
     /tmp/ccPqp0Em.s:101    .text:00000000000000a4 .L0 
     /tmp/ccPqp0Em.s:104    .text:00000000000000a8 .L0 
     /tmp/ccPqp0Em.s:107    .text:00000000000000ac .L0 
     /tmp/ccPqp0Em.s:111    .text:00000000000000b0 .L0 
     /tmp/ccPqp0Em.s:115    .text:00000000000000b0 .L0 
     /tmp/ccPqp0Em.s:122    .text:00000000000000b8 .L0 
     /tmp/ccPqp0Em.s:123    .text:00000000000000b8 .L0 
     /tmp/ccPqp0Em.s:125    .text:00000000000000c0 .L0 
     /tmp/ccPqp0Em.s:126    .text:00000000000000c0 .L0 
     /tmp/ccPqp0Em.s:132    .text:00000000000000c8 .L0 
     /tmp/ccPqp0Em.s:139    .text:00000000000000e0 .L0 
     /tmp/ccPqp0Em.s:165    .text:00000000000000e0 _ZN3TCB27createThreadWithoutStartingEPFvPvES0_
     /tmp/ccPqp0Em.s:168    .text:00000000000000e0 .L0 
     /tmp/ccPqp0Em.s:172    .text:00000000000000e0 .L0 
     /tmp/ccPqp0Em.s:173    .text:00000000000000e4 .L0 
     /tmp/ccPqp0Em.s:179    .text:00000000000000f8 .L0 
     /tmp/ccPqp0Em.s:180    .text:00000000000000f8 .L0 
     /tmp/ccPqp0Em.s:181    .text:00000000000000f8 .L0 
     /tmp/ccPqp0Em.s:182    .text:00000000000000f8 .L0 
     /tmp/ccPqp0Em.s:183    .text:00000000000000f8 .L0 
     /tmp/ccPqp0Em.s:185    .text:00000000000000fc .L0 
     /tmp/ccPqp0Em.s:189    .text:0000000000000104 .L0 
     /tmp/ccPqp0Em.s:190    .text:0000000000000104 .L0 
     /tmp/ccPqp0Em.s:201    .text:0000000000000114 .L0 
GAS LISTING /tmp/ccPqp0Em.s 			page 17


     /tmp/ccPqp0Em.s:204    .text:000000000000011c .L0 
     /tmp/ccPqp0Em.s:206    .text:0000000000000120 .L0 
     /tmp/ccPqp0Em.s:214    .text:0000000000000130 .L0 
     /tmp/ccPqp0Em.s:217    .text:0000000000000134 .L0 
     /tmp/ccPqp0Em.s:221    .text:0000000000000144 .L0 
     /tmp/ccPqp0Em.s:223    .text:0000000000000148 .L0 
     /tmp/ccPqp0Em.s:227    .text:0000000000000150 .L0 
     /tmp/ccPqp0Em.s:235    .text:0000000000000160 .L0 
     /tmp/ccPqp0Em.s:237    .text:0000000000000168 .L0 
     /tmp/ccPqp0Em.s:238    .text:0000000000000168 .L0 
     /tmp/ccPqp0Em.s:240    .text:000000000000016c .L0 
     /tmp/ccPqp0Em.s:241    .text:000000000000016c .L0 
     /tmp/ccPqp0Em.s:243    .text:0000000000000170 .L0 
     /tmp/ccPqp0Em.s:245    .text:0000000000000174 .L0 
     /tmp/ccPqp0Em.s:248    .text:0000000000000178 .L0 
     /tmp/ccPqp0Em.s:251    .text:000000000000017c .L0 
     /tmp/ccPqp0Em.s:255    .text:0000000000000180 .L0 
     /tmp/ccPqp0Em.s:259    .text:0000000000000180 .L0 
     /tmp/ccPqp0Em.s:267    .text:000000000000018c .L0 
     /tmp/ccPqp0Em.s:275    .text:00000000000001a4 .L0 
     /tmp/ccPqp0Em.s:300    .text:00000000000001a4 _ZN3TCB11startThreadEPS_
     /tmp/ccPqp0Em.s:303    .text:00000000000001a4 .L0 
     /tmp/ccPqp0Em.s:305    .text:00000000000001a4 .L0 
     /tmp/ccPqp0Em.s:306    .text:00000000000001a8 .L0 
     /tmp/ccPqp0Em.s:309    .text:00000000000001b0 .L0 
     /tmp/ccPqp0Em.s:310    .text:00000000000001b0 .L0 
     /tmp/ccPqp0Em.s:312    .text:00000000000001b4 .L0 
     /tmp/ccPqp0Em.s:314    .text:00000000000001b4 .L0 
     /tmp/ccPqp0Em.s:315    .text:00000000000001b4 .L0 
     /tmp/ccPqp0Em.s:318    .text:00000000000001bc .L0 
     /tmp/ccPqp0Em.s:319    .text:00000000000001c0 .L0 
     /tmp/ccPqp0Em.s:321    .text:00000000000001c4 .L0 
     /tmp/ccPqp0Em.s:322    .text:00000000000001c4 .L0 
     /tmp/ccPqp0Em.s:324    .text:00000000000001c8 .L0 
     /tmp/ccPqp0Em.s:326    .text:00000000000001cc .L0 
     /tmp/ccPqp0Em.s:332    .text:00000000000001cc _ZN3TCB5yieldEv
     /tmp/ccPqp0Em.s:335    .text:00000000000001cc .L0 
     /tmp/ccPqp0Em.s:336    .text:00000000000001cc .L0 
     /tmp/ccPqp0Em.s:337    .text:00000000000001d0 .L0 
     /tmp/ccPqp0Em.s:339    .text:00000000000001d4 .L0 
     /tmp/ccPqp0Em.s:341    .text:00000000000001d8 .L0 
     /tmp/ccPqp0Em.s:347    .text:00000000000001d8 .L0 
     /tmp/ccPqp0Em.s:348    .text:00000000000001d8 .L0 
     /tmp/ccPqp0Em.s:349    .text:00000000000001d8 .L0 
     /tmp/ccPqp0Em.s:359    .text:00000000000001e0 .L0 
         src/tcb.cpp:26     .text:00000000000001e0 .L0 
     /tmp/ccPqp0Em.s:366    .text:00000000000001e4 .L0 
     /tmp/ccPqp0Em.s:367    .text:00000000000001e8 .L0 
     /tmp/ccPqp0Em.s:368    .text:00000000000001e8 .L0 
     /tmp/ccPqp0Em.s:370    .text:00000000000001ec .L0 
     /tmp/ccPqp0Em.s:372    .text:00000000000001f0 .L0 
     /tmp/ccPqp0Em.s:381    .text:00000000000001f0 .L0 
     /tmp/ccPqp0Em.s:382    .text:00000000000001f0 .L0 
     /tmp/ccPqp0Em.s:383    .text:00000000000001f4 .L0 
     /tmp/ccPqp0Em.s:386    .text:00000000000001fc .L0 
     /tmp/ccPqp0Em.s:387    .text:00000000000001fc .L0 
     /tmp/ccPqp0Em.s:389    .text:0000000000000200 .L0 
GAS LISTING /tmp/ccPqp0Em.s 			page 18


     /tmp/ccPqp0Em.s:391    .text:0000000000000200 .L0 
     /tmp/ccPqp0Em.s:392    .text:0000000000000200 .L0 
     /tmp/ccPqp0Em.s:395    .text:0000000000000208 .L0 
     /tmp/ccPqp0Em.s:396    .text:0000000000000208 .L0 
     /tmp/ccPqp0Em.s:399    .text:0000000000000214 .L0 
     /tmp/ccPqp0Em.s:403    .text:000000000000021c .L0 
     /tmp/ccPqp0Em.s:404    .text:000000000000021c .L0 
     /tmp/ccPqp0Em.s:407    .text:0000000000000224 .L0 
     /tmp/ccPqp0Em.s:408    .text:0000000000000224 .L0 
     /tmp/ccPqp0Em.s:411    .text:000000000000022c .L0 
     /tmp/ccPqp0Em.s:412    .text:0000000000000230 .L0 
     /tmp/ccPqp0Em.s:414    .text:0000000000000234 .L0 
     /tmp/ccPqp0Em.s:415    .text:0000000000000234 .L0 
     /tmp/ccPqp0Em.s:417    .text:0000000000000238 .L0 
     /tmp/ccPqp0Em.s:419    .text:000000000000023c .L0 
     /tmp/ccPqp0Em.s:425    .text:000000000000023c _ZN3TCB8dispatchEv
     /tmp/ccPqp0Em.s:428    .text:000000000000023c .L0 
     /tmp/ccPqp0Em.s:429    .text:000000000000023c .L0 
     /tmp/ccPqp0Em.s:430    .text:0000000000000240 .L0 
     /tmp/ccPqp0Em.s:434    .text:000000000000024c .L0 
     /tmp/ccPqp0Em.s:435    .text:000000000000024c .L0 
     /tmp/ccPqp0Em.s:436    .text:000000000000024c .L0 
     /tmp/ccPqp0Em.s:438    .text:0000000000000250 .L0 
     /tmp/ccPqp0Em.s:440    .text:0000000000000250 .L0 
     /tmp/ccPqp0Em.s:441    .text:0000000000000250 .L0 
     /tmp/ccPqp0Em.s:446    .text:0000000000000258 .L0 
     /tmp/ccPqp0Em.s:447    .text:0000000000000258 .L0 
     /tmp/ccPqp0Em.s:448    .text:0000000000000258 .L0 
     /tmp/ccPqp0Em.s:453    .text:000000000000025c .L0 
     /tmp/ccPqp0Em.s:456    .text:0000000000000260 .L0 
     /tmp/ccPqp0Em.s:457    .text:0000000000000260 .L0 
     /tmp/ccPqp0Em.s:460    .text:0000000000000268 .L0 
     /tmp/ccPqp0Em.s:462    .text:0000000000000270 .L0 
     /tmp/ccPqp0Em.s:463    .text:0000000000000270 .L0 
     /tmp/ccPqp0Em.s:468    .text:0000000000000280 .L0 
     /tmp/ccPqp0Em.s:469    .text:0000000000000284 .L0 
     /tmp/ccPqp0Em.s:470    .text:0000000000000284 .L0 
     /tmp/ccPqp0Em.s:472    .text:0000000000000288 .L0 
     /tmp/ccPqp0Em.s:473    .text:0000000000000288 .L0 
     /tmp/ccPqp0Em.s:475    .text:000000000000028c .L0 
     /tmp/ccPqp0Em.s:478    .text:0000000000000290 .L0 
     /tmp/ccPqp0Em.s:482    .text:0000000000000294 .L0 
     /tmp/ccPqp0Em.s:484    .text:0000000000000294 .L0 
     /tmp/ccPqp0Em.s:485    .text:0000000000000294 .L0 
     /tmp/ccPqp0Em.s:489    .text:00000000000002a4 .L0 
     /tmp/ccPqp0Em.s:503    .bss:0000000000000008 _ZN3TCB16timeSliceCounterE
     /tmp/ccPqp0Em.s:499    .bss:0000000000000000 _ZN3TCB7runningE
     /tmp/ccPqp0Em.s:496    .bss:0000000000000000 .LANCHOR0
     /tmp/ccPqp0Em.s:510    .text:00000000000002a4 .L0 
     /tmp/ccPqp0Em.s:64     .text:0000000000000058 .L0 
     /tmp/ccPqp0Em.s:123    .text:00000000000000b8 .L0 
     /tmp/ccPqp0Em.s:218    .text:0000000000000138 .L0 
     /tmp/ccPqp0Em.s:396    .text:0000000000000208 .L0 
     /tmp/ccPqp0Em.s:441    .text:0000000000000250 .L0 
     /tmp/ccPqp0Em.s:460    .text:0000000000000268 .L0 
     /tmp/ccPqp0Em.s:58     .text:0000000000000050 .L7
     /tmp/ccPqp0Em.s:61     .text:0000000000000054 .L2
GAS LISTING /tmp/ccPqp0Em.s 			page 19


     /tmp/ccPqp0Em.s:110    .text:00000000000000b0 .L8
     /tmp/ccPqp0Em.s:118    .text:00000000000000b8 .L4
     /tmp/ccPqp0Em.s:71     .text:0000000000000070 .L3
     /tmp/ccPqp0Em.s:88     .text:0000000000000090 .L1
     /tmp/ccPqp0Em.s:212    .text:0000000000000130 .L15
     /tmp/ccPqp0Em.s:215    .text:0000000000000134 .L12
     /tmp/ccPqp0Em.s:254    .text:0000000000000180 .L16
     /tmp/ccPqp0Em.s:225    .text:0000000000000150 .L13
     /tmp/ccPqp0Em.s:481    .text:0000000000000294 .L29
     /tmp/ccPqp0Em.s:454    .text:0000000000000260 .L27
     /tmp/ccPqp0Em.s:37     .text:0000000000000028 .LEHB0
     /tmp/ccPqp0Em.s:10     .text:0000000000000000 .LFB42
     /tmp/ccPqp0Em.s:40     .text:0000000000000030 .LEHE0
     /tmp/ccPqp0Em.s:53     .text:0000000000000044 .LEHB1
     /tmp/ccPqp0Em.s:56     .text:000000000000004c .LEHE1
     /tmp/ccPqp0Em.s:128    .text:00000000000000c4 .L9
     /tmp/ccPqp0Em.s:85     .text:0000000000000088 .LEHB2
     /tmp/ccPqp0Em.s:138    .text:00000000000000e0 .LEHE2
     /tmp/ccPqp0Em.s:192    .text:0000000000000108 .LEHB3
     /tmp/ccPqp0Em.s:166    .text:00000000000000e0 .LFB43
     /tmp/ccPqp0Em.s:195    .text:0000000000000110 .LEHE3
     /tmp/ccPqp0Em.s:207    .text:0000000000000124 .LEHB4
     /tmp/ccPqp0Em.s:210    .text:000000000000012c .LEHE4
     /tmp/ccPqp0Em.s:261    .text:0000000000000188 .L17
     /tmp/ccPqp0Em.s:271    .text:000000000000019c .LEHB5
     /tmp/ccPqp0Em.s:274    .text:00000000000001a4 .LEHE5
     /tmp/ccPqp0Em.s:1575   .debug_abbrev:0000000000000000 .Ldebug_abbrev0
     /tmp/ccPqp0Em.s:2983   .debug_str:0000000000000646 .LASF108
     /tmp/ccPqp0Em.s:2893   .debug_str:00000000000003aa .LASF109
     /tmp/ccPqp0Em.s:2799   .debug_str:00000000000000a4 .LASF110
     /tmp/ccPqp0Em.s:5      .text:0000000000000000 .Ltext0
     /tmp/ccPqp0Em.s:506    .text:00000000000002a4 .Letext0
     /tmp/ccPqp0Em.s:2773   .debug_line:0000000000000000 .Ldebug_line0
     /tmp/ccPqp0Em.s:2909   .debug_str:0000000000000415 .LASF0
     /tmp/ccPqp0Em.s:2919   .debug_str:0000000000000458 .LASF1
     /tmp/ccPqp0Em.s:2897   .debug_str:00000000000003bd .LASF2
     /tmp/ccPqp0Em.s:2869   .debug_str:0000000000000313 .LASF4
     /tmp/ccPqp0Em.s:2957   .debug_str:0000000000000593 .LASF3
     /tmp/ccPqp0Em.s:2801   .debug_str:00000000000000c7 .LASF5
     /tmp/ccPqp0Em.s:2923   .debug_str:000000000000047f .LASF6
     /tmp/ccPqp0Em.s:2907   .debug_str:0000000000000402 .LASF7
     /tmp/ccPqp0Em.s:2991   .debug_str:000000000000073d .LASF8
     /tmp/ccPqp0Em.s:2855   .debug_str:0000000000000277 .LASF9
     /tmp/ccPqp0Em.s:2935   .debug_str:00000000000004f0 .LASF10
     /tmp/ccPqp0Em.s:2985   .debug_str:000000000000070a .LASF11
     /tmp/ccPqp0Em.s:2805   .debug_str:00000000000000d3 .LASF12
     /tmp/ccPqp0Em.s:2779   .debug_str:0000000000000022 .LASF13
     /tmp/ccPqp0Em.s:2815   .debug_str:0000000000000135 .LASF14
     /tmp/ccPqp0Em.s:2949   .debug_str:000000000000054f .LASF15
     /tmp/ccPqp0Em.s:2823   .debug_str:000000000000018a .LASF16
     /tmp/ccPqp0Em.s:2933   .debug_str:00000000000004e6 .LASF17
     /tmp/ccPqp0Em.s:2845   .debug_str:000000000000022e .LASF34
     /tmp/ccPqp0Em.s:2881   .debug_str:0000000000000348 .LASF30
     /tmp/ccPqp0Em.s:2939   .debug_str:0000000000000505 .LASF32
     /tmp/ccPqp0Em.s:2865   .debug_str:00000000000002d7 .LASF111
     /tmp/ccPqp0Em.s:2811   .debug_str:0000000000000113 .LASF112
     /tmp/ccPqp0Em.s:2887   .debug_str:0000000000000380 .LASF113
GAS LISTING /tmp/ccPqp0Em.s 			page 20


     /tmp/ccPqp0Em.s:2785   .debug_str:0000000000000041 .LASF114
     /tmp/ccPqp0Em.s:2829   .debug_str:00000000000001c3 .LASF18
     /tmp/ccPqp0Em.s:2943   .debug_str:0000000000000533 .LASF20
     /tmp/ccPqp0Em.s:2925   .debug_str:0000000000000492 .LASF22
     /tmp/ccPqp0Em.s:2853   .debug_str:0000000000000260 .LASF24
     /tmp/ccPqp0Em.s:2899   .debug_str:00000000000003cb .LASF19
     /tmp/ccPqp0Em.s:3013   .debug_str:00000000000007f5 .LASF21
     /tmp/ccPqp0Em.s:2889   .debug_str:000000000000038a .LASF23
     /tmp/ccPqp0Em.s:2797   .debug_str:000000000000008b .LASF25
     /tmp/ccPqp0Em.s:2879   .debug_str:000000000000033b .LASF26
     /tmp/ccPqp0Em.s:2917   .debug_str:0000000000000438 .LASF27
     /tmp/ccPqp0Em.s:2945   .debug_str:000000000000053f .LASF115
     /tmp/ccPqp0Em.s:2817   .debug_str:0000000000000141 .LASF28
     /tmp/ccPqp0Em.s:2999   .debug_str:000000000000077d .LASF29
     /tmp/ccPqp0Em.s:2965   .debug_str:00000000000005d1 .LASF55
     /tmp/ccPqp0Em.s:2841   .debug_str:0000000000000210 .LASF57
     /tmp/ccPqp0Em.s:2951   .debug_str:0000000000000565 .LASF31
     /tmp/ccPqp0Em.s:2903   .debug_str:00000000000003e1 .LASF33
     /tmp/ccPqp0Em.s:2835   .debug_str:00000000000001ec .LASF35
     /tmp/ccPqp0Em.s:2857   .debug_str:0000000000000285 .LASF116
     /tmp/ccPqp0Em.s:2873   .debug_str:0000000000000323 .LASF36
     /tmp/ccPqp0Em.s:3007   .debug_str:00000000000007dc .LASF37
     /tmp/ccPqp0Em.s:2877   .debug_str:0000000000000333 .LASF38
     /tmp/ccPqp0Em.s:2941   .debug_str:0000000000000528 .LASF39
     /tmp/ccPqp0Em.s:2871   .debug_str:000000000000031a .LASF40
     /tmp/ccPqp0Em.s:2883   .debug_str:000000000000035a .LASF42
     /tmp/ccPqp0Em.s:2861   .debug_str:00000000000002af .LASF44
     /tmp/ccPqp0Em.s:2995   .debug_str:0000000000000762 .LASF41
     /tmp/ccPqp0Em.s:2867   .debug_str:00000000000002eb .LASF117
     /tmp/ccPqp0Em.s:2913   .debug_str:0000000000000429 .LASF43
     /tmp/ccPqp0Em.s:2891   .debug_str:0000000000000397 .LASF45
     /tmp/ccPqp0Em.s:2959   .debug_str:00000000000005a5 .LASF118
     /tmp/ccPqp0Em.s:2843   .debug_str:0000000000000229 .LASF46
     /tmp/ccPqp0Em.s:2915   .debug_str:0000000000000432 .LASF47
     /tmp/ccPqp0Em.s:2795   .debug_str:000000000000007d .LASF48
     /tmp/ccPqp0Em.s:2833   .debug_str:00000000000001d1 .LASF49
     /tmp/ccPqp0Em.s:2973   .debug_str:0000000000000608 .LASF50
     /tmp/ccPqp0Em.s:2777   .debug_str:0000000000000008 .LASF51
     /tmp/ccPqp0Em.s:2947   .debug_str:0000000000000544 .LASF52
     /tmp/ccPqp0Em.s:3005   .debug_str:00000000000007c4 .LASF53
     /tmp/ccPqp0Em.s:2781   .debug_str:0000000000000032 .LASF54
     /tmp/ccPqp0Em.s:2971   .debug_str:00000000000005f3 .LASF60
     /tmp/ccPqp0Em.s:2831   .debug_str:00000000000001c8 .LASF56
     /tmp/ccPqp0Em.s:2819   .debug_str:000000000000015d .LASF58
     /tmp/ccPqp0Em.s:2961   .debug_str:00000000000005b6 .LASF59
     /tmp/ccPqp0Em.s:2987   .debug_str:0000000000000719 .LASF61
     /tmp/ccPqp0Em.s:2981   .debug_str:000000000000063f .LASF62
     /tmp/ccPqp0Em.s:2975   .debug_str:0000000000000615 .LASF63
     /tmp/ccPqp0Em.s:2849   .debug_str:0000000000000252 .LASF64
     /tmp/ccPqp0Em.s:2825   .debug_str:00000000000001a0 .LASF65
     /tmp/ccPqp0Em.s:2775   .debug_str:0000000000000000 .LASF66
     /tmp/ccPqp0Em.s:2963   .debug_str:00000000000005bd .LASF67
     /tmp/ccPqp0Em.s:2837   .debug_str:00000000000001f4 .LASF68
     /tmp/ccPqp0Em.s:2807   .debug_str:00000000000000e3 .LASF69
     /tmp/ccPqp0Em.s:3011   .debug_str:00000000000007ed .LASF70
     /tmp/ccPqp0Em.s:2839   .debug_str:00000000000001fc .LASF71
     /tmp/ccPqp0Em.s:2911   .debug_str:0000000000000422 .LASF72
GAS LISTING /tmp/ccPqp0Em.s 			page 21


     /tmp/ccPqp0Em.s:3001   .debug_str:00000000000007ac .LASF73
     /tmp/ccPqp0Em.s:2791   .debug_str:000000000000005b .LASF74
     /tmp/ccPqp0Em.s:2847   .debug_str:000000000000023f .LASF75
     /tmp/ccPqp0Em.s:2851   .debug_str:000000000000025a .LASF76
     /tmp/ccPqp0Em.s:2979   .debug_str:000000000000062d .LASF77
     /tmp/ccPqp0Em.s:2789   .debug_str:0000000000000055 .LASF78
     /tmp/ccPqp0Em.s:3017   .debug_str:000000000000081d .LASF79
     /tmp/ccPqp0Em.s:3009   .debug_str:00000000000007e2 .LASF80
     /tmp/ccPqp0Em.s:2955   .debug_str:000000000000057b .LASF81
     /tmp/ccPqp0Em.s:2875   .debug_str:0000000000000328 .LASF82
     /tmp/ccPqp0Em.s:2885   .debug_str:0000000000000368 .LASF83
     /tmp/ccPqp0Em.s:2813   .debug_str:000000000000012b .LASF84
     /tmp/ccPqp0Em.s:2931   .debug_str:00000000000004d0 .LASF85
     /tmp/ccPqp0Em.s:2901   .debug_str:00000000000003d7 .LASF86
     /tmp/ccPqp0Em.s:2859   .debug_str:0000000000000299 .LASF87
     /tmp/ccPqp0Em.s:2827   .debug_str:00000000000001b4 .LASF88
     /tmp/ccPqp0Em.s:2809   .debug_str:00000000000000f7 .LASF89
     /tmp/ccPqp0Em.s:2977   .debug_str:0000000000000628 .LASF90
     /tmp/ccPqp0Em.s:2929   .debug_str:00000000000004bf .LASF91
     /tmp/ccPqp0Em.s:2803   .debug_str:00000000000000ce .LASF92
     /tmp/ccPqp0Em.s:2905   .debug_str:00000000000003f1 .LASF93
     /tmp/ccPqp0Em.s:2993   .debug_str:000000000000074d .LASF94
     /tmp/ccPqp0Em.s:2927   .debug_str:000000000000049d .LASF95
     /tmp/ccPqp0Em.s:3015   .debug_str:000000000000080c .LASF96
     /tmp/ccPqp0Em.s:2793   .debug_str:0000000000000062 .LASF97
     /tmp/ccPqp0Em.s:379    .text:00000000000001f0 .LFB47
     /tmp/ccPqp0Em.s:420    .text:000000000000023c .LFE47
     /tmp/ccPqp0Em.s:393    .text:0000000000000208 .LVL32
     /tmp/ccPqp0Em.s:405    .text:0000000000000224 .LVL34
     /tmp/ccPqp0Em.s:409    .text:000000000000022c .LVL35
     /tmp/ccPqp0Em.s:426    .text:000000000000023c .LFB46
     /tmp/ccPqp0Em.s:490    .text:00000000000002a4 .LFE46
     /tmp/ccPqp0Em.s:2497   .debug_loc:0000000000000000 .LLST13
     /tmp/ccPqp0Em.s:444    .text:0000000000000258 .LBB22
     /tmp/ccPqp0Em.s:451    .text:000000000000025c .LBE22
     /tmp/ccPqp0Em.s:2508   .debug_loc:0000000000000036 .LLST14
     /tmp/ccPqp0Em.s:458    .text:0000000000000268 .LVL38
     /tmp/ccPqp0Em.s:466    .text:0000000000000280 .LVL39
     /tmp/ccPqp0Em.s:487    .text:00000000000002a0 .LVL42
     /tmp/ccPqp0Em.s:333    .text:00000000000001cc .LFB45
     /tmp/ccPqp0Em.s:373    .text:00000000000001f0 .LFE45
     /tmp/ccPqp0Em.s:344    .text:00000000000001d8 .LBB20
     /tmp/ccPqp0Em.s:357    .text:00000000000001e0 .LBE20
     /tmp/ccPqp0Em.s:2515   .debug_loc:0000000000000059 .LLST12
     /tmp/ccPqp0Em.s:301    .text:00000000000001a4 .LFB44
     /tmp/ccPqp0Em.s:327    .text:00000000000001cc .LFE44
     /tmp/ccPqp0Em.s:2523   .debug_loc:000000000000007d .LLST11
     /tmp/ccPqp0Em.s:316    .text:00000000000001bc .LVL29
     /tmp/ccPqp0Em.s:276    .text:00000000000001a4 .LFE43
     /tmp/ccPqp0Em.s:2537   .debug_loc:00000000000000b6 .LLST6
     /tmp/ccPqp0Em.s:2566   .debug_loc:000000000000012b .LLST7
     /tmp/ccPqp0Em.s:198    .text:0000000000000114 .LBB16
     /tmp/ccPqp0Em.s:2759   .debug_ranges:0000000000000000 .Ldebug_ranges0
     /tmp/ccPqp0Em.s:2588   .debug_loc:000000000000018a .LLST8
     /tmp/ccPqp0Em.s:2599   .debug_loc:00000000000001c0 .LLST9
     /tmp/ccPqp0Em.s:2617   .debug_loc:000000000000020c .LLST10
     /tmp/ccPqp0Em.s:209    .text:000000000000012c .LVL20
GAS LISTING /tmp/ccPqp0Em.s 			page 22


     /tmp/ccPqp0Em.s:194    .text:0000000000000110 .LVL18
     /tmp/ccPqp0Em.s:269    .text:0000000000000198 .LVL26
     /tmp/ccPqp0Em.s:273    .text:00000000000001a4 .LVL27
     /tmp/ccPqp0Em.s:140    .text:00000000000000e0 .LFE42
     /tmp/ccPqp0Em.s:2628   .debug_loc:0000000000000242 .LLST0
     /tmp/ccPqp0Em.s:2657   .debug_loc:00000000000002b7 .LLST1
     /tmp/ccPqp0Em.s:2679   .debug_loc:0000000000000316 .LLST2
     /tmp/ccPqp0Em.s:43     .text:0000000000000034 .LBB9
     /tmp/ccPqp0Em.s:2694   .debug_loc:000000000000035f .LLST3
     /tmp/ccPqp0Em.s:2709   .debug_loc:00000000000003a8 .LLST4
     /tmp/ccPqp0Em.s:2731   .debug_loc:0000000000000407 .LLST5
     /tmp/ccPqp0Em.s:55     .text:000000000000004c .LVL4
     /tmp/ccPqp0Em.s:39     .text:0000000000000030 .LVL2
     /tmp/ccPqp0Em.s:87     .text:0000000000000090 .LVL6
     /tmp/ccPqp0Em.s:134    .text:00000000000000d4 .LVL14
     /tmp/ccPqp0Em.s:137    .text:00000000000000e0 .LVL15
     /tmp/ccPqp0Em.s:2937   .debug_str:00000000000004ff .LASF98
     /tmp/ccPqp0Em.s:3003   .debug_str:00000000000007bf .LASF99
     /tmp/ccPqp0Em.s:2921   .debug_str:000000000000046b .LASF119
     /tmp/ccPqp0Em.s:2989   .debug_str:000000000000072c .LASF120
     /tmp/ccPqp0Em.s:2787   .debug_str:0000000000000049 .LASF121
     /tmp/ccPqp0Em.s:2969   .debug_str:00000000000005ed .LASF100
     /tmp/ccPqp0Em.s:2953   .debug_str:000000000000056b .LASF102
     /tmp/ccPqp0Em.s:2783   .debug_str:000000000000003b .LASF101
     /tmp/ccPqp0Em.s:2997   .debug_str:0000000000000770 .LASF103
     /tmp/ccPqp0Em.s:2895   .debug_str:00000000000003b6 .LASF104
     /tmp/ccPqp0Em.s:2967   .debug_str:00000000000005dd .LASF105
     /tmp/ccPqp0Em.s:2863   .debug_str:00000000000002c8 .LASF106
     /tmp/ccPqp0Em.s:2821   .debug_str:0000000000000172 .LASF107
     /tmp/ccPqp0Em.s:442    .text:0000000000000258 .LVL36
     /tmp/ccPqp0Em.s:476    .text:000000000000028c .LVL40
     /tmp/ccPqp0Em.s:480    .text:0000000000000294 .LVL41
     /tmp/ccPqp0Em.s:449    .text:000000000000025c .LVL37
     /tmp/ccPqp0Em.s:343    .text:00000000000001d8 .LVL30
     /tmp/ccPqp0Em.s:354    .text:00000000000001e0 .LVL31
     /tmp/ccPqp0Em.s:304    .text:00000000000001a4 .LVL28
     /tmp/ccPqp0Em.s:171    .text:00000000000000e0 .LVL16
     /tmp/ccPqp0Em.s:191    .text:0000000000000108 .LVL17
     /tmp/ccPqp0Em.s:246    .text:0000000000000174 .LVL22
     /tmp/ccPqp0Em.s:253    .text:0000000000000180 .LVL24
     /tmp/ccPqp0Em.s:263    .text:000000000000018c .LVL25
     /tmp/ccPqp0Em.s:249    .text:0000000000000178 .LVL23
     /tmp/ccPqp0Em.s:197    .text:0000000000000114 .LVL19
     /tmp/ccPqp0Em.s:231    .text:0000000000000160 .LVL21
     /tmp/ccPqp0Em.s:16     .text:0000000000000000 .LVL0
     /tmp/ccPqp0Em.s:36     .text:0000000000000028 .LVL1
     /tmp/ccPqp0Em.s:102    .text:00000000000000a4 .LVL8
     /tmp/ccPqp0Em.s:109    .text:00000000000000b0 .LVL10
     /tmp/ccPqp0Em.s:130    .text:00000000000000c8 .LVL13
     /tmp/ccPqp0Em.s:105    .text:00000000000000a8 .LVL9
     /tmp/ccPqp0Em.s:77     .text:0000000000000080 .LVL5
     /tmp/ccPqp0Em.s:99     .text:00000000000000a0 .LVL7
     /tmp/ccPqp0Em.s:117    .text:00000000000000b8 .LVL11
     /tmp/ccPqp0Em.s:127    .text:00000000000000c4 .LVL12
     /tmp/ccPqp0Em.s:42     .text:0000000000000034 .LVL3
     /tmp/ccPqp0Em.s:511    .debug_info:0000000000000000 .Ldebug_info0
     /tmp/ccPqp0Em.s:79     .text:0000000000000080 .LBE9
GAS LISTING /tmp/ccPqp0Em.s 			page 23


     /tmp/ccPqp0Em.s:112    .text:00000000000000b0 .LBB12
     /tmp/ccPqp0Em.s:120    .text:00000000000000b8 .LBE12
     /tmp/ccPqp0Em.s:233    .text:0000000000000160 .LBE16
     /tmp/ccPqp0Em.s:256    .text:0000000000000180 .LBB19
     /tmp/ccPqp0Em.s:265    .text:000000000000018c .LBE19
     /tmp/ccPqp0Em.s:143    .gcc_except_table:0000000000000000 .LLSDA42
     /tmp/ccPqp0Em.s:278    .gcc_except_table:000000000000002b .LLSDA43

UNDEFINED SYMBOLS
_Znwm
_Znam
_ZN9Scheduler3putEP3TCB
_ZdlPv
_Unwind_Resume
__gxx_personality_v0
_ZN5Riscv10popSppSpieEv
_Z11thread_exitv
_ZN9Scheduler3getEv
_ZN3TCB13contextSwitchEPNS_7ContextES1_
