GAS LISTING /tmp/cc0aGGqD.s 			page 1


   1              		.file	"workers.cpp"
   2              		.option pic
   3              		.option norelax
   4              		.text
   5              	.Ltext0:
   6              		.align	2
   8              	_ZL9fibonaccim:
   9              	.LFB26:
  10              		.file 1 "src/workers.cpp"
   1:src/workers.cpp **** //
   2:src/workers.cpp **** // Created by marko on 20.4.22..
   3:src/workers.cpp **** //
   4:src/workers.cpp **** 
   5:src/workers.cpp **** #include "../lib/hw.h"
   6:src/workers.cpp **** #include "../h/tcb.hpp"
   7:src/workers.cpp **** #include "../h/printing.hpp"
   8:src/workers.cpp **** 
   9:src/workers.cpp **** void workerBodyA()
  10:src/workers.cpp **** {
  11:src/workers.cpp ****     for (uint64 i = 0; i < 10; i++)
  12:src/workers.cpp ****     {
  13:src/workers.cpp ****         printString("A: i=");
  14:src/workers.cpp ****         printInt(i);
  15:src/workers.cpp ****         printString("\n");
  16:src/workers.cpp ****         for (uint64 j = 0; j < 10000; j++)
  17:src/workers.cpp ****         {
  18:src/workers.cpp ****             for (uint64 k = 0; k < 30000; k++)
  19:src/workers.cpp ****             {
  20:src/workers.cpp ****                 // busy wait
  21:src/workers.cpp ****             }
  22:src/workers.cpp ****             //TCB::yield();
  23:src/workers.cpp ****         }
  24:src/workers.cpp ****     }
  25:src/workers.cpp **** }
  26:src/workers.cpp **** 
  27:src/workers.cpp **** void workerBodyB()
  28:src/workers.cpp **** {
  29:src/workers.cpp ****     for (uint64 i = 0; i < 16; i++)
  30:src/workers.cpp ****     {
  31:src/workers.cpp ****         printString("B: i=");
  32:src/workers.cpp ****         printInt(i);
  33:src/workers.cpp ****         printString("\n");
  34:src/workers.cpp ****         for (uint64 j = 0; j < 10000; j++)
  35:src/workers.cpp ****         {
  36:src/workers.cpp ****             for (uint64 k = 0; k < 30000; k++)
  37:src/workers.cpp ****             {
  38:src/workers.cpp ****                 // busy wait
  39:src/workers.cpp ****             }
  40:src/workers.cpp ****             //TCB::yield();
  41:src/workers.cpp ****         }
  42:src/workers.cpp ****     }
  43:src/workers.cpp **** }
  44:src/workers.cpp **** 
  45:src/workers.cpp **** static uint64 fibonacci(uint64 n)
  46:src/workers.cpp **** {
  11              		.loc 1 46 1
  12              		.cfi_startproc
GAS LISTING /tmp/cc0aGGqD.s 			page 2


  13              	.LVL0:
  14 0000 130101FE 		addi	sp,sp,-32
  15              		.cfi_def_cfa_offset 32
  16 0004 233C1100 		sd	ra,24(sp)
  17 0008 23388100 		sd	s0,16(sp)
  18 000c 23349100 		sd	s1,8(sp)
  19 0010 23302101 		sd	s2,0(sp)
  20              		.cfi_offset 1, -8
  21              		.cfi_offset 8, -16
  22              		.cfi_offset 9, -24
  23              		.cfi_offset 18, -32
  24 0014 13040102 		addi	s0,sp,32
  25              		.cfi_def_cfa 8, 0
  26 0018 93040500 		mv	s1,a0
  47:src/workers.cpp ****     if (n == 0 || n == 1) { return n; }
  27              		.loc 1 47 5
  28 001c 93071000 		li	a5,1
  29 0020 63F6A702 		bleu	a0,a5,.L1
  48:src/workers.cpp ****     if (n % 4 == 0) { TCB::yield(); }
  30              		.loc 1 48 5
  31              		.loc 1 48 11 is_stmt 0
  32 0024 93773500 		andi	a5,a0,3
  33              		.loc 1 48 5
  34 0028 638E0702 		beqz	a5,.L6
  35              	.LVL1:
  36              	.L3:
  49:src/workers.cpp ****     return fibonacci(n - 1) + fibonacci(n - 2);
  37              		.loc 1 49 5 is_stmt 1
  38              		.loc 1 49 21 is_stmt 0
  39 002c 1385F4FF 		addi	a0,s1,-1
  40 0030 97000000 		call	_ZL9fibonaccim
  40      E7800000 
  41              	.LVL2:
  42 0038 13090500 		mv	s2,a0
  43              		.loc 1 49 40
  44 003c 1385E4FF 		addi	a0,s1,-2
  45 0040 97000000 		call	_ZL9fibonaccim
  45      E7800000 
  46              	.LVL3:
  47              		.loc 1 49 46
  48 0048 3305A900 		add	a0,s2,a0
  49              	.L1:
  50:src/workers.cpp **** }
  50              		.loc 1 50 1
  51 004c 83308101 		ld	ra,24(sp)
  52              		.cfi_remember_state
  53              		.cfi_restore 1
  54 0050 03340101 		ld	s0,16(sp)
  55              		.cfi_restore 8
  56              		.cfi_def_cfa 2, 32
  57 0054 83348100 		ld	s1,8(sp)
  58              		.cfi_restore 9
  59              	.LVL4:
  60 0058 03390100 		ld	s2,0(sp)
  61              		.cfi_restore 18
  62 005c 13010102 		addi	sp,sp,32
  63              		.cfi_def_cfa_offset 0
GAS LISTING /tmp/cc0aGGqD.s 			page 3


  64 0060 67800000 		jr	ra
  65              	.LVL5:
  66              	.L6:
  67              		.cfi_restore_state
  48:src/workers.cpp ****     if (n % 4 == 0) { TCB::yield(); }
  68              		.loc 1 48 23 is_stmt 1 discriminator 1
  48:src/workers.cpp ****     if (n % 4 == 0) { TCB::yield(); }
  69              		.loc 1 48 33 is_stmt 0 discriminator 1
  70 0064 97000000 		call	_ZN3TCB5yieldEv@plt
  70      E7800000 
  71              	.LVL6:
  72 006c 6FF01FFC 		j	.L3
  73              		.cfi_endproc
  74              	.LFE26:
  76              		.section	.rodata.str1.8,"aMS",@progbits,1
  77              		.align	3
  78              	.LC0:
  79 0000 413A2069 		.string	"A: i="
  79      3D00
  80 0006 0000     		.align	3
  81              	.LC1:
  82 0008 0A00     		.string	"\n"
  83              		.text
  84              		.align	2
  85              		.globl	_Z11workerBodyAv
  87              	_Z11workerBodyAv:
  88              	.LFB24:
  10:src/workers.cpp ****     for (uint64 i = 0; i < 10; i++)
  89              		.loc 1 10 1 is_stmt 1
  90              		.cfi_startproc
  91 0070 130101FE 		addi	sp,sp,-32
  92              		.cfi_def_cfa_offset 32
  93 0074 233C1100 		sd	ra,24(sp)
  94 0078 23388100 		sd	s0,16(sp)
  95 007c 23349100 		sd	s1,8(sp)
  96              		.cfi_offset 1, -8
  97              		.cfi_offset 8, -16
  98              		.cfi_offset 9, -24
  99 0080 13040102 		addi	s0,sp,32
 100              		.cfi_def_cfa 8, 0
  11:src/workers.cpp ****     {
 101              		.loc 1 11 5
 102              	.LVL7:
 103              	.LBB2:
  11:src/workers.cpp ****     {
 104              		.loc 1 11 17 is_stmt 0
 105 0084 93040000 		li	s1,0
 106 0088 6F000003 		j	.L13
 107              	.LVL8:
 108              	.L10:
 109              	.LBB3:
 110              	.LBB4:
  16:src/workers.cpp ****         {
 111              		.loc 1 16 9 is_stmt 1 discriminator 2
 112 008c 93861600 		addi	a3,a3,1
 113              	.LVL9:
 114              	.L12:
GAS LISTING /tmp/cc0aGGqD.s 			page 4


  16:src/workers.cpp ****         {
 115              		.loc 1 16 30 discriminator 1
 116 0090 B7270000 		li	a5,8192
 117 0094 9387F770 		addi	a5,a5,1807
 118 0098 63EED700 		bgtu	a3,a5,.L9
 119              	.LBB5:
  18:src/workers.cpp ****             {
 120              		.loc 1 18 25 is_stmt 0
 121 009c 13070000 		li	a4,0
 122              	.L11:
 123              	.LVL10:
  18:src/workers.cpp ****             {
 124              		.loc 1 18 34 is_stmt 1 discriminator 3
 125 00a0 B7770000 		li	a5,28672
 126 00a4 9387F752 		addi	a5,a5,1327
 127 00a8 E3E2E7FE 		bgtu	a4,a5,.L10
  18:src/workers.cpp ****             {
 128              		.loc 1 18 13 discriminator 2
 129 00ac 13071700 		addi	a4,a4,1
 130              	.LVL11:
 131 00b0 6FF01FFF 		j	.L11
 132              	.LVL12:
 133              	.L9:
 134              	.LBE5:
 135              	.LBE4:
 136              	.LBE3:
  11:src/workers.cpp ****     {
 137              		.loc 1 11 5 discriminator 2
 138 00b4 93841400 		addi	s1,s1,1
 139              	.LVL13:
 140              	.L13:
  11:src/workers.cpp ****     {
 141              		.loc 1 11 26 discriminator 1
 142 00b8 93079000 		li	a5,9
 143 00bc 63E09704 		bgtu	s1,a5,.L7
 144              	.LBB7:
  13:src/workers.cpp ****         printInt(i);
 145              		.loc 1 13 9
  13:src/workers.cpp ****         printInt(i);
 146              		.loc 1 13 20 is_stmt 0
 147 00c0 17050000 		lla	a0,.LC0
 147      13050500 
 148 00c8 97000000 		call	_Z11printStringPKc@plt
 148      E7800000 
 149              	.LVL14:
  14:src/workers.cpp ****         printString("\n");
 150              		.loc 1 14 9 is_stmt 1
  14:src/workers.cpp ****         printString("\n");
 151              		.loc 1 14 17 is_stmt 0
 152 00d0 13060000 		li	a2,0
 153 00d4 9305A000 		li	a1,10
 154 00d8 1B850400 		sext.w	a0,s1
 155 00dc 97000000 		call	_Z8printIntiii@plt
 155      E7800000 
 156              	.LVL15:
  15:src/workers.cpp ****         for (uint64 j = 0; j < 10000; j++)
 157              		.loc 1 15 9 is_stmt 1
GAS LISTING /tmp/cc0aGGqD.s 			page 5


  15:src/workers.cpp ****         for (uint64 j = 0; j < 10000; j++)
 158              		.loc 1 15 20 is_stmt 0
 159 00e4 17050000 		lla	a0,.LC1
 159      13050500 
 160 00ec 97000000 		call	_Z11printStringPKc@plt
 160      E7800000 
 161              	.LVL16:
  16:src/workers.cpp ****         {
 162              		.loc 1 16 9 is_stmt 1
 163              	.LBB6:
  16:src/workers.cpp ****         {
 164              		.loc 1 16 21 is_stmt 0
 165 00f4 93060000 		li	a3,0
 166 00f8 6FF09FF9 		j	.L12
 167              	.LVL17:
 168              	.L7:
 169              	.LBE6:
 170              	.LBE7:
 171              	.LBE2:
  25:src/workers.cpp **** 
 172              		.loc 1 25 1
 173 00fc 83308101 		ld	ra,24(sp)
 174              		.cfi_restore 1
 175 0100 03340101 		ld	s0,16(sp)
 176              		.cfi_restore 8
 177              		.cfi_def_cfa 2, 32
 178 0104 83348100 		ld	s1,8(sp)
 179              		.cfi_restore 9
 180              	.LVL18:
 181 0108 13010102 		addi	sp,sp,32
 182              		.cfi_def_cfa_offset 0
 183 010c 67800000 		jr	ra
 184              		.cfi_endproc
 185              	.LFE24:
 187              		.section	.rodata.str1.8
 188 000a 00000000 		.align	3
 188      0000
 189              	.LC2:
 190 0010 423A2069 		.string	"B: i="
 190      3D00
 191              		.text
 192              		.align	2
 193              		.globl	_Z11workerBodyBv
 195              	_Z11workerBodyBv:
 196              	.LFB25:
  28:src/workers.cpp ****     for (uint64 i = 0; i < 16; i++)
 197              		.loc 1 28 1 is_stmt 1
 198              		.cfi_startproc
 199 0110 130101FE 		addi	sp,sp,-32
 200              		.cfi_def_cfa_offset 32
 201 0114 233C1100 		sd	ra,24(sp)
 202 0118 23388100 		sd	s0,16(sp)
 203 011c 23349100 		sd	s1,8(sp)
 204              		.cfi_offset 1, -8
 205              		.cfi_offset 8, -16
 206              		.cfi_offset 9, -24
 207 0120 13040102 		addi	s0,sp,32
GAS LISTING /tmp/cc0aGGqD.s 			page 6


 208              		.cfi_def_cfa 8, 0
  29:src/workers.cpp ****     {
 209              		.loc 1 29 5
 210              	.LVL19:
 211              	.LBB8:
  29:src/workers.cpp ****     {
 212              		.loc 1 29 17 is_stmt 0
 213 0124 93040000 		li	s1,0
 214 0128 6F000003 		j	.L21
 215              	.LVL20:
 216              	.L18:
 217              	.LBB9:
 218              	.LBB10:
  34:src/workers.cpp ****         {
 219              		.loc 1 34 9 is_stmt 1 discriminator 2
 220 012c 93861600 		addi	a3,a3,1
 221              	.LVL21:
 222              	.L20:
  34:src/workers.cpp ****         {
 223              		.loc 1 34 30 discriminator 1
 224 0130 B7270000 		li	a5,8192
 225 0134 9387F770 		addi	a5,a5,1807
 226 0138 63EED700 		bgtu	a3,a5,.L17
 227              	.LBB11:
  36:src/workers.cpp ****             {
 228              		.loc 1 36 25 is_stmt 0
 229 013c 13070000 		li	a4,0
 230              	.L19:
 231              	.LVL22:
  36:src/workers.cpp ****             {
 232              		.loc 1 36 34 is_stmt 1 discriminator 3
 233 0140 B7770000 		li	a5,28672
 234 0144 9387F752 		addi	a5,a5,1327
 235 0148 E3E2E7FE 		bgtu	a4,a5,.L18
  36:src/workers.cpp ****             {
 236              		.loc 1 36 13 discriminator 2
 237 014c 13071700 		addi	a4,a4,1
 238              	.LVL23:
 239 0150 6FF01FFF 		j	.L19
 240              	.LVL24:
 241              	.L17:
 242              	.LBE11:
 243              	.LBE10:
 244              	.LBE9:
  29:src/workers.cpp ****     {
 245              		.loc 1 29 5 discriminator 2
 246 0154 93841400 		addi	s1,s1,1
 247              	.LVL25:
 248              	.L21:
  29:src/workers.cpp ****     {
 249              		.loc 1 29 26 discriminator 1
 250 0158 9307F000 		li	a5,15
 251 015c 63E09704 		bgtu	s1,a5,.L15
 252              	.LBB13:
  31:src/workers.cpp ****         printInt(i);
 253              		.loc 1 31 9
  31:src/workers.cpp ****         printInt(i);
GAS LISTING /tmp/cc0aGGqD.s 			page 7


 254              		.loc 1 31 20 is_stmt 0
 255 0160 17050000 		lla	a0,.LC2
 255      13050500 
 256 0168 97000000 		call	_Z11printStringPKc@plt
 256      E7800000 
 257              	.LVL26:
  32:src/workers.cpp ****         printString("\n");
 258              		.loc 1 32 9 is_stmt 1
  32:src/workers.cpp ****         printString("\n");
 259              		.loc 1 32 17 is_stmt 0
 260 0170 13060000 		li	a2,0
 261 0174 9305A000 		li	a1,10
 262 0178 1B850400 		sext.w	a0,s1
 263 017c 97000000 		call	_Z8printIntiii@plt
 263      E7800000 
 264              	.LVL27:
  33:src/workers.cpp ****         for (uint64 j = 0; j < 10000; j++)
 265              		.loc 1 33 9 is_stmt 1
  33:src/workers.cpp ****         for (uint64 j = 0; j < 10000; j++)
 266              		.loc 1 33 20 is_stmt 0
 267 0184 17050000 		lla	a0,.LC1
 267      13050500 
 268 018c 97000000 		call	_Z11printStringPKc@plt
 268      E7800000 
 269              	.LVL28:
  34:src/workers.cpp ****         {
 270              		.loc 1 34 9 is_stmt 1
 271              	.LBB12:
  34:src/workers.cpp ****         {
 272              		.loc 1 34 21 is_stmt 0
 273 0194 93060000 		li	a3,0
 274 0198 6FF09FF9 		j	.L20
 275              	.LVL29:
 276              	.L15:
 277              	.LBE12:
 278              	.LBE13:
 279              	.LBE8:
  43:src/workers.cpp **** 
 280              		.loc 1 43 1
 281 019c 83308101 		ld	ra,24(sp)
 282              		.cfi_restore 1
 283 01a0 03340101 		ld	s0,16(sp)
 284              		.cfi_restore 8
 285              		.cfi_def_cfa 2, 32
 286 01a4 83348100 		ld	s1,8(sp)
 287              		.cfi_restore 9
 288              	.LVL30:
 289 01a8 13010102 		addi	sp,sp,32
 290              		.cfi_def_cfa_offset 0
 291 01ac 67800000 		jr	ra
 292              		.cfi_endproc
 293              	.LFE25:
 295              		.section	.rodata.str1.8
 296 0016 0000     		.align	3
 297              	.LC3:
 298 0018 433A2069 		.string	"C: i="
 298      3D00
GAS LISTING /tmp/cc0aGGqD.s 			page 8


 299 001e 0000     		.align	3
 300              	.LC4:
 301 0020 433A2079 		.string	"C: yield\n"
 301      69656C64 
 301      0A00
 302 002a 00000000 		.align	3
 302      0000
 303              	.LC5:
 304 0030 433A2074 		.string	"C: t1="
 304      313D00
 305 0037 00       		.align	3
 306              	.LC6:
 307 0038 433A2066 		.string	"C: fibonaci="
 307      69626F6E 
 307      6163693D 
 307      00
 308              		.text
 309              		.align	2
 310              		.globl	_Z11workerBodyCv
 312              	_Z11workerBodyCv:
 313              	.LFB27:
  51:src/workers.cpp **** 
  52:src/workers.cpp **** void workerBodyC()
  53:src/workers.cpp **** {
 314              		.loc 1 53 1 is_stmt 1
 315              		.cfi_startproc
 316 01b0 130101FE 		addi	sp,sp,-32
 317              		.cfi_def_cfa_offset 32
 318 01b4 233C1100 		sd	ra,24(sp)
 319 01b8 23388100 		sd	s0,16(sp)
 320 01bc 23349100 		sd	s1,8(sp)
 321 01c0 23302101 		sd	s2,0(sp)
 322              		.cfi_offset 1, -8
 323              		.cfi_offset 8, -16
 324              		.cfi_offset 9, -24
 325              		.cfi_offset 18, -32
 326 01c4 13040102 		addi	s0,sp,32
 327              		.cfi_def_cfa 8, 0
  54:src/workers.cpp ****     uint8 i = 0;
 328              		.loc 1 54 5
 329              	.LVL31:
 330              		.loc 1 54 11 is_stmt 0
 331 01c8 93040000 		li	s1,0
 332 01cc 6F000004 		j	.L25
 333              	.LVL32:
 334              	.L29:
  55:src/workers.cpp ****     for (; i < 3; i++)
  56:src/workers.cpp ****     {
  57:src/workers.cpp ****         printString("C: i=");
 335              		.loc 1 57 9 is_stmt 1 discriminator 1
 336              		.loc 1 57 20 is_stmt 0 discriminator 1
 337 01d0 17050000 		lla	a0,.LC3
 337      13050500 
 338 01d8 97000000 		call	_Z11printStringPKc@plt
 338      E7800000 
 339              	.LVL33:
  58:src/workers.cpp ****         printInt(i);
GAS LISTING /tmp/cc0aGGqD.s 			page 9


 340              		.loc 1 58 9 is_stmt 1 discriminator 1
 341              		.loc 1 58 17 is_stmt 0 discriminator 1
 342 01e0 13060000 		li	a2,0
 343 01e4 9305A000 		li	a1,10
 344 01e8 13850400 		mv	a0,s1
 345 01ec 97000000 		call	_Z8printIntiii@plt
 345      E7800000 
 346              	.LVL34:
  59:src/workers.cpp ****         printString("\n");
 347              		.loc 1 59 9 is_stmt 1 discriminator 1
 348              		.loc 1 59 20 is_stmt 0 discriminator 1
 349 01f4 17050000 		lla	a0,.LC1
 349      13050500 
 350 01fc 97000000 		call	_Z11printStringPKc@plt
 350      E7800000 
 351              	.LVL35:
  55:src/workers.cpp ****     for (; i < 3; i++)
 352              		.loc 1 55 5 is_stmt 1 discriminator 1
 353 0204 9B841400 		addiw	s1,s1,1
 354              	.LVL36:
 355 0208 93F4F40F 		andi	s1,s1,0xff
 356              	.LVL37:
 357              	.L25:
  55:src/workers.cpp ****     for (; i < 3; i++)
 358              		.loc 1 55 5 discriminator 2
  55:src/workers.cpp ****     for (; i < 3; i++)
 359              		.loc 1 55 14 discriminator 2
 360 020c 93072000 		li	a5,2
 361 0210 E3F097FC 		bleu	s1,a5,.L29
  60:src/workers.cpp ****     }
  61:src/workers.cpp **** 
  62:src/workers.cpp ****     printString("C: yield\n");
 362              		.loc 1 62 5
 363              		.loc 1 62 16 is_stmt 0
 364 0214 17050000 		lla	a0,.LC4
 364      13050500 
 365 021c 97000000 		call	_Z11printStringPKc@plt
 365      E7800000 
 366              	.LVL38:
  63:src/workers.cpp ****     __asm__ ("li t1, 7");
 367              		.loc 1 63 5 is_stmt 1
 368              		.loc 1 63 25 is_stmt 0
 369              	#APP
 370              	# 63 "src/workers.cpp" 1
  64              	    TCB::yield();
 371              		li t1, 7
 372              	# 0 "" 2
 373              		.loc 1 64 5 is_stmt 1
 374              		.loc 1 64 15 is_stmt 0
 375              	#NO_APP
 376 0228 97000000 		call	_ZN3TCB5yieldEv@plt
 376      E7800000 
 377              	.LVL39:
  65:src/workers.cpp **** 
  66:src/workers.cpp ****     uint64 t1 = 0;
 378              		.loc 1 66 5 is_stmt 1
  67:src/workers.cpp ****     __asm__ ("mv %[t1], t1" : [t1] "=r"(t1));
GAS LISTING /tmp/cc0aGGqD.s 			page 10


 379              		.loc 1 67 5
 380              		.loc 1 67 45 is_stmt 0
 381              	#APP
 382              	# 67 "src/workers.cpp" 1
  68              	
 383              		mv s2, t1
 384              	# 0 "" 2
 385              	.LVL40:
  69:src/workers.cpp ****     printString("C: t1=");
 386              		.loc 1 69 5 is_stmt 1
 387              		.loc 1 69 16 is_stmt 0
 388              	#NO_APP
 389 0234 17050000 		lla	a0,.LC5
 389      13050500 
 390 023c 97000000 		call	_Z11printStringPKc@plt
 390      E7800000 
 391              	.LVL41:
  70:src/workers.cpp ****     printInt(t1);
 392              		.loc 1 70 5 is_stmt 1
 393              		.loc 1 70 13 is_stmt 0
 394 0244 13060000 		li	a2,0
 395 0248 9305A000 		li	a1,10
 396 024c 1B050900 		sext.w	a0,s2
 397 0250 97000000 		call	_Z8printIntiii@plt
 397      E7800000 
 398              	.LVL42:
  71:src/workers.cpp ****     printString("\n");
 399              		.loc 1 71 5 is_stmt 1
 400              		.loc 1 71 16 is_stmt 0
 401 0258 17050000 		lla	a0,.LC1
 401      13050500 
 402 0260 97000000 		call	_Z11printStringPKc@plt
 402      E7800000 
 403              	.LVL43:
  72:src/workers.cpp **** 
  73:src/workers.cpp ****     uint64 result = fibonacci(12);
 404              		.loc 1 73 5 is_stmt 1
 405              		.loc 1 73 30 is_stmt 0
 406 0268 1305C000 		li	a0,12
 407 026c 97000000 		call	_ZL9fibonaccim
 407      E7800000 
 408              	.LVL44:
 409 0274 13090500 		mv	s2,a0
 410              	.LVL45:
  74:src/workers.cpp ****     printString("C: fibonaci=");
 411              		.loc 1 74 5 is_stmt 1
 412              		.loc 1 74 16 is_stmt 0
 413 0278 17050000 		lla	a0,.LC6
 413      13050500 
 414              	.LVL46:
 415 0280 97000000 		call	_Z11printStringPKc@plt
 415      E7800000 
 416              	.LVL47:
  75:src/workers.cpp ****     printInt(result);
 417              		.loc 1 75 5 is_stmt 1
 418              		.loc 1 75 13 is_stmt 0
 419 0288 13060000 		li	a2,0
GAS LISTING /tmp/cc0aGGqD.s 			page 11


 420 028c 9305A000 		li	a1,10
 421 0290 1B050900 		sext.w	a0,s2
 422 0294 97000000 		call	_Z8printIntiii@plt
 422      E7800000 
 423              	.LVL48:
  76:src/workers.cpp ****     printString("\n");
 424              		.loc 1 76 5 is_stmt 1
 425              		.loc 1 76 16 is_stmt 0
 426 029c 17050000 		lla	a0,.LC1
 426      13050500 
 427 02a4 97000000 		call	_Z11printStringPKc@plt
 427      E7800000 
 428              	.LVL49:
 429 02ac 6F000004 		j	.L27
 430              	.L30:
  77:src/workers.cpp **** 
  78:src/workers.cpp ****     for (; i < 6; i++)
  79:src/workers.cpp ****     {
  80:src/workers.cpp ****         printString("C: i=");
 431              		.loc 1 80 9 is_stmt 1 discriminator 1
 432              		.loc 1 80 20 is_stmt 0 discriminator 1
 433 02b0 17050000 		lla	a0,.LC3
 433      13050500 
 434 02b8 97000000 		call	_Z11printStringPKc@plt
 434      E7800000 
 435              	.LVL50:
  81:src/workers.cpp ****         printInt(i);
 436              		.loc 1 81 9 is_stmt 1 discriminator 1
 437              		.loc 1 81 17 is_stmt 0 discriminator 1
 438 02c0 13060000 		li	a2,0
 439 02c4 9305A000 		li	a1,10
 440 02c8 13850400 		mv	a0,s1
 441 02cc 97000000 		call	_Z8printIntiii@plt
 441      E7800000 
 442              	.LVL51:
  82:src/workers.cpp ****         printString("\n");
 443              		.loc 1 82 9 is_stmt 1 discriminator 1
 444              		.loc 1 82 20 is_stmt 0 discriminator 1
 445 02d4 17050000 		lla	a0,.LC1
 445      13050500 
 446 02dc 97000000 		call	_Z11printStringPKc@plt
 446      E7800000 
 447              	.LVL52:
  78:src/workers.cpp ****     {
 448              		.loc 1 78 5 is_stmt 1 discriminator 1
 449 02e4 9B841400 		addiw	s1,s1,1
 450              	.LVL53:
 451 02e8 93F4F40F 		andi	s1,s1,0xff
 452              	.LVL54:
 453              	.L27:
  78:src/workers.cpp ****     {
 454              		.loc 1 78 5 discriminator 2
  78:src/workers.cpp ****     {
 455              		.loc 1 78 14 discriminator 2
 456 02ec 93075000 		li	a5,5
 457 02f0 E3F097FC 		bleu	s1,a5,.L30
  83:src/workers.cpp ****     }
GAS LISTING /tmp/cc0aGGqD.s 			page 12


  84:src/workers.cpp ****     //TCB::running->setFinished(true);
  85:src/workers.cpp ****     //TCB::yield();
  86:src/workers.cpp **** }
 458              		.loc 1 86 1 is_stmt 0
 459 02f4 83308101 		ld	ra,24(sp)
 460              		.cfi_restore 1
 461 02f8 03340101 		ld	s0,16(sp)
 462              		.cfi_restore 8
 463              		.cfi_def_cfa 2, 32
 464 02fc 83348100 		ld	s1,8(sp)
 465              		.cfi_restore 9
 466              	.LVL55:
 467 0300 03390100 		ld	s2,0(sp)
 468              		.cfi_restore 18
 469              	.LVL56:
 470 0304 13010102 		addi	sp,sp,32
 471              		.cfi_def_cfa_offset 0
 472 0308 67800000 		jr	ra
 473              		.cfi_endproc
 474              	.LFE27:
 476              		.section	.rodata.str1.8
 477 0045 000000   		.align	3
 478              	.LC7:
 479 0048 443A2069 		.string	"D: i="
 479      3D00
 480 004e 0000     		.align	3
 481              	.LC8:
 482 0050 443A2079 		.string	"D: yield\n"
 482      69656C64 
 482      0A00
 483 005a 00000000 		.align	3
 483      0000
 484              	.LC9:
 485 0060 443A2066 		.string	"D: fibonaci="
 485      69626F6E 
 485      6163693D 
 485      00
 486              		.text
 487              		.align	2
 488              		.globl	_Z11workerBodyDv
 490              	_Z11workerBodyDv:
 491              	.LFB28:
  87:src/workers.cpp **** 
  88:src/workers.cpp **** void workerBodyD()
  89:src/workers.cpp **** {
 492              		.loc 1 89 1 is_stmt 1
 493              		.cfi_startproc
 494 030c 130101FE 		addi	sp,sp,-32
 495              		.cfi_def_cfa_offset 32
 496 0310 233C1100 		sd	ra,24(sp)
 497 0314 23388100 		sd	s0,16(sp)
 498 0318 23349100 		sd	s1,8(sp)
 499 031c 23302101 		sd	s2,0(sp)
 500              		.cfi_offset 1, -8
 501              		.cfi_offset 8, -16
 502              		.cfi_offset 9, -24
 503              		.cfi_offset 18, -32
GAS LISTING /tmp/cc0aGGqD.s 			page 13


 504 0320 13040102 		addi	s0,sp,32
 505              		.cfi_def_cfa 8, 0
  90:src/workers.cpp ****     uint8 i = 10;
 506              		.loc 1 90 5
 507              	.LVL57:
 508              		.loc 1 90 11 is_stmt 0
 509 0324 9304A000 		li	s1,10
 510 0328 6F000004 		j	.L33
 511              	.LVL58:
 512              	.L37:
  91:src/workers.cpp ****     for (; i < 13; i++)
  92:src/workers.cpp ****     {
  93:src/workers.cpp ****         printString("D: i=");
 513              		.loc 1 93 9 is_stmt 1 discriminator 1
 514              		.loc 1 93 20 is_stmt 0 discriminator 1
 515 032c 17050000 		lla	a0,.LC7
 515      13050500 
 516 0334 97000000 		call	_Z11printStringPKc@plt
 516      E7800000 
 517              	.LVL59:
  94:src/workers.cpp ****         printInt(i);
 518              		.loc 1 94 9 is_stmt 1 discriminator 1
 519              		.loc 1 94 17 is_stmt 0 discriminator 1
 520 033c 13060000 		li	a2,0
 521 0340 9305A000 		li	a1,10
 522 0344 13850400 		mv	a0,s1
 523 0348 97000000 		call	_Z8printIntiii@plt
 523      E7800000 
 524              	.LVL60:
  95:src/workers.cpp ****         printString("\n");
 525              		.loc 1 95 9 is_stmt 1 discriminator 1
 526              		.loc 1 95 20 is_stmt 0 discriminator 1
 527 0350 17050000 		lla	a0,.LC1
 527      13050500 
 528 0358 97000000 		call	_Z11printStringPKc@plt
 528      E7800000 
 529              	.LVL61:
  91:src/workers.cpp ****     for (; i < 13; i++)
 530              		.loc 1 91 5 is_stmt 1 discriminator 1
 531 0360 9B841400 		addiw	s1,s1,1
 532              	.LVL62:
 533 0364 93F4F40F 		andi	s1,s1,0xff
 534              	.LVL63:
 535              	.L33:
  91:src/workers.cpp ****     for (; i < 13; i++)
 536              		.loc 1 91 5 discriminator 2
  91:src/workers.cpp ****     for (; i < 13; i++)
 537              		.loc 1 91 14 discriminator 2
 538 0368 9307C000 		li	a5,12
 539 036c E3F097FC 		bleu	s1,a5,.L37
  96:src/workers.cpp ****     }
  97:src/workers.cpp **** 
  98:src/workers.cpp ****     printString("D: yield\n");
 540              		.loc 1 98 5
 541              		.loc 1 98 16 is_stmt 0
 542 0370 17050000 		lla	a0,.LC8
 542      13050500 
GAS LISTING /tmp/cc0aGGqD.s 			page 14


 543 0378 97000000 		call	_Z11printStringPKc@plt
 543      E7800000 
 544              	.LVL64:
  99:src/workers.cpp ****     __asm__ ("li t1, 5");
 545              		.loc 1 99 5 is_stmt 1
 546              		.loc 1 99 25 is_stmt 0
 547              	#APP
 548              	# 99 "src/workers.cpp" 1
 100              	    TCB::yield();
 549              		li t1, 5
 550              	# 0 "" 2
 551              		.loc 1 100 5 is_stmt 1
 552              		.loc 1 100 15 is_stmt 0
 553              	#NO_APP
 554 0384 97000000 		call	_ZN3TCB5yieldEv@plt
 554      E7800000 
 555              	.LVL65:
 101:src/workers.cpp **** 
 102:src/workers.cpp ****     uint64 result = fibonacci(23);
 556              		.loc 1 102 5 is_stmt 1
 557              		.loc 1 102 30 is_stmt 0
 558 038c 13057001 		li	a0,23
 559 0390 97000000 		call	_ZL9fibonaccim
 559      E7800000 
 560              	.LVL66:
 561 0398 13090500 		mv	s2,a0
 562              	.LVL67:
 103:src/workers.cpp ****     printString("D: fibonaci=");
 563              		.loc 1 103 5 is_stmt 1
 564              		.loc 1 103 16 is_stmt 0
 565 039c 17050000 		lla	a0,.LC9
 565      13050500 
 566              	.LVL68:
 567 03a4 97000000 		call	_Z11printStringPKc@plt
 567      E7800000 
 568              	.LVL69:
 104:src/workers.cpp ****     printInt(result);
 569              		.loc 1 104 5 is_stmt 1
 570              		.loc 1 104 13 is_stmt 0
 571 03ac 13060000 		li	a2,0
 572 03b0 9305A000 		li	a1,10
 573 03b4 1B050900 		sext.w	a0,s2
 574 03b8 97000000 		call	_Z8printIntiii@plt
 574      E7800000 
 575              	.LVL70:
 105:src/workers.cpp ****     printString("\n");
 576              		.loc 1 105 5 is_stmt 1
 577              		.loc 1 105 16 is_stmt 0
 578 03c0 17050000 		lla	a0,.LC1
 578      13050500 
 579 03c8 97000000 		call	_Z11printStringPKc@plt
 579      E7800000 
 580              	.LVL71:
 581 03d0 6F000004 		j	.L35
 582              	.L38:
 106:src/workers.cpp **** 
 107:src/workers.cpp ****     for (; i < 16; i++)
GAS LISTING /tmp/cc0aGGqD.s 			page 15


 108:src/workers.cpp ****     {
 109:src/workers.cpp ****         printString("D: i=");
 583              		.loc 1 109 9 is_stmt 1 discriminator 1
 584              		.loc 1 109 20 is_stmt 0 discriminator 1
 585 03d4 17050000 		lla	a0,.LC7
 585      13050500 
 586 03dc 97000000 		call	_Z11printStringPKc@plt
 586      E7800000 
 587              	.LVL72:
 110:src/workers.cpp ****         printInt(i);
 588              		.loc 1 110 9 is_stmt 1 discriminator 1
 589              		.loc 1 110 17 is_stmt 0 discriminator 1
 590 03e4 13060000 		li	a2,0
 591 03e8 9305A000 		li	a1,10
 592 03ec 13850400 		mv	a0,s1
 593 03f0 97000000 		call	_Z8printIntiii@plt
 593      E7800000 
 594              	.LVL73:
 111:src/workers.cpp ****         printString("\n");
 595              		.loc 1 111 9 is_stmt 1 discriminator 1
 596              		.loc 1 111 20 is_stmt 0 discriminator 1
 597 03f8 17050000 		lla	a0,.LC1
 597      13050500 
 598 0400 97000000 		call	_Z11printStringPKc@plt
 598      E7800000 
 599              	.LVL74:
 107:src/workers.cpp ****     {
 600              		.loc 1 107 5 is_stmt 1 discriminator 1
 601 0408 9B841400 		addiw	s1,s1,1
 602              	.LVL75:
 603 040c 93F4F40F 		andi	s1,s1,0xff
 604              	.LVL76:
 605              	.L35:
 107:src/workers.cpp ****     {
 606              		.loc 1 107 5 discriminator 2
 107:src/workers.cpp ****     {
 607              		.loc 1 107 14 discriminator 2
 608 0410 9307F000 		li	a5,15
 609 0414 E3F097FC 		bleu	s1,a5,.L38
 112:src/workers.cpp ****     }
 113:src/workers.cpp ****     // TCB::running->setFinished(true);
 114:src/workers.cpp ****     // TCB::yield();
 115:src/workers.cpp **** }...
 610              		.loc 1 115 1 is_stmt 0
 611 0418 83308101 		ld	ra,24(sp)
 612              		.cfi_restore 1
 613 041c 03340101 		ld	s0,16(sp)
 614              		.cfi_restore 8
 615              		.cfi_def_cfa 2, 32
 616 0420 83348100 		ld	s1,8(sp)
 617              		.cfi_restore 9
 618              	.LVL77:
 619 0424 03390100 		ld	s2,0(sp)
 620              		.cfi_restore 18
 621              	.LVL78:
 622 0428 13010102 		addi	sp,sp,32
 623              		.cfi_def_cfa_offset 0
GAS LISTING /tmp/cc0aGGqD.s 			page 16


 624 042c 67800000 		jr	ra
 625              		.cfi_endproc
 626              	.LFE28:
 628              	.Letext0:
 629              		.file 2 "src/../lib/hw.h"
 630              		.file 3 "src/../h/tcb.hpp"
 631              		.file 4 "src/../h/syscall_c.hpp"
 632              		.file 5 "src/../h/printing.hpp"
GAS LISTING /tmp/cc0aGGqD.s 			page 17


DEFINED SYMBOLS
                            *ABS*:0000000000000000 workers.cpp
     /tmp/cc0aGGqD.s:8      .text:0000000000000000 _ZL9fibonaccim
     /tmp/cc0aGGqD.s:12     .text:0000000000000000 .L0 
     /tmp/cc0aGGqD.s:14     .text:0000000000000000 .L0 
     /tmp/cc0aGGqD.s:15     .text:0000000000000004 .L0 
     /tmp/cc0aGGqD.s:20     .text:0000000000000014 .L0 
     /tmp/cc0aGGqD.s:21     .text:0000000000000014 .L0 
     /tmp/cc0aGGqD.s:22     .text:0000000000000014 .L0 
     /tmp/cc0aGGqD.s:23     .text:0000000000000014 .L0 
     /tmp/cc0aGGqD.s:25     .text:0000000000000018 .L0 
     /tmp/cc0aGGqD.s:28     .text:000000000000001c .L0 
     /tmp/cc0aGGqD.s:31     .text:0000000000000024 .L0 
     /tmp/cc0aGGqD.s:32     .text:0000000000000024 .L0 
     /tmp/cc0aGGqD.s:34     .text:0000000000000028 .L0 
     /tmp/cc0aGGqD.s:38     .text:000000000000002c .L0 
     /tmp/cc0aGGqD.s:39     .text:000000000000002c .L0 
     /tmp/cc0aGGqD.s:44     .text:000000000000003c .L0 
     /tmp/cc0aGGqD.s:48     .text:0000000000000048 .L0 
     /tmp/cc0aGGqD.s:51     .text:000000000000004c .L0 
     /tmp/cc0aGGqD.s:52     .text:0000000000000050 .L0 
     /tmp/cc0aGGqD.s:53     .text:0000000000000050 .L0 
     /tmp/cc0aGGqD.s:55     .text:0000000000000054 .L0 
     /tmp/cc0aGGqD.s:56     .text:0000000000000054 .L0 
     /tmp/cc0aGGqD.s:58     .text:0000000000000058 .L0 
     /tmp/cc0aGGqD.s:61     .text:000000000000005c .L0 
     /tmp/cc0aGGqD.s:63     .text:0000000000000060 .L0 
     /tmp/cc0aGGqD.s:67     .text:0000000000000064 .L0 
     /tmp/cc0aGGqD.s:69     .text:0000000000000064 .L0 
     /tmp/cc0aGGqD.s:70     .text:0000000000000064 .L0 
     /tmp/cc0aGGqD.s:73     .text:0000000000000070 .L0 
     /tmp/cc0aGGqD.s:87     .text:0000000000000070 _Z11workerBodyAv
     /tmp/cc0aGGqD.s:90     .text:0000000000000070 .L0 
     /tmp/cc0aGGqD.s:91     .text:0000000000000070 .L0 
     /tmp/cc0aGGqD.s:92     .text:0000000000000074 .L0 
     /tmp/cc0aGGqD.s:96     .text:0000000000000080 .L0 
     /tmp/cc0aGGqD.s:97     .text:0000000000000080 .L0 
     /tmp/cc0aGGqD.s:98     .text:0000000000000080 .L0 
     /tmp/cc0aGGqD.s:100    .text:0000000000000084 .L0 
     /tmp/cc0aGGqD.s:104    .text:0000000000000084 .L0 
     /tmp/cc0aGGqD.s:105    .text:0000000000000084 .L0 
     /tmp/cc0aGGqD.s:112    .text:000000000000008c .L0 
     /tmp/cc0aGGqD.s:116    .text:0000000000000090 .L0 
     /tmp/cc0aGGqD.s:121    .text:000000000000009c .L0 
     /tmp/cc0aGGqD.s:125    .text:00000000000000a0 .L0 
     /tmp/cc0aGGqD.s:129    .text:00000000000000ac .L0 
     /tmp/cc0aGGqD.s:138    .text:00000000000000b4 .L0 
     /tmp/cc0aGGqD.s:142    .text:00000000000000b8 .L0 
     /tmp/cc0aGGqD.s:146    .text:00000000000000c0 .L0 
     /tmp/cc0aGGqD.s:147    .text:00000000000000c0 .L0 
     /tmp/cc0aGGqD.s:151    .text:00000000000000d0 .L0 
     /tmp/cc0aGGqD.s:152    .text:00000000000000d0 .L0 
     /tmp/cc0aGGqD.s:158    .text:00000000000000e4 .L0 
     /tmp/cc0aGGqD.s:159    .text:00000000000000e4 .L0 
     /tmp/cc0aGGqD.s:164    .text:00000000000000f4 .L0 
     /tmp/cc0aGGqD.s:165    .text:00000000000000f4 .L0 
     /tmp/cc0aGGqD.s:173    .text:00000000000000fc .L0 
GAS LISTING /tmp/cc0aGGqD.s 			page 18


     /tmp/cc0aGGqD.s:174    .text:0000000000000100 .L0 
     /tmp/cc0aGGqD.s:176    .text:0000000000000104 .L0 
     /tmp/cc0aGGqD.s:177    .text:0000000000000104 .L0 
     /tmp/cc0aGGqD.s:179    .text:0000000000000108 .L0 
     /tmp/cc0aGGqD.s:182    .text:000000000000010c .L0 
     /tmp/cc0aGGqD.s:184    .text:0000000000000110 .L0 
     /tmp/cc0aGGqD.s:195    .text:0000000000000110 _Z11workerBodyBv
     /tmp/cc0aGGqD.s:198    .text:0000000000000110 .L0 
     /tmp/cc0aGGqD.s:199    .text:0000000000000110 .L0 
     /tmp/cc0aGGqD.s:200    .text:0000000000000114 .L0 
     /tmp/cc0aGGqD.s:204    .text:0000000000000120 .L0 
     /tmp/cc0aGGqD.s:205    .text:0000000000000120 .L0 
     /tmp/cc0aGGqD.s:206    .text:0000000000000120 .L0 
     /tmp/cc0aGGqD.s:208    .text:0000000000000124 .L0 
     /tmp/cc0aGGqD.s:212    .text:0000000000000124 .L0 
     /tmp/cc0aGGqD.s:213    .text:0000000000000124 .L0 
     /tmp/cc0aGGqD.s:220    .text:000000000000012c .L0 
     /tmp/cc0aGGqD.s:224    .text:0000000000000130 .L0 
     /tmp/cc0aGGqD.s:229    .text:000000000000013c .L0 
     /tmp/cc0aGGqD.s:233    .text:0000000000000140 .L0 
     /tmp/cc0aGGqD.s:237    .text:000000000000014c .L0 
     /tmp/cc0aGGqD.s:246    .text:0000000000000154 .L0 
     /tmp/cc0aGGqD.s:250    .text:0000000000000158 .L0 
     /tmp/cc0aGGqD.s:254    .text:0000000000000160 .L0 
     /tmp/cc0aGGqD.s:255    .text:0000000000000160 .L0 
     /tmp/cc0aGGqD.s:259    .text:0000000000000170 .L0 
     /tmp/cc0aGGqD.s:260    .text:0000000000000170 .L0 
     /tmp/cc0aGGqD.s:266    .text:0000000000000184 .L0 
     /tmp/cc0aGGqD.s:267    .text:0000000000000184 .L0 
     /tmp/cc0aGGqD.s:272    .text:0000000000000194 .L0 
     /tmp/cc0aGGqD.s:273    .text:0000000000000194 .L0 
     /tmp/cc0aGGqD.s:281    .text:000000000000019c .L0 
     /tmp/cc0aGGqD.s:282    .text:00000000000001a0 .L0 
     /tmp/cc0aGGqD.s:284    .text:00000000000001a4 .L0 
     /tmp/cc0aGGqD.s:285    .text:00000000000001a4 .L0 
     /tmp/cc0aGGqD.s:287    .text:00000000000001a8 .L0 
     /tmp/cc0aGGqD.s:290    .text:00000000000001ac .L0 
     /tmp/cc0aGGqD.s:292    .text:00000000000001b0 .L0 
     /tmp/cc0aGGqD.s:312    .text:00000000000001b0 _Z11workerBodyCv
     /tmp/cc0aGGqD.s:315    .text:00000000000001b0 .L0 
     /tmp/cc0aGGqD.s:316    .text:00000000000001b0 .L0 
     /tmp/cc0aGGqD.s:317    .text:00000000000001b4 .L0 
     /tmp/cc0aGGqD.s:322    .text:00000000000001c4 .L0 
     /tmp/cc0aGGqD.s:323    .text:00000000000001c4 .L0 
     /tmp/cc0aGGqD.s:324    .text:00000000000001c4 .L0 
     /tmp/cc0aGGqD.s:325    .text:00000000000001c4 .L0 
     /tmp/cc0aGGqD.s:327    .text:00000000000001c8 .L0 
     /tmp/cc0aGGqD.s:330    .text:00000000000001c8 .L0 
     /tmp/cc0aGGqD.s:331    .text:00000000000001c8 .L0 
     /tmp/cc0aGGqD.s:336    .text:00000000000001d0 .L0 
     /tmp/cc0aGGqD.s:337    .text:00000000000001d0 .L0 
     /tmp/cc0aGGqD.s:341    .text:00000000000001e0 .L0 
     /tmp/cc0aGGqD.s:342    .text:00000000000001e0 .L0 
     /tmp/cc0aGGqD.s:348    .text:00000000000001f4 .L0 
     /tmp/cc0aGGqD.s:349    .text:00000000000001f4 .L0 
     /tmp/cc0aGGqD.s:353    .text:0000000000000204 .L0 
     /tmp/cc0aGGqD.s:359    .text:000000000000020c .L0 
GAS LISTING /tmp/cc0aGGqD.s 			page 19


     /tmp/cc0aGGqD.s:360    .text:000000000000020c .L0 
     /tmp/cc0aGGqD.s:363    .text:0000000000000214 .L0 
     /tmp/cc0aGGqD.s:364    .text:0000000000000214 .L0 
     /tmp/cc0aGGqD.s:368    .text:0000000000000224 .L0 
     src/workers.cpp:63     .text:0000000000000224 .L0 
     /tmp/cc0aGGqD.s:374    .text:0000000000000228 .L0 
     /tmp/cc0aGGqD.s:376    .text:0000000000000228 .L0 
     /tmp/cc0aGGqD.s:379    .text:0000000000000230 .L0 
     /tmp/cc0aGGqD.s:380    .text:0000000000000230 .L0 
     src/workers.cpp:67     .text:0000000000000230 .L0 
     /tmp/cc0aGGqD.s:387    .text:0000000000000234 .L0 
     /tmp/cc0aGGqD.s:389    .text:0000000000000234 .L0 
     /tmp/cc0aGGqD.s:393    .text:0000000000000244 .L0 
     /tmp/cc0aGGqD.s:394    .text:0000000000000244 .L0 
     /tmp/cc0aGGqD.s:400    .text:0000000000000258 .L0 
     /tmp/cc0aGGqD.s:401    .text:0000000000000258 .L0 
     /tmp/cc0aGGqD.s:405    .text:0000000000000268 .L0 
     /tmp/cc0aGGqD.s:406    .text:0000000000000268 .L0 
     /tmp/cc0aGGqD.s:412    .text:0000000000000278 .L0 
     /tmp/cc0aGGqD.s:413    .text:0000000000000278 .L0 
     /tmp/cc0aGGqD.s:418    .text:0000000000000288 .L0 
     /tmp/cc0aGGqD.s:419    .text:0000000000000288 .L0 
     /tmp/cc0aGGqD.s:425    .text:000000000000029c .L0 
     /tmp/cc0aGGqD.s:426    .text:000000000000029c .L0 
     /tmp/cc0aGGqD.s:432    .text:00000000000002b0 .L0 
     /tmp/cc0aGGqD.s:433    .text:00000000000002b0 .L0 
     /tmp/cc0aGGqD.s:437    .text:00000000000002c0 .L0 
     /tmp/cc0aGGqD.s:438    .text:00000000000002c0 .L0 
     /tmp/cc0aGGqD.s:444    .text:00000000000002d4 .L0 
     /tmp/cc0aGGqD.s:445    .text:00000000000002d4 .L0 
     /tmp/cc0aGGqD.s:449    .text:00000000000002e4 .L0 
     /tmp/cc0aGGqD.s:455    .text:00000000000002ec .L0 
     /tmp/cc0aGGqD.s:456    .text:00000000000002ec .L0 
     /tmp/cc0aGGqD.s:459    .text:00000000000002f4 .L0 
     /tmp/cc0aGGqD.s:460    .text:00000000000002f8 .L0 
     /tmp/cc0aGGqD.s:462    .text:00000000000002fc .L0 
     /tmp/cc0aGGqD.s:463    .text:00000000000002fc .L0 
     /tmp/cc0aGGqD.s:465    .text:0000000000000300 .L0 
     /tmp/cc0aGGqD.s:468    .text:0000000000000304 .L0 
     /tmp/cc0aGGqD.s:471    .text:0000000000000308 .L0 
     /tmp/cc0aGGqD.s:473    .text:000000000000030c .L0 
     /tmp/cc0aGGqD.s:490    .text:000000000000030c _Z11workerBodyDv
     /tmp/cc0aGGqD.s:493    .text:000000000000030c .L0 
     /tmp/cc0aGGqD.s:494    .text:000000000000030c .L0 
     /tmp/cc0aGGqD.s:495    .text:0000000000000310 .L0 
     /tmp/cc0aGGqD.s:500    .text:0000000000000320 .L0 
     /tmp/cc0aGGqD.s:501    .text:0000000000000320 .L0 
     /tmp/cc0aGGqD.s:502    .text:0000000000000320 .L0 
     /tmp/cc0aGGqD.s:503    .text:0000000000000320 .L0 
     /tmp/cc0aGGqD.s:505    .text:0000000000000324 .L0 
     /tmp/cc0aGGqD.s:508    .text:0000000000000324 .L0 
     /tmp/cc0aGGqD.s:509    .text:0000000000000324 .L0 
     /tmp/cc0aGGqD.s:514    .text:000000000000032c .L0 
     /tmp/cc0aGGqD.s:515    .text:000000000000032c .L0 
     /tmp/cc0aGGqD.s:519    .text:000000000000033c .L0 
     /tmp/cc0aGGqD.s:520    .text:000000000000033c .L0 
     /tmp/cc0aGGqD.s:526    .text:0000000000000350 .L0 
GAS LISTING /tmp/cc0aGGqD.s 			page 20


     /tmp/cc0aGGqD.s:527    .text:0000000000000350 .L0 
     /tmp/cc0aGGqD.s:531    .text:0000000000000360 .L0 
     /tmp/cc0aGGqD.s:537    .text:0000000000000368 .L0 
     /tmp/cc0aGGqD.s:538    .text:0000000000000368 .L0 
     /tmp/cc0aGGqD.s:541    .text:0000000000000370 .L0 
     /tmp/cc0aGGqD.s:542    .text:0000000000000370 .L0 
     /tmp/cc0aGGqD.s:546    .text:0000000000000380 .L0 
     src/workers.cpp:99     .text:0000000000000380 .L0 
     /tmp/cc0aGGqD.s:552    .text:0000000000000384 .L0 
     /tmp/cc0aGGqD.s:554    .text:0000000000000384 .L0 
     /tmp/cc0aGGqD.s:557    .text:000000000000038c .L0 
     /tmp/cc0aGGqD.s:558    .text:000000000000038c .L0 
     /tmp/cc0aGGqD.s:564    .text:000000000000039c .L0 
     /tmp/cc0aGGqD.s:565    .text:000000000000039c .L0 
     /tmp/cc0aGGqD.s:570    .text:00000000000003ac .L0 
     /tmp/cc0aGGqD.s:571    .text:00000000000003ac .L0 
     /tmp/cc0aGGqD.s:577    .text:00000000000003c0 .L0 
     /tmp/cc0aGGqD.s:578    .text:00000000000003c0 .L0 
     /tmp/cc0aGGqD.s:584    .text:00000000000003d4 .L0 
     /tmp/cc0aGGqD.s:585    .text:00000000000003d4 .L0 
     /tmp/cc0aGGqD.s:589    .text:00000000000003e4 .L0 
     /tmp/cc0aGGqD.s:590    .text:00000000000003e4 .L0 
     /tmp/cc0aGGqD.s:596    .text:00000000000003f8 .L0 
     /tmp/cc0aGGqD.s:597    .text:00000000000003f8 .L0 
     /tmp/cc0aGGqD.s:601    .text:0000000000000408 .L0 
     /tmp/cc0aGGqD.s:607    .text:0000000000000410 .L0 
     /tmp/cc0aGGqD.s:608    .text:0000000000000410 .L0 
     /tmp/cc0aGGqD.s:611    .text:0000000000000418 .L0 
     /tmp/cc0aGGqD.s:612    .text:000000000000041c .L0 
     /tmp/cc0aGGqD.s:614    .text:0000000000000420 .L0 
     /tmp/cc0aGGqD.s:615    .text:0000000000000420 .L0 
     /tmp/cc0aGGqD.s:617    .text:0000000000000424 .L0 
     /tmp/cc0aGGqD.s:620    .text:0000000000000428 .L0 
     /tmp/cc0aGGqD.s:623    .text:000000000000042c .L0 
     /tmp/cc0aGGqD.s:625    .text:0000000000000430 .L0 
     /tmp/cc0aGGqD.s:633    .text:0000000000000430 .L0 
     /tmp/cc0aGGqD.s:78     .rodata.str1.8:0000000000000000 .LC0
     /tmp/cc0aGGqD.s:147    .text:00000000000000c0 .L0 
     /tmp/cc0aGGqD.s:81     .rodata.str1.8:0000000000000008 .LC1
     /tmp/cc0aGGqD.s:159    .text:00000000000000e4 .L0 
     /tmp/cc0aGGqD.s:189    .rodata.str1.8:0000000000000010 .LC2
     /tmp/cc0aGGqD.s:255    .text:0000000000000160 .L0 
     /tmp/cc0aGGqD.s:267    .text:0000000000000184 .L0 
     /tmp/cc0aGGqD.s:297    .rodata.str1.8:0000000000000018 .LC3
     /tmp/cc0aGGqD.s:337    .text:00000000000001d0 .L0 
     /tmp/cc0aGGqD.s:349    .text:00000000000001f4 .L0 
     /tmp/cc0aGGqD.s:300    .rodata.str1.8:0000000000000020 .LC4
     /tmp/cc0aGGqD.s:364    .text:0000000000000214 .L0 
     /tmp/cc0aGGqD.s:303    .rodata.str1.8:0000000000000030 .LC5
     /tmp/cc0aGGqD.s:389    .text:0000000000000234 .L0 
     /tmp/cc0aGGqD.s:401    .text:0000000000000258 .L0 
     /tmp/cc0aGGqD.s:306    .rodata.str1.8:0000000000000038 .LC6
     /tmp/cc0aGGqD.s:413    .text:0000000000000278 .L0 
     /tmp/cc0aGGqD.s:426    .text:000000000000029c .L0 
     /tmp/cc0aGGqD.s:433    .text:00000000000002b0 .L0 
     /tmp/cc0aGGqD.s:445    .text:00000000000002d4 .L0 
     /tmp/cc0aGGqD.s:478    .rodata.str1.8:0000000000000048 .LC7
GAS LISTING /tmp/cc0aGGqD.s 			page 21


     /tmp/cc0aGGqD.s:515    .text:000000000000032c .L0 
     /tmp/cc0aGGqD.s:527    .text:0000000000000350 .L0 
     /tmp/cc0aGGqD.s:481    .rodata.str1.8:0000000000000050 .LC8
     /tmp/cc0aGGqD.s:542    .text:0000000000000370 .L0 
     /tmp/cc0aGGqD.s:484    .rodata.str1.8:0000000000000060 .LC9
     /tmp/cc0aGGqD.s:565    .text:000000000000039c .L0 
     /tmp/cc0aGGqD.s:578    .text:00000000000003c0 .L0 
     /tmp/cc0aGGqD.s:585    .text:00000000000003d4 .L0 
     /tmp/cc0aGGqD.s:597    .text:00000000000003f8 .L0 
     /tmp/cc0aGGqD.s:49     .text:000000000000004c .L1
     /tmp/cc0aGGqD.s:66     .text:0000000000000064 .L6
     /tmp/cc0aGGqD.s:36     .text:000000000000002c .L3
     /tmp/cc0aGGqD.s:140    .text:00000000000000b8 .L13
     /tmp/cc0aGGqD.s:133    .text:00000000000000b4 .L9
     /tmp/cc0aGGqD.s:108    .text:000000000000008c .L10
     /tmp/cc0aGGqD.s:122    .text:00000000000000a0 .L11
     /tmp/cc0aGGqD.s:168    .text:00000000000000fc .L7
     /tmp/cc0aGGqD.s:114    .text:0000000000000090 .L12
     /tmp/cc0aGGqD.s:248    .text:0000000000000158 .L21
     /tmp/cc0aGGqD.s:241    .text:0000000000000154 .L17
     /tmp/cc0aGGqD.s:216    .text:000000000000012c .L18
     /tmp/cc0aGGqD.s:230    .text:0000000000000140 .L19
     /tmp/cc0aGGqD.s:276    .text:000000000000019c .L15
     /tmp/cc0aGGqD.s:222    .text:0000000000000130 .L20
     /tmp/cc0aGGqD.s:357    .text:000000000000020c .L25
     /tmp/cc0aGGqD.s:334    .text:00000000000001d0 .L29
     /tmp/cc0aGGqD.s:453    .text:00000000000002ec .L27
     /tmp/cc0aGGqD.s:430    .text:00000000000002b0 .L30
     /tmp/cc0aGGqD.s:535    .text:0000000000000368 .L33
     /tmp/cc0aGGqD.s:512    .text:000000000000032c .L37
     /tmp/cc0aGGqD.s:605    .text:0000000000000410 .L35
     /tmp/cc0aGGqD.s:582    .text:00000000000003d4 .L38
     /tmp/cc0aGGqD.s:1629   .debug_abbrev:0000000000000000 .Ldebug_abbrev0
     /tmp/cc0aGGqD.s:2572   .debug_str:0000000000000338 .LASF51
     /tmp/cc0aGGqD.s:2484   .debug_str:00000000000000bf .LASF52
     /tmp/cc0aGGqD.s:2476   .debug_str:0000000000000079 .LASF53
     /tmp/cc0aGGqD.s:5      .text:0000000000000000 .Ltext0
     /tmp/cc0aGGqD.s:628    .text:0000000000000430 .Letext0
     /tmp/cc0aGGqD.s:2456   .debug_line:0000000000000000 .Ldebug_line0
     /tmp/cc0aGGqD.s:2536   .debug_str:0000000000000240 .LASF0
     /tmp/cc0aGGqD.s:2544   .debug_str:000000000000026d .LASF1
     /tmp/cc0aGGqD.s:2526   .debug_str:00000000000001f7 .LASF2
     /tmp/cc0aGGqD.s:2488   .debug_str:00000000000000e5 .LASF3
     /tmp/cc0aGGqD.s:2510   .debug_str:0000000000000196 .LASF4
     /tmp/cc0aGGqD.s:2566   .debug_str:0000000000000304 .LASF5
     /tmp/cc0aGGqD.s:2478   .debug_str:000000000000009c .LASF6
     /tmp/cc0aGGqD.s:2548   .debug_str:000000000000028f .LASF7
     /tmp/cc0aGGqD.s:2534   .debug_str:000000000000022d .LASF8
     /tmp/cc0aGGqD.s:2578   .debug_str:000000000000041c .LASF9
     /tmp/cc0aGGqD.s:2500   .debug_str:000000000000012b .LASF10
     /tmp/cc0aGGqD.s:2552   .debug_str:00000000000002ad .LASF11
     /tmp/cc0aGGqD.s:2574   .debug_str:00000000000003fc .LASF12
     /tmp/cc0aGGqD.s:2480   .debug_str:00000000000000a3 .LASF13
     /tmp/cc0aGGqD.s:2464   .debug_str:000000000000001f .LASF14
     /tmp/cc0aGGqD.s:2482   .debug_str:00000000000000b3 .LASF15
     /tmp/cc0aGGqD.s:2560   .debug_str:00000000000002d8 .LASF16
     /tmp/cc0aGGqD.s:2486   .debug_str:00000000000000cf .LASF17
GAS LISTING /tmp/cc0aGGqD.s 			page 22


     /tmp/cc0aGGqD.s:2468   .debug_str:000000000000003b .LASF54
     /tmp/cc0aGGqD.s:2504   .debug_str:0000000000000152 .LASF18
     /tmp/cc0aGGqD.s:2556   .debug_str:00000000000002c7 .LASF20
     /tmp/cc0aGGqD.s:2550   .debug_str:00000000000002a2 .LASF22
     /tmp/cc0aGGqD.s:2498   .debug_str:0000000000000114 .LASF24
     /tmp/cc0aGGqD.s:2528   .debug_str:0000000000000205 .LASF19
     /tmp/cc0aGGqD.s:2506   .debug_str:0000000000000157 .LASF21
     /tmp/cc0aGGqD.s:2522   .debug_str:00000000000001dc .LASF23
     /tmp/cc0aGGqD.s:2474   .debug_str:0000000000000060 .LASF25
     /tmp/cc0aGGqD.s:2518   .debug_str:00000000000001b3 .LASF26
     /tmp/cc0aGGqD.s:2520   .debug_str:00000000000001c0 .LASF27
     /tmp/cc0aGGqD.s:2558   .debug_str:00000000000002d3 .LASF55
     /tmp/cc0aGGqD.s:2562   .debug_str:00000000000002ee .LASF56
     /tmp/cc0aGGqD.s:2530   .debug_str:0000000000000211 .LASF57
     /tmp/cc0aGGqD.s:2490   .debug_str:00000000000000eb .LASF58
     /tmp/cc0aGGqD.s:2564   .debug_str:00000000000002f4 .LASF59
     /tmp/cc0aGGqD.s:2514   .debug_str:00000000000001a6 .LASF28
     /tmp/cc0aGGqD.s:2540   .debug_str:0000000000000256 .LASF29
     /tmp/cc0aGGqD.s:2516   .debug_str:00000000000001ab .LASF30
     /tmp/cc0aGGqD.s:2554   .debug_str:00000000000002bc .LASF31
     /tmp/cc0aGGqD.s:2512   .debug_str:000000000000019d .LASF32
     /tmp/cc0aGGqD.s:2524   .debug_str:00000000000001e9 .LASF33
     /tmp/cc0aGGqD.s:2502   .debug_str:0000000000000139 .LASF35
     /tmp/cc0aGGqD.s:2582   .debug_str:0000000000000436 .LASF60
     /tmp/cc0aGGqD.s:2508   .debug_str:000000000000016e .LASF61
     /tmp/cc0aGGqD.s:2538   .debug_str:000000000000024d .LASF34
     /tmp/cc0aGGqD.s:2492   .debug_str:00000000000000f3 .LASF36
     /tmp/cc0aGGqD.s:2568   .debug_str:0000000000000316 .LASF62
     /tmp/cc0aGGqD.s:2494   .debug_str:0000000000000106 .LASF37
     /tmp/cc0aGGqD.s:2472   .debug_str:0000000000000054 .LASF38
     /tmp/cc0aGGqD.s:2542   .debug_str:000000000000025c .LASF39
     /tmp/cc0aGGqD.s:491    .text:000000000000030c .LFB28
     /tmp/cc0aGGqD.s:626    .text:0000000000000430 .LFE28
     /tmp/cc0aGGqD.s:2267   .debug_loc:0000000000000000 .LLST10
     /tmp/cc0aGGqD.s:2458   .debug_str:0000000000000000 .LASF40
     /tmp/cc0aGGqD.s:2287   .debug_loc:000000000000005d .LLST11
     /tmp/cc0aGGqD.s:517    .text:000000000000033c .LVL59
     /tmp/cc0aGGqD.s:524    .text:0000000000000350 .LVL60
     /tmp/cc0aGGqD.s:529    .text:0000000000000360 .LVL61
     /tmp/cc0aGGqD.s:544    .text:0000000000000380 .LVL64
     /tmp/cc0aGGqD.s:555    .text:000000000000038c .LVL65
     /tmp/cc0aGGqD.s:560    .text:0000000000000398 .LVL66
     /tmp/cc0aGGqD.s:568    .text:00000000000003ac .LVL69
     /tmp/cc0aGGqD.s:575    .text:00000000000003c0 .LVL70
     /tmp/cc0aGGqD.s:580    .text:00000000000003d0 .LVL71
     /tmp/cc0aGGqD.s:587    .text:00000000000003e4 .LVL72
     /tmp/cc0aGGqD.s:594    .text:00000000000003f8 .LVL73
     /tmp/cc0aGGqD.s:599    .text:0000000000000408 .LVL74
     /tmp/cc0aGGqD.s:2462   .debug_str:0000000000000013 .LASF41
     /tmp/cc0aGGqD.s:2576   .debug_str:000000000000040b .LASF42
     /tmp/cc0aGGqD.s:313    .text:00000000000001b0 .LFB27
     /tmp/cc0aGGqD.s:474    .text:000000000000030c .LFE27
     /tmp/cc0aGGqD.s:2298   .debug_loc:0000000000000093 .LLST7
     /tmp/cc0aGGqD.s:2318   .debug_loc:00000000000000f0 .LLST8
     /tmp/cc0aGGqD.s:2326   .debug_loc:0000000000000114 .LLST9
     /tmp/cc0aGGqD.s:339    .text:00000000000001e0 .LVL33
     /tmp/cc0aGGqD.s:346    .text:00000000000001f4 .LVL34
GAS LISTING /tmp/cc0aGGqD.s 			page 23


     /tmp/cc0aGGqD.s:351    .text:0000000000000204 .LVL35
     /tmp/cc0aGGqD.s:366    .text:0000000000000224 .LVL38
     /tmp/cc0aGGqD.s:377    .text:0000000000000230 .LVL39
     /tmp/cc0aGGqD.s:391    .text:0000000000000244 .LVL41
     /tmp/cc0aGGqD.s:398    .text:0000000000000258 .LVL42
     /tmp/cc0aGGqD.s:403    .text:0000000000000268 .LVL43
     /tmp/cc0aGGqD.s:408    .text:0000000000000274 .LVL44
     /tmp/cc0aGGqD.s:416    .text:0000000000000288 .LVL47
     /tmp/cc0aGGqD.s:423    .text:000000000000029c .LVL48
     /tmp/cc0aGGqD.s:428    .text:00000000000002ac .LVL49
     /tmp/cc0aGGqD.s:435    .text:00000000000002c0 .LVL50
     /tmp/cc0aGGqD.s:442    .text:00000000000002d4 .LVL51
     /tmp/cc0aGGqD.s:447    .text:00000000000002e4 .LVL52
     /tmp/cc0aGGqD.s:2580   .debug_str:000000000000042c .LASF63
     /tmp/cc0aGGqD.s:9      .text:0000000000000000 .LFB26
     /tmp/cc0aGGqD.s:74     .text:0000000000000070 .LFE26
     /tmp/cc0aGGqD.s:2337   .debug_loc:000000000000014a .LLST0
     /tmp/cc0aGGqD.s:41     .text:0000000000000038 .LVL2
     /tmp/cc0aGGqD.s:46     .text:0000000000000048 .LVL3
     /tmp/cc0aGGqD.s:71     .text:000000000000006c .LVL6
     /tmp/cc0aGGqD.s:2460   .debug_str:0000000000000007 .LASF43
     /tmp/cc0aGGqD.s:2470   .debug_str:0000000000000043 .LASF44
     /tmp/cc0aGGqD.s:196    .text:0000000000000110 .LFB25
     /tmp/cc0aGGqD.s:293    .text:00000000000001b0 .LFE25
     /tmp/cc0aGGqD.s:211    .text:0000000000000124 .LBB8
     /tmp/cc0aGGqD.s:279    .text:000000000000019c .LBE8
     /tmp/cc0aGGqD.s:2359   .debug_loc:00000000000001a9 .LLST4
     /tmp/cc0aGGqD.s:2442   .debug_ranges:0000000000000000 .Ldebug_ranges0
     /tmp/cc0aGGqD.s:2371   .debug_loc:00000000000001e0 .LLST5
     /tmp/cc0aGGqD.s:227    .text:000000000000013c .LBB11
     /tmp/cc0aGGqD.s:242    .text:0000000000000154 .LBE11
     /tmp/cc0aGGqD.s:2383   .debug_loc:0000000000000217 .LLST6
     /tmp/cc0aGGqD.s:257    .text:0000000000000170 .LVL26
     /tmp/cc0aGGqD.s:264    .text:0000000000000184 .LVL27
     /tmp/cc0aGGqD.s:269    .text:0000000000000194 .LVL28
     /tmp/cc0aGGqD.s:2532   .debug_str:0000000000000221 .LASF45
     /tmp/cc0aGGqD.s:2570   .debug_str:0000000000000327 .LASF46
     /tmp/cc0aGGqD.s:88     .text:0000000000000070 .LFB24
     /tmp/cc0aGGqD.s:185    .text:0000000000000110 .LFE24
     /tmp/cc0aGGqD.s:103    .text:0000000000000084 .LBB2
     /tmp/cc0aGGqD.s:171    .text:00000000000000fc .LBE2
     /tmp/cc0aGGqD.s:2394   .debug_loc:000000000000024d .LLST1
     /tmp/cc0aGGqD.s:2406   .debug_loc:0000000000000284 .LLST2
     /tmp/cc0aGGqD.s:119    .text:000000000000009c .LBB5
     /tmp/cc0aGGqD.s:134    .text:00000000000000b4 .LBE5
     /tmp/cc0aGGqD.s:2418   .debug_loc:00000000000002bb .LLST3
     /tmp/cc0aGGqD.s:149    .text:00000000000000d0 .LVL14
     /tmp/cc0aGGqD.s:156    .text:00000000000000e4 .LVL15
     /tmp/cc0aGGqD.s:161    .text:00000000000000f4 .LVL16
     /tmp/cc0aGGqD.s:2584   .debug_str:0000000000000444 .LASF47
     /tmp/cc0aGGqD.s:2466   .debug_str:000000000000002f .LASF49
     /tmp/cc0aGGqD.s:2546   .debug_str:0000000000000280 .LASF48
     /tmp/cc0aGGqD.s:2496   .debug_str:000000000000010b .LASF50
     /tmp/cc0aGGqD.s:507    .text:0000000000000324 .LVL57
     /tmp/cc0aGGqD.s:511    .text:000000000000032c .LVL58
     /tmp/cc0aGGqD.s:532    .text:0000000000000364 .LVL62
     /tmp/cc0aGGqD.s:534    .text:0000000000000368 .LVL63
GAS LISTING /tmp/cc0aGGqD.s 			page 24


     /tmp/cc0aGGqD.s:602    .text:000000000000040c .LVL75
     /tmp/cc0aGGqD.s:604    .text:0000000000000410 .LVL76
     /tmp/cc0aGGqD.s:618    .text:0000000000000424 .LVL77
     /tmp/cc0aGGqD.s:562    .text:000000000000039c .LVL67
     /tmp/cc0aGGqD.s:566    .text:00000000000003a4 .LVL68
     /tmp/cc0aGGqD.s:621    .text:0000000000000428 .LVL78
     /tmp/cc0aGGqD.s:329    .text:00000000000001c8 .LVL31
     /tmp/cc0aGGqD.s:333    .text:00000000000001d0 .LVL32
     /tmp/cc0aGGqD.s:354    .text:0000000000000208 .LVL36
     /tmp/cc0aGGqD.s:356    .text:000000000000020c .LVL37
     /tmp/cc0aGGqD.s:450    .text:00000000000002e8 .LVL53
     /tmp/cc0aGGqD.s:452    .text:00000000000002ec .LVL54
     /tmp/cc0aGGqD.s:466    .text:0000000000000300 .LVL55
     /tmp/cc0aGGqD.s:385    .text:0000000000000234 .LVL40
     /tmp/cc0aGGqD.s:410    .text:0000000000000278 .LVL45
     /tmp/cc0aGGqD.s:414    .text:0000000000000280 .LVL46
     /tmp/cc0aGGqD.s:469    .text:0000000000000304 .LVL56
     /tmp/cc0aGGqD.s:13     .text:0000000000000000 .LVL0
     /tmp/cc0aGGqD.s:35     .text:000000000000002c .LVL1
     /tmp/cc0aGGqD.s:59     .text:0000000000000058 .LVL4
     /tmp/cc0aGGqD.s:65     .text:0000000000000064 .LVL5
     /tmp/cc0aGGqD.s:210    .text:0000000000000124 .LVL19
     /tmp/cc0aGGqD.s:215    .text:000000000000012c .LVL20
     /tmp/cc0aGGqD.s:288    .text:00000000000001a8 .LVL30
     /tmp/cc0aGGqD.s:247    .text:0000000000000158 .LVL25
     /tmp/cc0aGGqD.s:275    .text:000000000000019c .LVL29
     /tmp/cc0aGGqD.s:221    .text:0000000000000130 .LVL21
     /tmp/cc0aGGqD.s:231    .text:0000000000000140 .LVL22
     /tmp/cc0aGGqD.s:240    .text:0000000000000154 .LVL24
     /tmp/cc0aGGqD.s:102    .text:0000000000000084 .LVL7
     /tmp/cc0aGGqD.s:107    .text:000000000000008c .LVL8
     /tmp/cc0aGGqD.s:180    .text:0000000000000108 .LVL18
     /tmp/cc0aGGqD.s:139    .text:00000000000000b8 .LVL13
     /tmp/cc0aGGqD.s:167    .text:00000000000000fc .LVL17
     /tmp/cc0aGGqD.s:113    .text:0000000000000090 .LVL9
     /tmp/cc0aGGqD.s:123    .text:00000000000000a0 .LVL10
     /tmp/cc0aGGqD.s:132    .text:00000000000000b4 .LVL12
     /tmp/cc0aGGqD.s:634    .debug_info:0000000000000000 .Ldebug_info0
     /tmp/cc0aGGqD.s:110    .text:000000000000008c .LBB4
     /tmp/cc0aGGqD.s:135    .text:00000000000000b4 .LBE4
     /tmp/cc0aGGqD.s:163    .text:00000000000000f4 .LBB6
     /tmp/cc0aGGqD.s:169    .text:00000000000000fc .LBE6
     /tmp/cc0aGGqD.s:218    .text:000000000000012c .LBB10
     /tmp/cc0aGGqD.s:243    .text:0000000000000154 .LBE10
     /tmp/cc0aGGqD.s:271    .text:0000000000000194 .LBB12
     /tmp/cc0aGGqD.s:277    .text:000000000000019c .LBE12

UNDEFINED SYMBOLS
_ZN3TCB5yieldEv
_Z11printStringPKc
_Z8printIntiii
