GAS LISTING /tmp/cckEJtbO.s 			page 1


   1              		.file	"workers.cpp"
   2              		.option pic
   3              		.option norelax
   4              		.text
   5              	.Ltext0:
   6              		.align	2
   8              	_ZL9fibonaccim:
   9              	.LFB26:
  10              		.file 1 "src/workers.cpp"
   1:src/workers.cpp **** //
   2:src/workers.cpp **** // Created by marko on 20.4.22..
   3:src/workers.cpp **** //
   4:src/workers.cpp **** 
   5:src/workers.cpp **** #include "../lib/hw.h"
   6:src/workers.cpp **** #include "../h/tcb.hpp"
   7:src/workers.cpp **** #include "../h/printing.hpp"
   8:src/workers.cpp **** 
   9:src/workers.cpp **** void workerBodyA(void* arg)
  10:src/workers.cpp **** {
  11:src/workers.cpp ****     for (uint64 i = 0; i < 10; i++)
  12:src/workers.cpp ****     {
  13:src/workers.cpp ****         printString("A: i=");
  14:src/workers.cpp ****         printInt(i);
  15:src/workers.cpp ****         printString("\n");
  16:src/workers.cpp ****         thread_exit();
  17:src/workers.cpp ****         for (uint64 j = 0; j < 10000; j++)
  18:src/workers.cpp ****         {
  19:src/workers.cpp ****             for (uint64 k = 0; k < 30000; k++)
  20:src/workers.cpp ****             {
  21:src/workers.cpp ****                 // busy wait
  22:src/workers.cpp ****             }
  23:src/workers.cpp ****             //TCB::yield();
  24:src/workers.cpp ****         }
  25:src/workers.cpp ****     }
  26:src/workers.cpp **** }
  27:src/workers.cpp **** 
  28:src/workers.cpp **** void workerBodyB(void* arg)
  29:src/workers.cpp **** {
  30:src/workers.cpp ****     for (uint64 i = 0; i < 16; i++)
  31:src/workers.cpp ****     {
  32:src/workers.cpp ****         printString("B: i=");
  33:src/workers.cpp ****         printInt(i);
  34:src/workers.cpp ****         printString("\n");
  35:src/workers.cpp ****         for (uint64 j = 0; j < 10000; j++)
  36:src/workers.cpp ****         {
  37:src/workers.cpp ****             for (uint64 k = 0; k < 30000; k++)
  38:src/workers.cpp ****             {
  39:src/workers.cpp ****                 // busy wait
  40:src/workers.cpp ****             }
  41:src/workers.cpp ****             //TCB::yield();
  42:src/workers.cpp ****         }
  43:src/workers.cpp ****     }
  44:src/workers.cpp **** }
  45:src/workers.cpp **** 
  46:src/workers.cpp **** static uint64 fibonacci(uint64 n)
  47:src/workers.cpp **** {
  11              		.loc 1 47 1
GAS LISTING /tmp/cckEJtbO.s 			page 2


  12              		.cfi_startproc
  13              	.LVL0:
  14 0000 130101FE 		addi	sp,sp,-32
  15              		.cfi_def_cfa_offset 32
  16 0004 233C1100 		sd	ra,24(sp)
  17 0008 23388100 		sd	s0,16(sp)
  18 000c 23349100 		sd	s1,8(sp)
  19 0010 23302101 		sd	s2,0(sp)
  20              		.cfi_offset 1, -8
  21              		.cfi_offset 8, -16
  22              		.cfi_offset 9, -24
  23              		.cfi_offset 18, -32
  24 0014 13040102 		addi	s0,sp,32
  25              		.cfi_def_cfa 8, 0
  26 0018 93040500 		mv	s1,a0
  48:src/workers.cpp ****     if (n == 0 || n == 1) { return n; }
  27              		.loc 1 48 5
  28 001c 93071000 		li	a5,1
  29 0020 63F6A702 		bleu	a0,a5,.L1
  49:src/workers.cpp ****     if (n % 4 == 0) { TCB::yield(); }
  30              		.loc 1 49 5
  31              		.loc 1 49 11 is_stmt 0
  32 0024 93773500 		andi	a5,a0,3
  33              		.loc 1 49 5
  34 0028 638E0702 		beqz	a5,.L6
  35              	.LVL1:
  36              	.L3:
  50:src/workers.cpp ****     return fibonacci(n - 1) + fibonacci(n - 2);
  37              		.loc 1 50 5 is_stmt 1
  38              		.loc 1 50 21 is_stmt 0
  39 002c 1385F4FF 		addi	a0,s1,-1
  40 0030 97000000 		call	_ZL9fibonaccim
  40      E7800000 
  41              	.LVL2:
  42 0038 13090500 		mv	s2,a0
  43              		.loc 1 50 40
  44 003c 1385E4FF 		addi	a0,s1,-2
  45 0040 97000000 		call	_ZL9fibonaccim
  45      E7800000 
  46              	.LVL3:
  47              		.loc 1 50 46
  48 0048 3305A900 		add	a0,s2,a0
  49              	.L1:
  51:src/workers.cpp **** }
  50              		.loc 1 51 1
  51 004c 83308101 		ld	ra,24(sp)
  52              		.cfi_remember_state
  53              		.cfi_restore 1
  54 0050 03340101 		ld	s0,16(sp)
  55              		.cfi_restore 8
  56              		.cfi_def_cfa 2, 32
  57 0054 83348100 		ld	s1,8(sp)
  58              		.cfi_restore 9
  59              	.LVL4:
  60 0058 03390100 		ld	s2,0(sp)
  61              		.cfi_restore 18
  62 005c 13010102 		addi	sp,sp,32
GAS LISTING /tmp/cckEJtbO.s 			page 3


  63              		.cfi_def_cfa_offset 0
  64 0060 67800000 		jr	ra
  65              	.LVL5:
  66              	.L6:
  67              		.cfi_restore_state
  49:src/workers.cpp ****     if (n % 4 == 0) { TCB::yield(); }
  68              		.loc 1 49 23 is_stmt 1 discriminator 1
  49:src/workers.cpp ****     if (n % 4 == 0) { TCB::yield(); }
  69              		.loc 1 49 33 is_stmt 0 discriminator 1
  70 0064 97000000 		call	_ZN3TCB5yieldEv@plt
  70      E7800000 
  71              	.LVL6:
  72 006c 6FF01FFC 		j	.L3
  73              		.cfi_endproc
  74              	.LFE26:
  76              		.section	.rodata.str1.8,"aMS",@progbits,1
  77              		.align	3
  78              	.LC0:
  79 0000 413A2069 		.string	"A: i="
  79      3D00
  80 0006 0000     		.align	3
  81              	.LC1:
  82 0008 0A00     		.string	"\n"
  83              		.text
  84              		.align	2
  85              		.globl	_Z11workerBodyAPv
  87              	_Z11workerBodyAPv:
  88              	.LFB24:
  10:src/workers.cpp ****     for (uint64 i = 0; i < 10; i++)
  89              		.loc 1 10 1 is_stmt 1
  90              		.cfi_startproc
  91              	.LVL7:
  92 0070 130101FE 		addi	sp,sp,-32
  93              		.cfi_def_cfa_offset 32
  94 0074 233C1100 		sd	ra,24(sp)
  95 0078 23388100 		sd	s0,16(sp)
  96 007c 23349100 		sd	s1,8(sp)
  97              		.cfi_offset 1, -8
  98              		.cfi_offset 8, -16
  99              		.cfi_offset 9, -24
 100 0080 13040102 		addi	s0,sp,32
 101              		.cfi_def_cfa 8, 0
  11:src/workers.cpp ****     {
 102              		.loc 1 11 5
 103              	.LVL8:
 104              	.LBB2:
  11:src/workers.cpp ****     {
 105              		.loc 1 11 17 is_stmt 0
 106 0084 93040000 		li	s1,0
 107 0088 6F000003 		j	.L13
 108              	.LVL9:
 109              	.L10:
 110              	.LBB3:
 111              	.LBB4:
  17:src/workers.cpp ****         {
 112              		.loc 1 17 9 is_stmt 1 discriminator 2
 113 008c 93861600 		addi	a3,a3,1
GAS LISTING /tmp/cckEJtbO.s 			page 4


 114              	.LVL10:
 115              	.L12:
  17:src/workers.cpp ****         {
 116              		.loc 1 17 30 discriminator 1
 117 0090 B7270000 		li	a5,8192
 118 0094 9387F770 		addi	a5,a5,1807
 119 0098 63EED700 		bgtu	a3,a5,.L9
 120              	.LBB5:
  19:src/workers.cpp ****             {
 121              		.loc 1 19 25 is_stmt 0
 122 009c 13070000 		li	a4,0
 123              	.L11:
 124              	.LVL11:
  19:src/workers.cpp ****             {
 125              		.loc 1 19 34 is_stmt 1 discriminator 3
 126 00a0 B7770000 		li	a5,28672
 127 00a4 9387F752 		addi	a5,a5,1327
 128 00a8 E3E2E7FE 		bgtu	a4,a5,.L10
  19:src/workers.cpp ****             {
 129              		.loc 1 19 13 discriminator 2
 130 00ac 13071700 		addi	a4,a4,1
 131              	.LVL12:
 132 00b0 6FF01FFF 		j	.L11
 133              	.LVL13:
 134              	.L9:
 135              	.LBE5:
 136              	.LBE4:
 137              	.LBE3:
  11:src/workers.cpp ****     {
 138              		.loc 1 11 5 discriminator 2
 139 00b4 93841400 		addi	s1,s1,1
 140              	.LVL14:
 141              	.L13:
  11:src/workers.cpp ****     {
 142              		.loc 1 11 26 discriminator 1
 143 00b8 93079000 		li	a5,9
 144 00bc 63E49704 		bgtu	s1,a5,.L7
 145              	.LBB7:
  13:src/workers.cpp ****         printInt(i);
 146              		.loc 1 13 9
  13:src/workers.cpp ****         printInt(i);
 147              		.loc 1 13 20 is_stmt 0
 148 00c0 17050000 		lla	a0,.LC0
 148      13050500 
 149 00c8 97000000 		call	_Z11printStringPKc@plt
 149      E7800000 
 150              	.LVL15:
  14:src/workers.cpp ****         printString("\n");
 151              		.loc 1 14 9 is_stmt 1
  14:src/workers.cpp ****         printString("\n");
 152              		.loc 1 14 17 is_stmt 0
 153 00d0 13060000 		li	a2,0
 154 00d4 9305A000 		li	a1,10
 155 00d8 1B850400 		sext.w	a0,s1
 156 00dc 97000000 		call	_Z8printIntiii@plt
 156      E7800000 
 157              	.LVL16:
GAS LISTING /tmp/cckEJtbO.s 			page 5


  15:src/workers.cpp ****         thread_exit();
 158              		.loc 1 15 9 is_stmt 1
  15:src/workers.cpp ****         thread_exit();
 159              		.loc 1 15 20 is_stmt 0
 160 00e4 17050000 		lla	a0,.LC1
 160      13050500 
 161 00ec 97000000 		call	_Z11printStringPKc@plt
 161      E7800000 
 162              	.LVL17:
  16:src/workers.cpp ****         for (uint64 j = 0; j < 10000; j++)
 163              		.loc 1 16 9 is_stmt 1
  16:src/workers.cpp ****         for (uint64 j = 0; j < 10000; j++)
 164              		.loc 1 16 20 is_stmt 0
 165 00f4 97000000 		call	_Z11thread_exitv@plt
 165      E7800000 
 166              	.LVL18:
  17:src/workers.cpp ****         {
 167              		.loc 1 17 9 is_stmt 1
 168              	.LBB6:
  17:src/workers.cpp ****         {
 169              		.loc 1 17 21 is_stmt 0
 170 00fc 93060000 		li	a3,0
 171 0100 6FF01FF9 		j	.L12
 172              	.LVL19:
 173              	.L7:
 174              	.LBE6:
 175              	.LBE7:
 176              	.LBE2:
  26:src/workers.cpp **** 
 177              		.loc 1 26 1
 178 0104 83308101 		ld	ra,24(sp)
 179              		.cfi_restore 1
 180 0108 03340101 		ld	s0,16(sp)
 181              		.cfi_restore 8
 182              		.cfi_def_cfa 2, 32
 183 010c 83348100 		ld	s1,8(sp)
 184              		.cfi_restore 9
 185              	.LVL20:
 186 0110 13010102 		addi	sp,sp,32
 187              		.cfi_def_cfa_offset 0
 188 0114 67800000 		jr	ra
 189              		.cfi_endproc
 190              	.LFE24:
 192              		.section	.rodata.str1.8
 193 000a 00000000 		.align	3
 193      0000
 194              	.LC2:
 195 0010 423A2069 		.string	"B: i="
 195      3D00
 196              		.text
 197              		.align	2
 198              		.globl	_Z11workerBodyBPv
 200              	_Z11workerBodyBPv:
 201              	.LFB25:
  29:src/workers.cpp ****     for (uint64 i = 0; i < 16; i++)
 202              		.loc 1 29 1 is_stmt 1
 203              		.cfi_startproc
GAS LISTING /tmp/cckEJtbO.s 			page 6


 204              	.LVL21:
 205 0118 130101FE 		addi	sp,sp,-32
 206              		.cfi_def_cfa_offset 32
 207 011c 233C1100 		sd	ra,24(sp)
 208 0120 23388100 		sd	s0,16(sp)
 209 0124 23349100 		sd	s1,8(sp)
 210              		.cfi_offset 1, -8
 211              		.cfi_offset 8, -16
 212              		.cfi_offset 9, -24
 213 0128 13040102 		addi	s0,sp,32
 214              		.cfi_def_cfa 8, 0
  30:src/workers.cpp ****     {
 215              		.loc 1 30 5
 216              	.LVL22:
 217              	.LBB8:
  30:src/workers.cpp ****     {
 218              		.loc 1 30 17 is_stmt 0
 219 012c 93040000 		li	s1,0
 220 0130 6F000003 		j	.L21
 221              	.LVL23:
 222              	.L18:
 223              	.LBB9:
 224              	.LBB10:
  35:src/workers.cpp ****         {
 225              		.loc 1 35 9 is_stmt 1 discriminator 2
 226 0134 93861600 		addi	a3,a3,1
 227              	.LVL24:
 228              	.L20:
  35:src/workers.cpp ****         {
 229              		.loc 1 35 30 discriminator 1
 230 0138 B7270000 		li	a5,8192
 231 013c 9387F770 		addi	a5,a5,1807
 232 0140 63EED700 		bgtu	a3,a5,.L17
 233              	.LBB11:
  37:src/workers.cpp ****             {
 234              		.loc 1 37 25 is_stmt 0
 235 0144 13070000 		li	a4,0
 236              	.L19:
 237              	.LVL25:
  37:src/workers.cpp ****             {
 238              		.loc 1 37 34 is_stmt 1 discriminator 3
 239 0148 B7770000 		li	a5,28672
 240 014c 9387F752 		addi	a5,a5,1327
 241 0150 E3E2E7FE 		bgtu	a4,a5,.L18
  37:src/workers.cpp ****             {
 242              		.loc 1 37 13 discriminator 2
 243 0154 13071700 		addi	a4,a4,1
 244              	.LVL26:
 245 0158 6FF01FFF 		j	.L19
 246              	.LVL27:
 247              	.L17:
 248              	.LBE11:
 249              	.LBE10:
 250              	.LBE9:
  30:src/workers.cpp ****     {
 251              		.loc 1 30 5 discriminator 2
 252 015c 93841400 		addi	s1,s1,1
GAS LISTING /tmp/cckEJtbO.s 			page 7


 253              	.LVL28:
 254              	.L21:
  30:src/workers.cpp ****     {
 255              		.loc 1 30 26 discriminator 1
 256 0160 9307F000 		li	a5,15
 257 0164 63E09704 		bgtu	s1,a5,.L15
 258              	.LBB13:
  32:src/workers.cpp ****         printInt(i);
 259              		.loc 1 32 9
  32:src/workers.cpp ****         printInt(i);
 260              		.loc 1 32 20 is_stmt 0
 261 0168 17050000 		lla	a0,.LC2
 261      13050500 
 262 0170 97000000 		call	_Z11printStringPKc@plt
 262      E7800000 
 263              	.LVL29:
  33:src/workers.cpp ****         printString("\n");
 264              		.loc 1 33 9 is_stmt 1
  33:src/workers.cpp ****         printString("\n");
 265              		.loc 1 33 17 is_stmt 0
 266 0178 13060000 		li	a2,0
 267 017c 9305A000 		li	a1,10
 268 0180 1B850400 		sext.w	a0,s1
 269 0184 97000000 		call	_Z8printIntiii@plt
 269      E7800000 
 270              	.LVL30:
  34:src/workers.cpp ****         for (uint64 j = 0; j < 10000; j++)
 271              		.loc 1 34 9 is_stmt 1
  34:src/workers.cpp ****         for (uint64 j = 0; j < 10000; j++)
 272              		.loc 1 34 20 is_stmt 0
 273 018c 17050000 		lla	a0,.LC1
 273      13050500 
 274 0194 97000000 		call	_Z11printStringPKc@plt
 274      E7800000 
 275              	.LVL31:
  35:src/workers.cpp ****         {
 276              		.loc 1 35 9 is_stmt 1
 277              	.LBB12:
  35:src/workers.cpp ****         {
 278              		.loc 1 35 21 is_stmt 0
 279 019c 93060000 		li	a3,0
 280 01a0 6FF09FF9 		j	.L20
 281              	.LVL32:
 282              	.L15:
 283              	.LBE12:
 284              	.LBE13:
 285              	.LBE8:
  44:src/workers.cpp **** 
 286              		.loc 1 44 1
 287 01a4 83308101 		ld	ra,24(sp)
 288              		.cfi_restore 1
 289 01a8 03340101 		ld	s0,16(sp)
 290              		.cfi_restore 8
 291              		.cfi_def_cfa 2, 32
 292 01ac 83348100 		ld	s1,8(sp)
 293              		.cfi_restore 9
 294              	.LVL33:
GAS LISTING /tmp/cckEJtbO.s 			page 8


 295 01b0 13010102 		addi	sp,sp,32
 296              		.cfi_def_cfa_offset 0
 297 01b4 67800000 		jr	ra
 298              		.cfi_endproc
 299              	.LFE25:
 301              		.section	.rodata.str1.8
 302 0016 0000     		.align	3
 303              	.LC3:
 304 0018 433A2069 		.string	"C: i="
 304      3D00
 305 001e 0000     		.align	3
 306              	.LC4:
 307 0020 433A2079 		.string	"C: yield\n"
 307      69656C64 
 307      0A00
 308 002a 00000000 		.align	3
 308      0000
 309              	.LC5:
 310 0030 433A2074 		.string	"C: t1="
 310      313D00
 311 0037 00       		.align	3
 312              	.LC6:
 313 0038 433A2066 		.string	"C: fibonaci="
 313      69626F6E 
 313      6163693D 
 313      00
 314              		.text
 315              		.align	2
 316              		.globl	_Z11workerBodyCPv
 318              	_Z11workerBodyCPv:
 319              	.LFB27:
  52:src/workers.cpp **** 
  53:src/workers.cpp **** void workerBodyC(void* arg)
  54:src/workers.cpp **** {
 320              		.loc 1 54 1 is_stmt 1
 321              		.cfi_startproc
 322              	.LVL34:
 323 01b8 130101FE 		addi	sp,sp,-32
 324              		.cfi_def_cfa_offset 32
 325 01bc 233C1100 		sd	ra,24(sp)
 326 01c0 23388100 		sd	s0,16(sp)
 327 01c4 23349100 		sd	s1,8(sp)
 328 01c8 23302101 		sd	s2,0(sp)
 329              		.cfi_offset 1, -8
 330              		.cfi_offset 8, -16
 331              		.cfi_offset 9, -24
 332              		.cfi_offset 18, -32
 333 01cc 13040102 		addi	s0,sp,32
 334              		.cfi_def_cfa 8, 0
  55:src/workers.cpp ****     uint8 i = 0;
 335              		.loc 1 55 5
 336              	.LVL35:
 337              		.loc 1 55 11 is_stmt 0
 338 01d0 93040000 		li	s1,0
 339 01d4 6F000004 		j	.L25
 340              	.LVL36:
 341              	.L29:
GAS LISTING /tmp/cckEJtbO.s 			page 9


  56:src/workers.cpp ****     for (; i < 3; i++)
  57:src/workers.cpp ****     {
  58:src/workers.cpp ****         printString("C: i=");
 342              		.loc 1 58 9 is_stmt 1 discriminator 1
 343              		.loc 1 58 20 is_stmt 0 discriminator 1
 344 01d8 17050000 		lla	a0,.LC3
 344      13050500 
 345 01e0 97000000 		call	_Z11printStringPKc@plt
 345      E7800000 
 346              	.LVL37:
  59:src/workers.cpp ****         printInt(i);
 347              		.loc 1 59 9 is_stmt 1 discriminator 1
 348              		.loc 1 59 17 is_stmt 0 discriminator 1
 349 01e8 13060000 		li	a2,0
 350 01ec 9305A000 		li	a1,10
 351 01f0 13850400 		mv	a0,s1
 352 01f4 97000000 		call	_Z8printIntiii@plt
 352      E7800000 
 353              	.LVL38:
  60:src/workers.cpp ****         printString("\n");
 354              		.loc 1 60 9 is_stmt 1 discriminator 1
 355              		.loc 1 60 20 is_stmt 0 discriminator 1
 356 01fc 17050000 		lla	a0,.LC1
 356      13050500 
 357 0204 97000000 		call	_Z11printStringPKc@plt
 357      E7800000 
 358              	.LVL39:
  56:src/workers.cpp ****     for (; i < 3; i++)
 359              		.loc 1 56 5 is_stmt 1 discriminator 1
 360 020c 9B841400 		addiw	s1,s1,1
 361              	.LVL40:
 362 0210 93F4F40F 		andi	s1,s1,0xff
 363              	.LVL41:
 364              	.L25:
  56:src/workers.cpp ****     for (; i < 3; i++)
 365              		.loc 1 56 5 discriminator 2
  56:src/workers.cpp ****     for (; i < 3; i++)
 366              		.loc 1 56 14 discriminator 2
 367 0214 93072000 		li	a5,2
 368 0218 E3F097FC 		bleu	s1,a5,.L29
  61:src/workers.cpp ****     }
  62:src/workers.cpp **** 
  63:src/workers.cpp ****     printString("C: yield\n");
 369              		.loc 1 63 5
 370              		.loc 1 63 16 is_stmt 0
 371 021c 17050000 		lla	a0,.LC4
 371      13050500 
 372 0224 97000000 		call	_Z11printStringPKc@plt
 372      E7800000 
 373              	.LVL42:
  64:src/workers.cpp ****     __asm__ ("li t1, 7");
 374              		.loc 1 64 5 is_stmt 1
 375              		.loc 1 64 25 is_stmt 0
 376              	#APP
 377              	# 64 "src/workers.cpp" 1
  65              	    TCB::yield();
 378              		li t1, 7
GAS LISTING /tmp/cckEJtbO.s 			page 10


 379              	# 0 "" 2
 380              		.loc 1 65 5 is_stmt 1
 381              		.loc 1 65 15 is_stmt 0
 382              	#NO_APP
 383 0230 97000000 		call	_ZN3TCB5yieldEv@plt
 383      E7800000 
 384              	.LVL43:
  66:src/workers.cpp **** 
  67:src/workers.cpp ****     uint64 t1 = 0;
 385              		.loc 1 67 5 is_stmt 1
  68:src/workers.cpp ****     __asm__ ("mv %[t1], t1" : [t1] "=r"(t1));
 386              		.loc 1 68 5
 387              		.loc 1 68 45 is_stmt 0
 388              	#APP
 389              	# 68 "src/workers.cpp" 1
  69              	
 390              		mv s2, t1
 391              	# 0 "" 2
 392              	.LVL44:
  70:src/workers.cpp ****     printString("C: t1=");
 393              		.loc 1 70 5 is_stmt 1
 394              		.loc 1 70 16 is_stmt 0
 395              	#NO_APP
 396 023c 17050000 		lla	a0,.LC5
 396      13050500 
 397 0244 97000000 		call	_Z11printStringPKc@plt
 397      E7800000 
 398              	.LVL45:
  71:src/workers.cpp ****     printInt(t1);
 399              		.loc 1 71 5 is_stmt 1
 400              		.loc 1 71 13 is_stmt 0
 401 024c 13060000 		li	a2,0
 402 0250 9305A000 		li	a1,10
 403 0254 1B050900 		sext.w	a0,s2
 404 0258 97000000 		call	_Z8printIntiii@plt
 404      E7800000 
 405              	.LVL46:
  72:src/workers.cpp ****     printString("\n");
 406              		.loc 1 72 5 is_stmt 1
 407              		.loc 1 72 16 is_stmt 0
 408 0260 17050000 		lla	a0,.LC1
 408      13050500 
 409 0268 97000000 		call	_Z11printStringPKc@plt
 409      E7800000 
 410              	.LVL47:
  73:src/workers.cpp **** 
  74:src/workers.cpp ****     uint64 result = fibonacci(12);
 411              		.loc 1 74 5 is_stmt 1
 412              		.loc 1 74 30 is_stmt 0
 413 0270 1305C000 		li	a0,12
 414 0274 97000000 		call	_ZL9fibonaccim
 414      E7800000 
 415              	.LVL48:
 416 027c 13090500 		mv	s2,a0
 417              	.LVL49:
  75:src/workers.cpp ****     printString("C: fibonaci=");
 418              		.loc 1 75 5 is_stmt 1
GAS LISTING /tmp/cckEJtbO.s 			page 11


 419              		.loc 1 75 16 is_stmt 0
 420 0280 17050000 		lla	a0,.LC6
 420      13050500 
 421              	.LVL50:
 422 0288 97000000 		call	_Z11printStringPKc@plt
 422      E7800000 
 423              	.LVL51:
  76:src/workers.cpp ****     printInt(result);
 424              		.loc 1 76 5 is_stmt 1
 425              		.loc 1 76 13 is_stmt 0
 426 0290 13060000 		li	a2,0
 427 0294 9305A000 		li	a1,10
 428 0298 1B050900 		sext.w	a0,s2
 429 029c 97000000 		call	_Z8printIntiii@plt
 429      E7800000 
 430              	.LVL52:
  77:src/workers.cpp ****     printString("\n");
 431              		.loc 1 77 5 is_stmt 1
 432              		.loc 1 77 16 is_stmt 0
 433 02a4 17050000 		lla	a0,.LC1
 433      13050500 
 434 02ac 97000000 		call	_Z11printStringPKc@plt
 434      E7800000 
 435              	.LVL53:
 436 02b4 6F000004 		j	.L27
 437              	.L30:
  78:src/workers.cpp **** 
  79:src/workers.cpp ****     for (; i < 6; i++)
  80:src/workers.cpp ****     {
  81:src/workers.cpp ****         printString("C: i=");
 438              		.loc 1 81 9 is_stmt 1 discriminator 1
 439              		.loc 1 81 20 is_stmt 0 discriminator 1
 440 02b8 17050000 		lla	a0,.LC3
 440      13050500 
 441 02c0 97000000 		call	_Z11printStringPKc@plt
 441      E7800000 
 442              	.LVL54:
  82:src/workers.cpp ****         printInt(i);
 443              		.loc 1 82 9 is_stmt 1 discriminator 1
 444              		.loc 1 82 17 is_stmt 0 discriminator 1
 445 02c8 13060000 		li	a2,0
 446 02cc 9305A000 		li	a1,10
 447 02d0 13850400 		mv	a0,s1
 448 02d4 97000000 		call	_Z8printIntiii@plt
 448      E7800000 
 449              	.LVL55:
  83:src/workers.cpp ****         printString("\n");
 450              		.loc 1 83 9 is_stmt 1 discriminator 1
 451              		.loc 1 83 20 is_stmt 0 discriminator 1
 452 02dc 17050000 		lla	a0,.LC1
 452      13050500 
 453 02e4 97000000 		call	_Z11printStringPKc@plt
 453      E7800000 
 454              	.LVL56:
  79:src/workers.cpp ****     {
 455              		.loc 1 79 5 is_stmt 1 discriminator 1
 456 02ec 9B841400 		addiw	s1,s1,1
GAS LISTING /tmp/cckEJtbO.s 			page 12


 457              	.LVL57:
 458 02f0 93F4F40F 		andi	s1,s1,0xff
 459              	.LVL58:
 460              	.L27:
  79:src/workers.cpp ****     {
 461              		.loc 1 79 5 discriminator 2
  79:src/workers.cpp ****     {
 462              		.loc 1 79 14 discriminator 2
 463 02f4 93075000 		li	a5,5
 464 02f8 E3F097FC 		bleu	s1,a5,.L30
  84:src/workers.cpp ****     }
  85:src/workers.cpp ****     //TCB::running->setFinished(true);
  86:src/workers.cpp ****     //TCB::yield();
  87:src/workers.cpp **** }
 465              		.loc 1 87 1 is_stmt 0
 466 02fc 83308101 		ld	ra,24(sp)
 467              		.cfi_restore 1
 468 0300 03340101 		ld	s0,16(sp)
 469              		.cfi_restore 8
 470              		.cfi_def_cfa 2, 32
 471 0304 83348100 		ld	s1,8(sp)
 472              		.cfi_restore 9
 473              	.LVL59:
 474 0308 03390100 		ld	s2,0(sp)
 475              		.cfi_restore 18
 476              	.LVL60:
 477 030c 13010102 		addi	sp,sp,32
 478              		.cfi_def_cfa_offset 0
 479 0310 67800000 		jr	ra
 480              		.cfi_endproc
 481              	.LFE27:
 483              		.section	.rodata.str1.8
 484 0045 000000   		.align	3
 485              	.LC7:
 486 0048 443A2069 		.string	"D: i="
 486      3D00
 487 004e 0000     		.align	3
 488              	.LC8:
 489 0050 443A2079 		.string	"D: yield\n"
 489      69656C64 
 489      0A00
 490 005a 00000000 		.align	3
 490      0000
 491              	.LC9:
 492 0060 443A2066 		.string	"D: fibonaci="
 492      69626F6E 
 492      6163693D 
 492      00
 493              		.text
 494              		.align	2
 495              		.globl	_Z11workerBodyDPv
 497              	_Z11workerBodyDPv:
 498              	.LFB28:
  88:src/workers.cpp **** 
  89:src/workers.cpp **** void workerBodyD(void* arg)
  90:src/workers.cpp **** {
 499              		.loc 1 90 1 is_stmt 1
GAS LISTING /tmp/cckEJtbO.s 			page 13


 500              		.cfi_startproc
 501              	.LVL61:
 502 0314 130101FE 		addi	sp,sp,-32
 503              		.cfi_def_cfa_offset 32
 504 0318 233C1100 		sd	ra,24(sp)
 505 031c 23388100 		sd	s0,16(sp)
 506 0320 23349100 		sd	s1,8(sp)
 507 0324 23302101 		sd	s2,0(sp)
 508              		.cfi_offset 1, -8
 509              		.cfi_offset 8, -16
 510              		.cfi_offset 9, -24
 511              		.cfi_offset 18, -32
 512 0328 13040102 		addi	s0,sp,32
 513              		.cfi_def_cfa 8, 0
  91:src/workers.cpp ****     uint8 i = 10;
 514              		.loc 1 91 5
 515              	.LVL62:
 516              		.loc 1 91 11 is_stmt 0
 517 032c 9304A000 		li	s1,10
 518 0330 6F000004 		j	.L33
 519              	.LVL63:
 520              	.L37:
  92:src/workers.cpp ****     for (; i < 13; i++)
  93:src/workers.cpp ****     {
  94:src/workers.cpp ****         printString("D: i=");
 521              		.loc 1 94 9 is_stmt 1 discriminator 1
 522              		.loc 1 94 20 is_stmt 0 discriminator 1
 523 0334 17050000 		lla	a0,.LC7
 523      13050500 
 524 033c 97000000 		call	_Z11printStringPKc@plt
 524      E7800000 
 525              	.LVL64:
  95:src/workers.cpp ****         printInt(i);
 526              		.loc 1 95 9 is_stmt 1 discriminator 1
 527              		.loc 1 95 17 is_stmt 0 discriminator 1
 528 0344 13060000 		li	a2,0
 529 0348 9305A000 		li	a1,10
 530 034c 13850400 		mv	a0,s1
 531 0350 97000000 		call	_Z8printIntiii@plt
 531      E7800000 
 532              	.LVL65:
  96:src/workers.cpp ****         printString("\n");
 533              		.loc 1 96 9 is_stmt 1 discriminator 1
 534              		.loc 1 96 20 is_stmt 0 discriminator 1
 535 0358 17050000 		lla	a0,.LC1
 535      13050500 
 536 0360 97000000 		call	_Z11printStringPKc@plt
 536      E7800000 
 537              	.LVL66:
  92:src/workers.cpp ****     for (; i < 13; i++)
 538              		.loc 1 92 5 is_stmt 1 discriminator 1
 539 0368 9B841400 		addiw	s1,s1,1
 540              	.LVL67:
 541 036c 93F4F40F 		andi	s1,s1,0xff
 542              	.LVL68:
 543              	.L33:
  92:src/workers.cpp ****     for (; i < 13; i++)
GAS LISTING /tmp/cckEJtbO.s 			page 14


 544              		.loc 1 92 5 discriminator 2
  92:src/workers.cpp ****     for (; i < 13; i++)
 545              		.loc 1 92 14 discriminator 2
 546 0370 9307C000 		li	a5,12
 547 0374 E3F097FC 		bleu	s1,a5,.L37
  97:src/workers.cpp ****     }
  98:src/workers.cpp **** 
  99:src/workers.cpp ****     printString("D: yield\n");
 548              		.loc 1 99 5
 549              		.loc 1 99 16 is_stmt 0
 550 0378 17050000 		lla	a0,.LC8
 550      13050500 
 551 0380 97000000 		call	_Z11printStringPKc@plt
 551      E7800000 
 552              	.LVL69:
 100:src/workers.cpp ****     __asm__ ("li t1, 5");
 553              		.loc 1 100 5 is_stmt 1
 554              		.loc 1 100 25 is_stmt 0
 555              	#APP
 556              	# 100 "src/workers.cpp" 1
 101              	    TCB::yield();
 557              		li t1, 5
 558              	# 0 "" 2
 559              		.loc 1 101 5 is_stmt 1
 560              		.loc 1 101 15 is_stmt 0
 561              	#NO_APP
 562 038c 97000000 		call	_ZN3TCB5yieldEv@plt
 562      E7800000 
 563              	.LVL70:
 102:src/workers.cpp **** 
 103:src/workers.cpp ****     uint64 result = fibonacci(23);
 564              		.loc 1 103 5 is_stmt 1
 565              		.loc 1 103 30 is_stmt 0
 566 0394 13057001 		li	a0,23
 567 0398 97000000 		call	_ZL9fibonaccim
 567      E7800000 
 568              	.LVL71:
 569 03a0 13090500 		mv	s2,a0
 570              	.LVL72:
 104:src/workers.cpp ****     printString("D: fibonaci=");
 571              		.loc 1 104 5 is_stmt 1
 572              		.loc 1 104 16 is_stmt 0
 573 03a4 17050000 		lla	a0,.LC9
 573      13050500 
 574              	.LVL73:
 575 03ac 97000000 		call	_Z11printStringPKc@plt
 575      E7800000 
 576              	.LVL74:
 105:src/workers.cpp ****     printInt(result);
 577              		.loc 1 105 5 is_stmt 1
 578              		.loc 1 105 13 is_stmt 0
 579 03b4 13060000 		li	a2,0
 580 03b8 9305A000 		li	a1,10
 581 03bc 1B050900 		sext.w	a0,s2
 582 03c0 97000000 		call	_Z8printIntiii@plt
 582      E7800000 
 583              	.LVL75:
GAS LISTING /tmp/cckEJtbO.s 			page 15


 106:src/workers.cpp ****     printString("\n");
 584              		.loc 1 106 5 is_stmt 1
 585              		.loc 1 106 16 is_stmt 0
 586 03c8 17050000 		lla	a0,.LC1
 586      13050500 
 587 03d0 97000000 		call	_Z11printStringPKc@plt
 587      E7800000 
 588              	.LVL76:
 589 03d8 6F000004 		j	.L35
 590              	.L38:
 107:src/workers.cpp **** 
 108:src/workers.cpp ****     for (; i < 16; i++)
 109:src/workers.cpp ****     {
 110:src/workers.cpp ****         printString("D: i=");
 591              		.loc 1 110 9 is_stmt 1 discriminator 1
 592              		.loc 1 110 20 is_stmt 0 discriminator 1
 593 03dc 17050000 		lla	a0,.LC7
 593      13050500 
 594 03e4 97000000 		call	_Z11printStringPKc@plt
 594      E7800000 
 595              	.LVL77:
 111:src/workers.cpp ****         printInt(i);
 596              		.loc 1 111 9 is_stmt 1 discriminator 1
 597              		.loc 1 111 17 is_stmt 0 discriminator 1
 598 03ec 13060000 		li	a2,0
 599 03f0 9305A000 		li	a1,10
 600 03f4 13850400 		mv	a0,s1
 601 03f8 97000000 		call	_Z8printIntiii@plt
 601      E7800000 
 602              	.LVL78:
 112:src/workers.cpp ****         printString("\n");
 603              		.loc 1 112 9 is_stmt 1 discriminator 1
 604              		.loc 1 112 20 is_stmt 0 discriminator 1
 605 0400 17050000 		lla	a0,.LC1
 605      13050500 
 606 0408 97000000 		call	_Z11printStringPKc@plt
 606      E7800000 
 607              	.LVL79:
 108:src/workers.cpp ****     {
 608              		.loc 1 108 5 is_stmt 1 discriminator 1
 609 0410 9B841400 		addiw	s1,s1,1
 610              	.LVL80:
 611 0414 93F4F40F 		andi	s1,s1,0xff
 612              	.LVL81:
 613              	.L35:
 108:src/workers.cpp ****     {
 614              		.loc 1 108 5 discriminator 2
 108:src/workers.cpp ****     {
 615              		.loc 1 108 14 discriminator 2
 616 0418 9307F000 		li	a5,15
 617 041c E3F097FC 		bleu	s1,a5,.L38
 113:src/workers.cpp ****     }
 114:src/workers.cpp ****     // TCB::running->setFinished(true);
 115:src/workers.cpp ****     // TCB::yield();
 116:src/workers.cpp **** }...
 618              		.loc 1 116 1 is_stmt 0
 619 0420 83308101 		ld	ra,24(sp)
GAS LISTING /tmp/cckEJtbO.s 			page 16


 620              		.cfi_restore 1
 621 0424 03340101 		ld	s0,16(sp)
 622              		.cfi_restore 8
 623              		.cfi_def_cfa 2, 32
 624 0428 83348100 		ld	s1,8(sp)
 625              		.cfi_restore 9
 626              	.LVL82:
 627 042c 03390100 		ld	s2,0(sp)
 628              		.cfi_restore 18
 629              	.LVL83:
 630 0430 13010102 		addi	sp,sp,32
 631              		.cfi_def_cfa_offset 0
 632 0434 67800000 		jr	ra
 633              		.cfi_endproc
 634              	.LFE28:
 636              	.Letext0:
 637              		.file 2 "src/../lib/hw.h"
 638              		.file 3 "src/../h/tcb.hpp"
 639              		.file 4 "src/../h/syscall_c.hpp"
 640              		.file 5 "src/../h/printing.hpp"
GAS LISTING /tmp/cckEJtbO.s 			page 17


DEFINED SYMBOLS
                            *ABS*:0000000000000000 workers.cpp
     /tmp/cckEJtbO.s:8      .text:0000000000000000 _ZL9fibonaccim
     /tmp/cckEJtbO.s:12     .text:0000000000000000 .L0 
     /tmp/cckEJtbO.s:14     .text:0000000000000000 .L0 
     /tmp/cckEJtbO.s:15     .text:0000000000000004 .L0 
     /tmp/cckEJtbO.s:20     .text:0000000000000014 .L0 
     /tmp/cckEJtbO.s:21     .text:0000000000000014 .L0 
     /tmp/cckEJtbO.s:22     .text:0000000000000014 .L0 
     /tmp/cckEJtbO.s:23     .text:0000000000000014 .L0 
     /tmp/cckEJtbO.s:25     .text:0000000000000018 .L0 
     /tmp/cckEJtbO.s:28     .text:000000000000001c .L0 
     /tmp/cckEJtbO.s:31     .text:0000000000000024 .L0 
     /tmp/cckEJtbO.s:32     .text:0000000000000024 .L0 
     /tmp/cckEJtbO.s:34     .text:0000000000000028 .L0 
     /tmp/cckEJtbO.s:38     .text:000000000000002c .L0 
     /tmp/cckEJtbO.s:39     .text:000000000000002c .L0 
     /tmp/cckEJtbO.s:44     .text:000000000000003c .L0 
     /tmp/cckEJtbO.s:48     .text:0000000000000048 .L0 
     /tmp/cckEJtbO.s:51     .text:000000000000004c .L0 
     /tmp/cckEJtbO.s:52     .text:0000000000000050 .L0 
     /tmp/cckEJtbO.s:53     .text:0000000000000050 .L0 
     /tmp/cckEJtbO.s:55     .text:0000000000000054 .L0 
     /tmp/cckEJtbO.s:56     .text:0000000000000054 .L0 
     /tmp/cckEJtbO.s:58     .text:0000000000000058 .L0 
     /tmp/cckEJtbO.s:61     .text:000000000000005c .L0 
     /tmp/cckEJtbO.s:63     .text:0000000000000060 .L0 
     /tmp/cckEJtbO.s:67     .text:0000000000000064 .L0 
     /tmp/cckEJtbO.s:69     .text:0000000000000064 .L0 
     /tmp/cckEJtbO.s:70     .text:0000000000000064 .L0 
     /tmp/cckEJtbO.s:73     .text:0000000000000070 .L0 
     /tmp/cckEJtbO.s:87     .text:0000000000000070 _Z11workerBodyAPv
     /tmp/cckEJtbO.s:90     .text:0000000000000070 .L0 
     /tmp/cckEJtbO.s:92     .text:0000000000000070 .L0 
     /tmp/cckEJtbO.s:93     .text:0000000000000074 .L0 
     /tmp/cckEJtbO.s:97     .text:0000000000000080 .L0 
     /tmp/cckEJtbO.s:98     .text:0000000000000080 .L0 
     /tmp/cckEJtbO.s:99     .text:0000000000000080 .L0 
     /tmp/cckEJtbO.s:101    .text:0000000000000084 .L0 
     /tmp/cckEJtbO.s:105    .text:0000000000000084 .L0 
     /tmp/cckEJtbO.s:106    .text:0000000000000084 .L0 
     /tmp/cckEJtbO.s:113    .text:000000000000008c .L0 
     /tmp/cckEJtbO.s:117    .text:0000000000000090 .L0 
     /tmp/cckEJtbO.s:122    .text:000000000000009c .L0 
     /tmp/cckEJtbO.s:126    .text:00000000000000a0 .L0 
     /tmp/cckEJtbO.s:130    .text:00000000000000ac .L0 
     /tmp/cckEJtbO.s:139    .text:00000000000000b4 .L0 
     /tmp/cckEJtbO.s:143    .text:00000000000000b8 .L0 
     /tmp/cckEJtbO.s:147    .text:00000000000000c0 .L0 
     /tmp/cckEJtbO.s:148    .text:00000000000000c0 .L0 
     /tmp/cckEJtbO.s:152    .text:00000000000000d0 .L0 
     /tmp/cckEJtbO.s:153    .text:00000000000000d0 .L0 
     /tmp/cckEJtbO.s:159    .text:00000000000000e4 .L0 
     /tmp/cckEJtbO.s:160    .text:00000000000000e4 .L0 
     /tmp/cckEJtbO.s:164    .text:00000000000000f4 .L0 
     /tmp/cckEJtbO.s:165    .text:00000000000000f4 .L0 
     /tmp/cckEJtbO.s:169    .text:00000000000000fc .L0 
GAS LISTING /tmp/cckEJtbO.s 			page 18


     /tmp/cckEJtbO.s:170    .text:00000000000000fc .L0 
     /tmp/cckEJtbO.s:178    .text:0000000000000104 .L0 
     /tmp/cckEJtbO.s:179    .text:0000000000000108 .L0 
     /tmp/cckEJtbO.s:181    .text:000000000000010c .L0 
     /tmp/cckEJtbO.s:182    .text:000000000000010c .L0 
     /tmp/cckEJtbO.s:184    .text:0000000000000110 .L0 
     /tmp/cckEJtbO.s:187    .text:0000000000000114 .L0 
     /tmp/cckEJtbO.s:189    .text:0000000000000118 .L0 
     /tmp/cckEJtbO.s:200    .text:0000000000000118 _Z11workerBodyBPv
     /tmp/cckEJtbO.s:203    .text:0000000000000118 .L0 
     /tmp/cckEJtbO.s:205    .text:0000000000000118 .L0 
     /tmp/cckEJtbO.s:206    .text:000000000000011c .L0 
     /tmp/cckEJtbO.s:210    .text:0000000000000128 .L0 
     /tmp/cckEJtbO.s:211    .text:0000000000000128 .L0 
     /tmp/cckEJtbO.s:212    .text:0000000000000128 .L0 
     /tmp/cckEJtbO.s:214    .text:000000000000012c .L0 
     /tmp/cckEJtbO.s:218    .text:000000000000012c .L0 
     /tmp/cckEJtbO.s:219    .text:000000000000012c .L0 
     /tmp/cckEJtbO.s:226    .text:0000000000000134 .L0 
     /tmp/cckEJtbO.s:230    .text:0000000000000138 .L0 
     /tmp/cckEJtbO.s:235    .text:0000000000000144 .L0 
     /tmp/cckEJtbO.s:239    .text:0000000000000148 .L0 
     /tmp/cckEJtbO.s:243    .text:0000000000000154 .L0 
     /tmp/cckEJtbO.s:252    .text:000000000000015c .L0 
     /tmp/cckEJtbO.s:256    .text:0000000000000160 .L0 
     /tmp/cckEJtbO.s:260    .text:0000000000000168 .L0 
     /tmp/cckEJtbO.s:261    .text:0000000000000168 .L0 
     /tmp/cckEJtbO.s:265    .text:0000000000000178 .L0 
     /tmp/cckEJtbO.s:266    .text:0000000000000178 .L0 
     /tmp/cckEJtbO.s:272    .text:000000000000018c .L0 
     /tmp/cckEJtbO.s:273    .text:000000000000018c .L0 
     /tmp/cckEJtbO.s:278    .text:000000000000019c .L0 
     /tmp/cckEJtbO.s:279    .text:000000000000019c .L0 
     /tmp/cckEJtbO.s:287    .text:00000000000001a4 .L0 
     /tmp/cckEJtbO.s:288    .text:00000000000001a8 .L0 
     /tmp/cckEJtbO.s:290    .text:00000000000001ac .L0 
     /tmp/cckEJtbO.s:291    .text:00000000000001ac .L0 
     /tmp/cckEJtbO.s:293    .text:00000000000001b0 .L0 
     /tmp/cckEJtbO.s:296    .text:00000000000001b4 .L0 
     /tmp/cckEJtbO.s:298    .text:00000000000001b8 .L0 
     /tmp/cckEJtbO.s:318    .text:00000000000001b8 _Z11workerBodyCPv
     /tmp/cckEJtbO.s:321    .text:00000000000001b8 .L0 
     /tmp/cckEJtbO.s:323    .text:00000000000001b8 .L0 
     /tmp/cckEJtbO.s:324    .text:00000000000001bc .L0 
     /tmp/cckEJtbO.s:329    .text:00000000000001cc .L0 
     /tmp/cckEJtbO.s:330    .text:00000000000001cc .L0 
     /tmp/cckEJtbO.s:331    .text:00000000000001cc .L0 
     /tmp/cckEJtbO.s:332    .text:00000000000001cc .L0 
     /tmp/cckEJtbO.s:334    .text:00000000000001d0 .L0 
     /tmp/cckEJtbO.s:337    .text:00000000000001d0 .L0 
     /tmp/cckEJtbO.s:338    .text:00000000000001d0 .L0 
     /tmp/cckEJtbO.s:343    .text:00000000000001d8 .L0 
     /tmp/cckEJtbO.s:344    .text:00000000000001d8 .L0 
     /tmp/cckEJtbO.s:348    .text:00000000000001e8 .L0 
     /tmp/cckEJtbO.s:349    .text:00000000000001e8 .L0 
     /tmp/cckEJtbO.s:355    .text:00000000000001fc .L0 
     /tmp/cckEJtbO.s:356    .text:00000000000001fc .L0 
GAS LISTING /tmp/cckEJtbO.s 			page 19


     /tmp/cckEJtbO.s:360    .text:000000000000020c .L0 
     /tmp/cckEJtbO.s:366    .text:0000000000000214 .L0 
     /tmp/cckEJtbO.s:367    .text:0000000000000214 .L0 
     /tmp/cckEJtbO.s:370    .text:000000000000021c .L0 
     /tmp/cckEJtbO.s:371    .text:000000000000021c .L0 
     /tmp/cckEJtbO.s:375    .text:000000000000022c .L0 
     src/workers.cpp:64     .text:000000000000022c .L0 
     /tmp/cckEJtbO.s:381    .text:0000000000000230 .L0 
     /tmp/cckEJtbO.s:383    .text:0000000000000230 .L0 
     /tmp/cckEJtbO.s:386    .text:0000000000000238 .L0 
     /tmp/cckEJtbO.s:387    .text:0000000000000238 .L0 
     src/workers.cpp:68     .text:0000000000000238 .L0 
     /tmp/cckEJtbO.s:394    .text:000000000000023c .L0 
     /tmp/cckEJtbO.s:396    .text:000000000000023c .L0 
     /tmp/cckEJtbO.s:400    .text:000000000000024c .L0 
     /tmp/cckEJtbO.s:401    .text:000000000000024c .L0 
     /tmp/cckEJtbO.s:407    .text:0000000000000260 .L0 
     /tmp/cckEJtbO.s:408    .text:0000000000000260 .L0 
     /tmp/cckEJtbO.s:412    .text:0000000000000270 .L0 
     /tmp/cckEJtbO.s:413    .text:0000000000000270 .L0 
     /tmp/cckEJtbO.s:419    .text:0000000000000280 .L0 
     /tmp/cckEJtbO.s:420    .text:0000000000000280 .L0 
     /tmp/cckEJtbO.s:425    .text:0000000000000290 .L0 
     /tmp/cckEJtbO.s:426    .text:0000000000000290 .L0 
     /tmp/cckEJtbO.s:432    .text:00000000000002a4 .L0 
     /tmp/cckEJtbO.s:433    .text:00000000000002a4 .L0 
     /tmp/cckEJtbO.s:439    .text:00000000000002b8 .L0 
     /tmp/cckEJtbO.s:440    .text:00000000000002b8 .L0 
     /tmp/cckEJtbO.s:444    .text:00000000000002c8 .L0 
     /tmp/cckEJtbO.s:445    .text:00000000000002c8 .L0 
     /tmp/cckEJtbO.s:451    .text:00000000000002dc .L0 
     /tmp/cckEJtbO.s:452    .text:00000000000002dc .L0 
     /tmp/cckEJtbO.s:456    .text:00000000000002ec .L0 
     /tmp/cckEJtbO.s:462    .text:00000000000002f4 .L0 
     /tmp/cckEJtbO.s:463    .text:00000000000002f4 .L0 
     /tmp/cckEJtbO.s:466    .text:00000000000002fc .L0 
     /tmp/cckEJtbO.s:467    .text:0000000000000300 .L0 
     /tmp/cckEJtbO.s:469    .text:0000000000000304 .L0 
     /tmp/cckEJtbO.s:470    .text:0000000000000304 .L0 
     /tmp/cckEJtbO.s:472    .text:0000000000000308 .L0 
     /tmp/cckEJtbO.s:475    .text:000000000000030c .L0 
     /tmp/cckEJtbO.s:478    .text:0000000000000310 .L0 
     /tmp/cckEJtbO.s:480    .text:0000000000000314 .L0 
     /tmp/cckEJtbO.s:497    .text:0000000000000314 _Z11workerBodyDPv
     /tmp/cckEJtbO.s:500    .text:0000000000000314 .L0 
     /tmp/cckEJtbO.s:502    .text:0000000000000314 .L0 
     /tmp/cckEJtbO.s:503    .text:0000000000000318 .L0 
     /tmp/cckEJtbO.s:508    .text:0000000000000328 .L0 
     /tmp/cckEJtbO.s:509    .text:0000000000000328 .L0 
     /tmp/cckEJtbO.s:510    .text:0000000000000328 .L0 
     /tmp/cckEJtbO.s:511    .text:0000000000000328 .L0 
     /tmp/cckEJtbO.s:513    .text:000000000000032c .L0 
     /tmp/cckEJtbO.s:516    .text:000000000000032c .L0 
     /tmp/cckEJtbO.s:517    .text:000000000000032c .L0 
     /tmp/cckEJtbO.s:522    .text:0000000000000334 .L0 
     /tmp/cckEJtbO.s:523    .text:0000000000000334 .L0 
     /tmp/cckEJtbO.s:527    .text:0000000000000344 .L0 
GAS LISTING /tmp/cckEJtbO.s 			page 20


     /tmp/cckEJtbO.s:528    .text:0000000000000344 .L0 
     /tmp/cckEJtbO.s:534    .text:0000000000000358 .L0 
     /tmp/cckEJtbO.s:535    .text:0000000000000358 .L0 
     /tmp/cckEJtbO.s:539    .text:0000000000000368 .L0 
     /tmp/cckEJtbO.s:545    .text:0000000000000370 .L0 
     /tmp/cckEJtbO.s:546    .text:0000000000000370 .L0 
     /tmp/cckEJtbO.s:549    .text:0000000000000378 .L0 
     /tmp/cckEJtbO.s:550    .text:0000000000000378 .L0 
     /tmp/cckEJtbO.s:554    .text:0000000000000388 .L0 
     src/workers.cpp:100    .text:0000000000000388 .L0 
     /tmp/cckEJtbO.s:560    .text:000000000000038c .L0 
     /tmp/cckEJtbO.s:562    .text:000000000000038c .L0 
     /tmp/cckEJtbO.s:565    .text:0000000000000394 .L0 
     /tmp/cckEJtbO.s:566    .text:0000000000000394 .L0 
     /tmp/cckEJtbO.s:572    .text:00000000000003a4 .L0 
     /tmp/cckEJtbO.s:573    .text:00000000000003a4 .L0 
     /tmp/cckEJtbO.s:578    .text:00000000000003b4 .L0 
     /tmp/cckEJtbO.s:579    .text:00000000000003b4 .L0 
     /tmp/cckEJtbO.s:585    .text:00000000000003c8 .L0 
     /tmp/cckEJtbO.s:586    .text:00000000000003c8 .L0 
     /tmp/cckEJtbO.s:592    .text:00000000000003dc .L0 
     /tmp/cckEJtbO.s:593    .text:00000000000003dc .L0 
     /tmp/cckEJtbO.s:597    .text:00000000000003ec .L0 
     /tmp/cckEJtbO.s:598    .text:00000000000003ec .L0 
     /tmp/cckEJtbO.s:604    .text:0000000000000400 .L0 
     /tmp/cckEJtbO.s:605    .text:0000000000000400 .L0 
     /tmp/cckEJtbO.s:609    .text:0000000000000410 .L0 
     /tmp/cckEJtbO.s:615    .text:0000000000000418 .L0 
     /tmp/cckEJtbO.s:616    .text:0000000000000418 .L0 
     /tmp/cckEJtbO.s:619    .text:0000000000000420 .L0 
     /tmp/cckEJtbO.s:620    .text:0000000000000424 .L0 
     /tmp/cckEJtbO.s:622    .text:0000000000000428 .L0 
     /tmp/cckEJtbO.s:623    .text:0000000000000428 .L0 
     /tmp/cckEJtbO.s:625    .text:000000000000042c .L0 
     /tmp/cckEJtbO.s:628    .text:0000000000000430 .L0 
     /tmp/cckEJtbO.s:631    .text:0000000000000434 .L0 
     /tmp/cckEJtbO.s:633    .text:0000000000000438 .L0 
     /tmp/cckEJtbO.s:641    .text:0000000000000438 .L0 
     /tmp/cckEJtbO.s:78     .rodata.str1.8:0000000000000000 .LC0
     /tmp/cckEJtbO.s:148    .text:00000000000000c0 .L0 
     /tmp/cckEJtbO.s:81     .rodata.str1.8:0000000000000008 .LC1
     /tmp/cckEJtbO.s:160    .text:00000000000000e4 .L0 
     /tmp/cckEJtbO.s:194    .rodata.str1.8:0000000000000010 .LC2
     /tmp/cckEJtbO.s:261    .text:0000000000000168 .L0 
     /tmp/cckEJtbO.s:273    .text:000000000000018c .L0 
     /tmp/cckEJtbO.s:303    .rodata.str1.8:0000000000000018 .LC3
     /tmp/cckEJtbO.s:344    .text:00000000000001d8 .L0 
     /tmp/cckEJtbO.s:356    .text:00000000000001fc .L0 
     /tmp/cckEJtbO.s:306    .rodata.str1.8:0000000000000020 .LC4
     /tmp/cckEJtbO.s:371    .text:000000000000021c .L0 
     /tmp/cckEJtbO.s:309    .rodata.str1.8:0000000000000030 .LC5
     /tmp/cckEJtbO.s:396    .text:000000000000023c .L0 
     /tmp/cckEJtbO.s:408    .text:0000000000000260 .L0 
     /tmp/cckEJtbO.s:312    .rodata.str1.8:0000000000000038 .LC6
     /tmp/cckEJtbO.s:420    .text:0000000000000280 .L0 
     /tmp/cckEJtbO.s:433    .text:00000000000002a4 .L0 
     /tmp/cckEJtbO.s:440    .text:00000000000002b8 .L0 
GAS LISTING /tmp/cckEJtbO.s 			page 21


     /tmp/cckEJtbO.s:452    .text:00000000000002dc .L0 
     /tmp/cckEJtbO.s:485    .rodata.str1.8:0000000000000048 .LC7
     /tmp/cckEJtbO.s:523    .text:0000000000000334 .L0 
     /tmp/cckEJtbO.s:535    .text:0000000000000358 .L0 
     /tmp/cckEJtbO.s:488    .rodata.str1.8:0000000000000050 .LC8
     /tmp/cckEJtbO.s:550    .text:0000000000000378 .L0 
     /tmp/cckEJtbO.s:491    .rodata.str1.8:0000000000000060 .LC9
     /tmp/cckEJtbO.s:573    .text:00000000000003a4 .L0 
     /tmp/cckEJtbO.s:586    .text:00000000000003c8 .L0 
     /tmp/cckEJtbO.s:593    .text:00000000000003dc .L0 
     /tmp/cckEJtbO.s:605    .text:0000000000000400 .L0 
     /tmp/cckEJtbO.s:49     .text:000000000000004c .L1
     /tmp/cckEJtbO.s:66     .text:0000000000000064 .L6
     /tmp/cckEJtbO.s:36     .text:000000000000002c .L3
     /tmp/cckEJtbO.s:141    .text:00000000000000b8 .L13
     /tmp/cckEJtbO.s:134    .text:00000000000000b4 .L9
     /tmp/cckEJtbO.s:109    .text:000000000000008c .L10
     /tmp/cckEJtbO.s:123    .text:00000000000000a0 .L11
     /tmp/cckEJtbO.s:173    .text:0000000000000104 .L7
     /tmp/cckEJtbO.s:115    .text:0000000000000090 .L12
     /tmp/cckEJtbO.s:254    .text:0000000000000160 .L21
     /tmp/cckEJtbO.s:247    .text:000000000000015c .L17
     /tmp/cckEJtbO.s:222    .text:0000000000000134 .L18
     /tmp/cckEJtbO.s:236    .text:0000000000000148 .L19
     /tmp/cckEJtbO.s:282    .text:00000000000001a4 .L15
     /tmp/cckEJtbO.s:228    .text:0000000000000138 .L20
     /tmp/cckEJtbO.s:364    .text:0000000000000214 .L25
     /tmp/cckEJtbO.s:341    .text:00000000000001d8 .L29
     /tmp/cckEJtbO.s:460    .text:00000000000002f4 .L27
     /tmp/cckEJtbO.s:437    .text:00000000000002b8 .L30
     /tmp/cckEJtbO.s:543    .text:0000000000000370 .L33
     /tmp/cckEJtbO.s:520    .text:0000000000000334 .L37
     /tmp/cckEJtbO.s:613    .text:0000000000000418 .L35
     /tmp/cckEJtbO.s:590    .text:00000000000003dc .L38
     /tmp/cckEJtbO.s:1692   .debug_abbrev:0000000000000000 .Ldebug_abbrev0
     /tmp/cckEJtbO.s:2700   .debug_str:0000000000000348 .LASF53
     /tmp/cckEJtbO.s:2612   .debug_str:00000000000000ba .LASF54
     /tmp/cckEJtbO.s:2604   .debug_str:0000000000000074 .LASF55
     /tmp/cckEJtbO.s:5      .text:0000000000000000 .Ltext0
     /tmp/cckEJtbO.s:636    .text:0000000000000438 .Letext0
     /tmp/cckEJtbO.s:2584   .debug_line:0000000000000000 .Ldebug_line0
     /tmp/cckEJtbO.s:2668   .debug_str:0000000000000254 .LASF0
     /tmp/cckEJtbO.s:2674   .debug_str:000000000000028a .LASF1
     /tmp/cckEJtbO.s:2654   .debug_str:00000000000001ea .LASF2
     /tmp/cckEJtbO.s:2616   .debug_str:00000000000000e0 .LASF3
     /tmp/cckEJtbO.s:2640   .debug_str:00000000000001a5 .LASF4
     /tmp/cckEJtbO.s:2696   .debug_str:0000000000000325 .LASF5
     /tmp/cckEJtbO.s:2606   .debug_str:0000000000000097 .LASF6
     /tmp/cckEJtbO.s:2680   .debug_str:00000000000002c0 .LASF7
     /tmp/cckEJtbO.s:2666   .debug_str:0000000000000241 .LASF8
     /tmp/cckEJtbO.s:2706   .debug_str:000000000000042d .LASF9
     /tmp/cckEJtbO.s:2628   .debug_str:0000000000000126 .LASF10
     /tmp/cckEJtbO.s:2684   .debug_str:00000000000002de .LASF11
     /tmp/cckEJtbO.s:2702   .debug_str:000000000000040c .LASF12
     /tmp/cckEJtbO.s:2608   .debug_str:000000000000009e .LASF13
     /tmp/cckEJtbO.s:2592   .debug_str:000000000000001f .LASF14
     /tmp/cckEJtbO.s:2610   .debug_str:00000000000000ae .LASF15
GAS LISTING /tmp/cckEJtbO.s 			page 22


     /tmp/cckEJtbO.s:2692   .debug_str:0000000000000309 .LASF16
     /tmp/cckEJtbO.s:2614   .debug_str:00000000000000ca .LASF17
     /tmp/cckEJtbO.s:2596   .debug_str:000000000000003b .LASF56
     /tmp/cckEJtbO.s:2634   .debug_str:0000000000000161 .LASF18
     /tmp/cckEJtbO.s:2688   .debug_str:00000000000002f8 .LASF20
     /tmp/cckEJtbO.s:2682   .debug_str:00000000000002d3 .LASF22
     /tmp/cckEJtbO.s:2626   .debug_str:000000000000010f .LASF24
     /tmp/cckEJtbO.s:2656   .debug_str:00000000000001f8 .LASF19
     /tmp/cckEJtbO.s:2636   .debug_str:0000000000000166 .LASF21
     /tmp/cckEJtbO.s:2650   .debug_str:00000000000001cf .LASF23
     /tmp/cckEJtbO.s:2602   .debug_str:000000000000005b .LASF25
     /tmp/cckEJtbO.s:2648   .debug_str:00000000000001c2 .LASF26
     /tmp/cckEJtbO.s:2672   .debug_str:000000000000026a .LASF27
     /tmp/cckEJtbO.s:2690   .debug_str:0000000000000304 .LASF57
     /tmp/cckEJtbO.s:2694   .debug_str:000000000000031f .LASF58
     /tmp/cckEJtbO.s:2660   .debug_str:0000000000000216 .LASF59
     /tmp/cckEJtbO.s:2618   .debug_str:00000000000000e6 .LASF60
     /tmp/cckEJtbO.s:2630   .debug_str:0000000000000134 .LASF61
     /tmp/cckEJtbO.s:2644   .debug_str:00000000000001b5 .LASF28
     /tmp/cckEJtbO.s:2716   .debug_str:000000000000047a .LASF29
     /tmp/cckEJtbO.s:2646   .debug_str:00000000000001ba .LASF30
     /tmp/cckEJtbO.s:2686   .debug_str:00000000000002ed .LASF31
     /tmp/cckEJtbO.s:2642   .debug_str:00000000000001ac .LASF32
     /tmp/cckEJtbO.s:2652   .debug_str:00000000000001dc .LASF33
     /tmp/cckEJtbO.s:2632   .debug_str:0000000000000148 .LASF35
     /tmp/cckEJtbO.s:2710   .debug_str:0000000000000447 .LASF62
     /tmp/cckEJtbO.s:2638   .debug_str:000000000000017d .LASF63
     /tmp/cckEJtbO.s:2670   .debug_str:0000000000000261 .LASF34
     /tmp/cckEJtbO.s:2620   .debug_str:00000000000000ee .LASF36
     /tmp/cckEJtbO.s:2698   .debug_str:0000000000000337 .LASF64
     /tmp/cckEJtbO.s:2622   .debug_str:0000000000000101 .LASF37
     /tmp/cckEJtbO.s:2600   .debug_str:000000000000004f .LASF38
     /tmp/cckEJtbO.s:2658   .debug_str:0000000000000204 .LASF39
     /tmp/cckEJtbO.s:498    .text:0000000000000314 .LFB28
     /tmp/cckEJtbO.s:634    .text:0000000000000438 .LFE28
     /tmp/cckEJtbO.s:2339   .debug_loc:0000000000000000 .LLST13
     /tmp/cckEJtbO.s:2353   .debug_loc:0000000000000039 .LLST14
     /tmp/cckEJtbO.s:2586   .debug_str:0000000000000000 .LASF40
     /tmp/cckEJtbO.s:2373   .debug_loc:0000000000000096 .LLST15
     /tmp/cckEJtbO.s:525    .text:0000000000000344 .LVL64
     /tmp/cckEJtbO.s:532    .text:0000000000000358 .LVL65
     /tmp/cckEJtbO.s:537    .text:0000000000000368 .LVL66
     /tmp/cckEJtbO.s:552    .text:0000000000000388 .LVL69
     /tmp/cckEJtbO.s:563    .text:0000000000000394 .LVL70
     /tmp/cckEJtbO.s:568    .text:00000000000003a0 .LVL71
     /tmp/cckEJtbO.s:576    .text:00000000000003b4 .LVL74
     /tmp/cckEJtbO.s:583    .text:00000000000003c8 .LVL75
     /tmp/cckEJtbO.s:588    .text:00000000000003d8 .LVL76
     /tmp/cckEJtbO.s:595    .text:00000000000003ec .LVL77
     /tmp/cckEJtbO.s:602    .text:0000000000000400 .LVL78
     /tmp/cckEJtbO.s:607    .text:0000000000000410 .LVL79
     /tmp/cckEJtbO.s:2590   .debug_str:0000000000000013 .LASF41
     /tmp/cckEJtbO.s:2676   .debug_str:000000000000029d .LASF42
     /tmp/cckEJtbO.s:319    .text:00000000000001b8 .LFB27
     /tmp/cckEJtbO.s:481    .text:0000000000000314 .LFE27
     /tmp/cckEJtbO.s:2384   .debug_loc:00000000000000cc .LLST9
     /tmp/cckEJtbO.s:2398   .debug_loc:0000000000000105 .LLST10
GAS LISTING /tmp/cckEJtbO.s 			page 23


     /tmp/cckEJtbO.s:2418   .debug_loc:0000000000000162 .LLST11
     /tmp/cckEJtbO.s:2426   .debug_loc:0000000000000186 .LLST12
     /tmp/cckEJtbO.s:346    .text:00000000000001e8 .LVL37
     /tmp/cckEJtbO.s:353    .text:00000000000001fc .LVL38
     /tmp/cckEJtbO.s:358    .text:000000000000020c .LVL39
     /tmp/cckEJtbO.s:373    .text:000000000000022c .LVL42
     /tmp/cckEJtbO.s:384    .text:0000000000000238 .LVL43
     /tmp/cckEJtbO.s:398    .text:000000000000024c .LVL45
     /tmp/cckEJtbO.s:405    .text:0000000000000260 .LVL46
     /tmp/cckEJtbO.s:410    .text:0000000000000270 .LVL47
     /tmp/cckEJtbO.s:415    .text:000000000000027c .LVL48
     /tmp/cckEJtbO.s:423    .text:0000000000000290 .LVL51
     /tmp/cckEJtbO.s:430    .text:00000000000002a4 .LVL52
     /tmp/cckEJtbO.s:435    .text:00000000000002b4 .LVL53
     /tmp/cckEJtbO.s:442    .text:00000000000002c8 .LVL54
     /tmp/cckEJtbO.s:449    .text:00000000000002dc .LVL55
     /tmp/cckEJtbO.s:454    .text:00000000000002ec .LVL56
     /tmp/cckEJtbO.s:2708   .debug_str:000000000000043d .LASF65
     /tmp/cckEJtbO.s:9      .text:0000000000000000 .LFB26
     /tmp/cckEJtbO.s:74     .text:0000000000000070 .LFE26
     /tmp/cckEJtbO.s:2437   .debug_loc:00000000000001bc .LLST0
     /tmp/cckEJtbO.s:41     .text:0000000000000038 .LVL2
     /tmp/cckEJtbO.s:46     .text:0000000000000048 .LVL3
     /tmp/cckEJtbO.s:71     .text:000000000000006c .LVL6
     /tmp/cckEJtbO.s:2588   .debug_str:0000000000000007 .LASF43
     /tmp/cckEJtbO.s:2712   .debug_str:0000000000000455 .LASF44
     /tmp/cckEJtbO.s:201    .text:0000000000000118 .LFB25
     /tmp/cckEJtbO.s:299    .text:00000000000001b8 .LFE25
     /tmp/cckEJtbO.s:2459   .debug_loc:000000000000021b .LLST5
     /tmp/cckEJtbO.s:217    .text:000000000000012c .LBB8
     /tmp/cckEJtbO.s:285    .text:00000000000001a4 .LBE8
     /tmp/cckEJtbO.s:2473   .debug_loc:0000000000000254 .LLST6
     /tmp/cckEJtbO.s:2570   .debug_ranges:0000000000000000 .Ldebug_ranges0
     /tmp/cckEJtbO.s:2485   .debug_loc:000000000000028b .LLST7
     /tmp/cckEJtbO.s:233    .text:0000000000000144 .LBB11
     /tmp/cckEJtbO.s:248    .text:000000000000015c .LBE11
     /tmp/cckEJtbO.s:2497   .debug_loc:00000000000002c2 .LLST8
     /tmp/cckEJtbO.s:263    .text:0000000000000178 .LVL29
     /tmp/cckEJtbO.s:270    .text:000000000000018c .LVL30
     /tmp/cckEJtbO.s:275    .text:000000000000019c .LVL31
     /tmp/cckEJtbO.s:2662   .debug_str:0000000000000226 .LASF45
     /tmp/cckEJtbO.s:2704   .debug_str:000000000000041b .LASF46
     /tmp/cckEJtbO.s:88     .text:0000000000000070 .LFB24
     /tmp/cckEJtbO.s:190    .text:0000000000000118 .LFE24
     /tmp/cckEJtbO.s:2508   .debug_loc:00000000000002f8 .LLST1
     /tmp/cckEJtbO.s:104    .text:0000000000000084 .LBB2
     /tmp/cckEJtbO.s:176    .text:0000000000000104 .LBE2
     /tmp/cckEJtbO.s:2522   .debug_loc:0000000000000331 .LLST2
     /tmp/cckEJtbO.s:2534   .debug_loc:0000000000000368 .LLST3
     /tmp/cckEJtbO.s:120    .text:000000000000009c .LBB5
     /tmp/cckEJtbO.s:135    .text:00000000000000b4 .LBE5
     /tmp/cckEJtbO.s:2546   .debug_loc:000000000000039f .LLST4
     /tmp/cckEJtbO.s:150    .text:00000000000000d0 .LVL15
     /tmp/cckEJtbO.s:157    .text:00000000000000e4 .LVL16
     /tmp/cckEJtbO.s:162    .text:00000000000000f4 .LVL17
     /tmp/cckEJtbO.s:166    .text:00000000000000fc .LVL18
     /tmp/cckEJtbO.s:2714   .debug_str:0000000000000467 .LASF47
GAS LISTING /tmp/cckEJtbO.s 			page 24


     /tmp/cckEJtbO.s:2594   .debug_str:000000000000002f .LASF49
     /tmp/cckEJtbO.s:2664   .debug_str:0000000000000232 .LASF48
     /tmp/cckEJtbO.s:2624   .debug_str:0000000000000106 .LASF50
     /tmp/cckEJtbO.s:2678   .debug_str:00000000000002af .LASF51
     /tmp/cckEJtbO.s:2598   .debug_str:0000000000000043 .LASF52
     /tmp/cckEJtbO.s:501    .text:0000000000000314 .LVL61
     /tmp/cckEJtbO.s:519    .text:0000000000000334 .LVL63
     /tmp/cckEJtbO.s:515    .text:000000000000032c .LVL62
     /tmp/cckEJtbO.s:540    .text:000000000000036c .LVL67
     /tmp/cckEJtbO.s:542    .text:0000000000000370 .LVL68
     /tmp/cckEJtbO.s:610    .text:0000000000000414 .LVL80
     /tmp/cckEJtbO.s:612    .text:0000000000000418 .LVL81
     /tmp/cckEJtbO.s:626    .text:000000000000042c .LVL82
     /tmp/cckEJtbO.s:570    .text:00000000000003a4 .LVL72
     /tmp/cckEJtbO.s:574    .text:00000000000003ac .LVL73
     /tmp/cckEJtbO.s:629    .text:0000000000000430 .LVL83
     /tmp/cckEJtbO.s:322    .text:00000000000001b8 .LVL34
     /tmp/cckEJtbO.s:340    .text:00000000000001d8 .LVL36
     /tmp/cckEJtbO.s:336    .text:00000000000001d0 .LVL35
     /tmp/cckEJtbO.s:361    .text:0000000000000210 .LVL40
     /tmp/cckEJtbO.s:363    .text:0000000000000214 .LVL41
     /tmp/cckEJtbO.s:457    .text:00000000000002f0 .LVL57
     /tmp/cckEJtbO.s:459    .text:00000000000002f4 .LVL58
     /tmp/cckEJtbO.s:473    .text:0000000000000308 .LVL59
     /tmp/cckEJtbO.s:392    .text:000000000000023c .LVL44
     /tmp/cckEJtbO.s:417    .text:0000000000000280 .LVL49
     /tmp/cckEJtbO.s:421    .text:0000000000000288 .LVL50
     /tmp/cckEJtbO.s:476    .text:000000000000030c .LVL60
     /tmp/cckEJtbO.s:13     .text:0000000000000000 .LVL0
     /tmp/cckEJtbO.s:35     .text:000000000000002c .LVL1
     /tmp/cckEJtbO.s:59     .text:0000000000000058 .LVL4
     /tmp/cckEJtbO.s:65     .text:0000000000000064 .LVL5
     /tmp/cckEJtbO.s:204    .text:0000000000000118 .LVL21
     /tmp/cckEJtbO.s:221    .text:0000000000000134 .LVL23
     /tmp/cckEJtbO.s:216    .text:000000000000012c .LVL22
     /tmp/cckEJtbO.s:294    .text:00000000000001b0 .LVL33
     /tmp/cckEJtbO.s:253    .text:0000000000000160 .LVL28
     /tmp/cckEJtbO.s:281    .text:00000000000001a4 .LVL32
     /tmp/cckEJtbO.s:227    .text:0000000000000138 .LVL24
     /tmp/cckEJtbO.s:237    .text:0000000000000148 .LVL25
     /tmp/cckEJtbO.s:246    .text:000000000000015c .LVL27
     /tmp/cckEJtbO.s:91     .text:0000000000000070 .LVL7
     /tmp/cckEJtbO.s:108    .text:000000000000008c .LVL9
     /tmp/cckEJtbO.s:103    .text:0000000000000084 .LVL8
     /tmp/cckEJtbO.s:185    .text:0000000000000110 .LVL20
     /tmp/cckEJtbO.s:140    .text:00000000000000b8 .LVL14
     /tmp/cckEJtbO.s:172    .text:0000000000000104 .LVL19
     /tmp/cckEJtbO.s:114    .text:0000000000000090 .LVL10
     /tmp/cckEJtbO.s:124    .text:00000000000000a0 .LVL11
     /tmp/cckEJtbO.s:133    .text:00000000000000b4 .LVL13
     /tmp/cckEJtbO.s:642    .debug_info:0000000000000000 .Ldebug_info0
     /tmp/cckEJtbO.s:111    .text:000000000000008c .LBB4
     /tmp/cckEJtbO.s:136    .text:00000000000000b4 .LBE4
     /tmp/cckEJtbO.s:168    .text:00000000000000fc .LBB6
     /tmp/cckEJtbO.s:174    .text:0000000000000104 .LBE6
     /tmp/cckEJtbO.s:224    .text:0000000000000134 .LBB10
     /tmp/cckEJtbO.s:249    .text:000000000000015c .LBE10
GAS LISTING /tmp/cckEJtbO.s 			page 25


     /tmp/cckEJtbO.s:277    .text:000000000000019c .LBB12
     /tmp/cckEJtbO.s:283    .text:00000000000001a4 .LBE12

UNDEFINED SYMBOLS
_ZN3TCB5yieldEv
_Z11printStringPKc
_Z8printIntiii
_Z11thread_exitv
