GAS LISTING /tmp/ccs4Eym4.s 			page 1


   1              		.file	"workers.cpp"
   2              		.option pic
   3              		.option norelax
   4              		.text
   5              	.Ltext0:
   6              		.align	2
   8              	_ZL9fibonaccim:
   9              	.LFB25:
  10              		.file 1 "src/workers.cpp"
   1:src/workers.cpp **** //
   2:src/workers.cpp **** // Created by marko on 20.4.22..
   3:src/workers.cpp **** //
   4:src/workers.cpp **** 
   5:src/workers.cpp **** #include "../lib/hw.h"
   6:src/workers.cpp **** #include "../h/tcb.hpp"
   7:src/workers.cpp **** #include "../h/printing.hpp"
   8:src/workers.cpp **** 
   9:src/workers.cpp **** void workerBodyA()
  10:src/workers.cpp **** {
  11:src/workers.cpp ****     for (uint64 i = 0; i < 10; i++)
  12:src/workers.cpp ****     {
  13:src/workers.cpp ****         printString("A: i=");
  14:src/workers.cpp ****         printInt(i);
  15:src/workers.cpp ****         printString("\n");
  16:src/workers.cpp ****         for (uint64 j = 0; j < 10000; j++)
  17:src/workers.cpp ****         {
  18:src/workers.cpp ****             for (uint64 k = 0; k < 30000; k++)
  19:src/workers.cpp ****             {
  20:src/workers.cpp ****                 // busy wait
  21:src/workers.cpp ****             }
  22:src/workers.cpp **** //            TCB::yield();
  23:src/workers.cpp ****         }
  24:src/workers.cpp ****     }
  25:src/workers.cpp **** }
  26:src/workers.cpp **** 
  27:src/workers.cpp **** void workerBodyB()
  28:src/workers.cpp **** {
  29:src/workers.cpp ****     for (uint64 i = 0; i < 16; i++)
  30:src/workers.cpp ****     {
  31:src/workers.cpp ****         printString("B: i=");
  32:src/workers.cpp ****         printInt(i);
  33:src/workers.cpp ****         printString("\n");
  34:src/workers.cpp ****         for (uint64 j = 0; j < 10000; j++)
  35:src/workers.cpp ****         {
  36:src/workers.cpp ****             for (uint64 k = 0; k < 30000; k++)
  37:src/workers.cpp ****             {
  38:src/workers.cpp ****                 // busy wait
  39:src/workers.cpp ****             }
  40:src/workers.cpp **** //            TCB::yield();
  41:src/workers.cpp ****         }
  42:src/workers.cpp ****     }
  43:src/workers.cpp **** }
  44:src/workers.cpp **** 
  45:src/workers.cpp **** static uint64 fibonacci(uint64 n)
  46:src/workers.cpp **** {
  11              		.loc 1 46 1
  12              		.cfi_startproc
GAS LISTING /tmp/ccs4Eym4.s 			page 2


  13              	.LVL0:
  14 0000 130101FE 		addi	sp,sp,-32
  15              		.cfi_def_cfa_offset 32
  16 0004 233C1100 		sd	ra,24(sp)
  17 0008 23388100 		sd	s0,16(sp)
  18 000c 23349100 		sd	s1,8(sp)
  19 0010 23302101 		sd	s2,0(sp)
  20              		.cfi_offset 1, -8
  21              		.cfi_offset 8, -16
  22              		.cfi_offset 9, -24
  23              		.cfi_offset 18, -32
  24 0014 13040102 		addi	s0,sp,32
  25              		.cfi_def_cfa 8, 0
  26 0018 93040500 		mv	s1,a0
  47:src/workers.cpp ****     if (n == 0 || n == 1) { return n; }
  27              		.loc 1 47 5
  28 001c 93071000 		li	a5,1
  29 0020 63F8A702 		bleu	a0,a5,.L1
  48:src/workers.cpp ****     if (n % 10 == 0) { TCB::yield(); }
  30              		.loc 1 48 5
  31              		.loc 1 48 11 is_stmt 0
  32 0024 9307A000 		li	a5,10
  33 0028 B377F502 		remu	a5,a0,a5
  34              		.loc 1 48 5
  35 002c 638E0702 		beqz	a5,.L6
  36              	.LVL1:
  37              	.L3:
  49:src/workers.cpp ****     return fibonacci(n - 1) + fibonacci(n - 2);
  38              		.loc 1 49 5 is_stmt 1
  39              		.loc 1 49 21 is_stmt 0
  40 0030 1385F4FF 		addi	a0,s1,-1
  41 0034 97000000 		call	_ZL9fibonaccim
  41      E7800000 
  42              	.LVL2:
  43 003c 13090500 		mv	s2,a0
  44              		.loc 1 49 40
  45 0040 1385E4FF 		addi	a0,s1,-2
  46 0044 97000000 		call	_ZL9fibonaccim
  46      E7800000 
  47              	.LVL3:
  48              		.loc 1 49 46
  49 004c 3305A900 		add	a0,s2,a0
  50              	.L1:
  50:src/workers.cpp **** }
  51              		.loc 1 50 1
  52 0050 83308101 		ld	ra,24(sp)
  53              		.cfi_remember_state
  54              		.cfi_restore 1
  55 0054 03340101 		ld	s0,16(sp)
  56              		.cfi_restore 8
  57              		.cfi_def_cfa 2, 32
  58 0058 83348100 		ld	s1,8(sp)
  59              		.cfi_restore 9
  60              	.LVL4:
  61 005c 03390100 		ld	s2,0(sp)
  62              		.cfi_restore 18
  63 0060 13010102 		addi	sp,sp,32
GAS LISTING /tmp/ccs4Eym4.s 			page 3


  64              		.cfi_def_cfa_offset 0
  65 0064 67800000 		jr	ra
  66              	.LVL5:
  67              	.L6:
  68              		.cfi_restore_state
  48:src/workers.cpp ****     if (n % 10 == 0) { TCB::yield(); }
  69              		.loc 1 48 24 is_stmt 1 discriminator 1
  48:src/workers.cpp ****     if (n % 10 == 0) { TCB::yield(); }
  70              		.loc 1 48 34 is_stmt 0 discriminator 1
  71 0068 97000000 		call	_ZN3TCB5yieldEv@plt
  71      E7800000 
  72              	.LVL6:
  73 0070 6FF01FFC 		j	.L3
  74              		.cfi_endproc
  75              	.LFE25:
  77              		.section	.rodata.str1.8,"aMS",@progbits,1
  78              		.align	3
  79              	.LC0:
  80 0000 413A2069 		.string	"A: i="
  80      3D00
  81 0006 0000     		.align	3
  82              	.LC1:
  83 0008 0A00     		.string	"\n"
  84              		.text
  85              		.align	2
  86              		.globl	_Z11workerBodyAv
  88              	_Z11workerBodyAv:
  89              	.LFB23:
  10:src/workers.cpp ****     for (uint64 i = 0; i < 10; i++)
  90              		.loc 1 10 1 is_stmt 1
  91              		.cfi_startproc
  92 0074 130101FE 		addi	sp,sp,-32
  93              		.cfi_def_cfa_offset 32
  94 0078 233C1100 		sd	ra,24(sp)
  95 007c 23388100 		sd	s0,16(sp)
  96 0080 23349100 		sd	s1,8(sp)
  97              		.cfi_offset 1, -8
  98              		.cfi_offset 8, -16
  99              		.cfi_offset 9, -24
 100 0084 13040102 		addi	s0,sp,32
 101              		.cfi_def_cfa 8, 0
  11:src/workers.cpp ****     {
 102              		.loc 1 11 5
 103              	.LVL7:
 104              	.LBB2:
  11:src/workers.cpp ****     {
 105              		.loc 1 11 17 is_stmt 0
 106 0088 93040000 		li	s1,0
 107 008c 6F000003 		j	.L13
 108              	.LVL8:
 109              	.L10:
 110              	.LBB3:
 111              	.LBB4:
  16:src/workers.cpp ****         {
 112              		.loc 1 16 9 is_stmt 1 discriminator 2
 113 0090 93861600 		addi	a3,a3,1
 114              	.LVL9:
GAS LISTING /tmp/ccs4Eym4.s 			page 4


 115              	.L12:
  16:src/workers.cpp ****         {
 116              		.loc 1 16 30 discriminator 1
 117 0094 B7270000 		li	a5,8192
 118 0098 9387F770 		addi	a5,a5,1807
 119 009c 63EED700 		bgtu	a3,a5,.L9
 120              	.LBB5:
  18:src/workers.cpp ****             {
 121              		.loc 1 18 25 is_stmt 0
 122 00a0 13070000 		li	a4,0
 123              	.L11:
 124              	.LVL10:
  18:src/workers.cpp ****             {
 125              		.loc 1 18 34 is_stmt 1 discriminator 3
 126 00a4 B7770000 		li	a5,28672
 127 00a8 9387F752 		addi	a5,a5,1327
 128 00ac E3E2E7FE 		bgtu	a4,a5,.L10
  18:src/workers.cpp ****             {
 129              		.loc 1 18 13 discriminator 2
 130 00b0 13071700 		addi	a4,a4,1
 131              	.LVL11:
 132 00b4 6FF01FFF 		j	.L11
 133              	.LVL12:
 134              	.L9:
 135              	.LBE5:
 136              	.LBE4:
 137              	.LBE3:
  11:src/workers.cpp ****     {
 138              		.loc 1 11 5 discriminator 2
 139 00b8 93841400 		addi	s1,s1,1
 140              	.LVL13:
 141              	.L13:
  11:src/workers.cpp ****     {
 142              		.loc 1 11 26 discriminator 1
 143 00bc 93079000 		li	a5,9
 144 00c0 63E09704 		bgtu	s1,a5,.L7
 145              	.LBB7:
  13:src/workers.cpp ****         printInt(i);
 146              		.loc 1 13 9
  13:src/workers.cpp ****         printInt(i);
 147              		.loc 1 13 20 is_stmt 0
 148 00c4 17050000 		lla	a0,.LC0
 148      13050500 
 149 00cc 97000000 		call	_Z11printStringPKc@plt
 149      E7800000 
 150              	.LVL14:
  14:src/workers.cpp ****         printString("\n");
 151              		.loc 1 14 9 is_stmt 1
  14:src/workers.cpp ****         printString("\n");
 152              		.loc 1 14 17 is_stmt 0
 153 00d4 13060000 		li	a2,0
 154 00d8 9305A000 		li	a1,10
 155 00dc 1B850400 		sext.w	a0,s1
 156 00e0 97000000 		call	_Z8printIntiii@plt
 156      E7800000 
 157              	.LVL15:
  15:src/workers.cpp ****         for (uint64 j = 0; j < 10000; j++)
GAS LISTING /tmp/ccs4Eym4.s 			page 5


 158              		.loc 1 15 9 is_stmt 1
  15:src/workers.cpp ****         for (uint64 j = 0; j < 10000; j++)
 159              		.loc 1 15 20 is_stmt 0
 160 00e8 17050000 		lla	a0,.LC1
 160      13050500 
 161 00f0 97000000 		call	_Z11printStringPKc@plt
 161      E7800000 
 162              	.LVL16:
  16:src/workers.cpp ****         {
 163              		.loc 1 16 9 is_stmt 1
 164              	.LBB6:
  16:src/workers.cpp ****         {
 165              		.loc 1 16 21 is_stmt 0
 166 00f8 93060000 		li	a3,0
 167 00fc 6FF09FF9 		j	.L12
 168              	.LVL17:
 169              	.L7:
 170              	.LBE6:
 171              	.LBE7:
 172              	.LBE2:
  25:src/workers.cpp **** 
 173              		.loc 1 25 1
 174 0100 83308101 		ld	ra,24(sp)
 175              		.cfi_restore 1
 176 0104 03340101 		ld	s0,16(sp)
 177              		.cfi_restore 8
 178              		.cfi_def_cfa 2, 32
 179 0108 83348100 		ld	s1,8(sp)
 180              		.cfi_restore 9
 181              	.LVL18:
 182 010c 13010102 		addi	sp,sp,32
 183              		.cfi_def_cfa_offset 0
 184 0110 67800000 		jr	ra
 185              		.cfi_endproc
 186              	.LFE23:
 188              		.section	.rodata.str1.8
 189 000a 00000000 		.align	3
 189      0000
 190              	.LC2:
 191 0010 423A2069 		.string	"B: i="
 191      3D00
 192              		.text
 193              		.align	2
 194              		.globl	_Z11workerBodyBv
 196              	_Z11workerBodyBv:
 197              	.LFB24:
  28:src/workers.cpp ****     for (uint64 i = 0; i < 16; i++)
 198              		.loc 1 28 1 is_stmt 1
 199              		.cfi_startproc
 200 0114 130101FE 		addi	sp,sp,-32
 201              		.cfi_def_cfa_offset 32
 202 0118 233C1100 		sd	ra,24(sp)
 203 011c 23388100 		sd	s0,16(sp)
 204 0120 23349100 		sd	s1,8(sp)
 205              		.cfi_offset 1, -8
 206              		.cfi_offset 8, -16
 207              		.cfi_offset 9, -24
GAS LISTING /tmp/ccs4Eym4.s 			page 6


 208 0124 13040102 		addi	s0,sp,32
 209              		.cfi_def_cfa 8, 0
  29:src/workers.cpp ****     {
 210              		.loc 1 29 5
 211              	.LVL19:
 212              	.LBB8:
  29:src/workers.cpp ****     {
 213              		.loc 1 29 17 is_stmt 0
 214 0128 93040000 		li	s1,0
 215 012c 6F000003 		j	.L21
 216              	.LVL20:
 217              	.L18:
 218              	.LBB9:
 219              	.LBB10:
  34:src/workers.cpp ****         {
 220              		.loc 1 34 9 is_stmt 1 discriminator 2
 221 0130 93861600 		addi	a3,a3,1
 222              	.LVL21:
 223              	.L20:
  34:src/workers.cpp ****         {
 224              		.loc 1 34 30 discriminator 1
 225 0134 B7270000 		li	a5,8192
 226 0138 9387F770 		addi	a5,a5,1807
 227 013c 63EED700 		bgtu	a3,a5,.L17
 228              	.LBB11:
  36:src/workers.cpp ****             {
 229              		.loc 1 36 25 is_stmt 0
 230 0140 13070000 		li	a4,0
 231              	.L19:
 232              	.LVL22:
  36:src/workers.cpp ****             {
 233              		.loc 1 36 34 is_stmt 1 discriminator 3
 234 0144 B7770000 		li	a5,28672
 235 0148 9387F752 		addi	a5,a5,1327
 236 014c E3E2E7FE 		bgtu	a4,a5,.L18
  36:src/workers.cpp ****             {
 237              		.loc 1 36 13 discriminator 2
 238 0150 13071700 		addi	a4,a4,1
 239              	.LVL23:
 240 0154 6FF01FFF 		j	.L19
 241              	.LVL24:
 242              	.L17:
 243              	.LBE11:
 244              	.LBE10:
 245              	.LBE9:
  29:src/workers.cpp ****     {
 246              		.loc 1 29 5 discriminator 2
 247 0158 93841400 		addi	s1,s1,1
 248              	.LVL25:
 249              	.L21:
  29:src/workers.cpp ****     {
 250              		.loc 1 29 26 discriminator 1
 251 015c 9307F000 		li	a5,15
 252 0160 63E09704 		bgtu	s1,a5,.L15
 253              	.LBB13:
  31:src/workers.cpp ****         printInt(i);
 254              		.loc 1 31 9
GAS LISTING /tmp/ccs4Eym4.s 			page 7


  31:src/workers.cpp ****         printInt(i);
 255              		.loc 1 31 20 is_stmt 0
 256 0164 17050000 		lla	a0,.LC2
 256      13050500 
 257 016c 97000000 		call	_Z11printStringPKc@plt
 257      E7800000 
 258              	.LVL26:
  32:src/workers.cpp ****         printString("\n");
 259              		.loc 1 32 9 is_stmt 1
  32:src/workers.cpp ****         printString("\n");
 260              		.loc 1 32 17 is_stmt 0
 261 0174 13060000 		li	a2,0
 262 0178 9305A000 		li	a1,10
 263 017c 1B850400 		sext.w	a0,s1
 264 0180 97000000 		call	_Z8printIntiii@plt
 264      E7800000 
 265              	.LVL27:
  33:src/workers.cpp ****         for (uint64 j = 0; j < 10000; j++)
 266              		.loc 1 33 9 is_stmt 1
  33:src/workers.cpp ****         for (uint64 j = 0; j < 10000; j++)
 267              		.loc 1 33 20 is_stmt 0
 268 0188 17050000 		lla	a0,.LC1
 268      13050500 
 269 0190 97000000 		call	_Z11printStringPKc@plt
 269      E7800000 
 270              	.LVL28:
  34:src/workers.cpp ****         {
 271              		.loc 1 34 9 is_stmt 1
 272              	.LBB12:
  34:src/workers.cpp ****         {
 273              		.loc 1 34 21 is_stmt 0
 274 0198 93060000 		li	a3,0
 275 019c 6FF09FF9 		j	.L20
 276              	.LVL29:
 277              	.L15:
 278              	.LBE12:
 279              	.LBE13:
 280              	.LBE8:
  43:src/workers.cpp **** 
 281              		.loc 1 43 1
 282 01a0 83308101 		ld	ra,24(sp)
 283              		.cfi_restore 1
 284 01a4 03340101 		ld	s0,16(sp)
 285              		.cfi_restore 8
 286              		.cfi_def_cfa 2, 32
 287 01a8 83348100 		ld	s1,8(sp)
 288              		.cfi_restore 9
 289              	.LVL30:
 290 01ac 13010102 		addi	sp,sp,32
 291              		.cfi_def_cfa_offset 0
 292 01b0 67800000 		jr	ra
 293              		.cfi_endproc
 294              	.LFE24:
 296              		.section	.rodata.str1.8
 297 0016 0000     		.align	3
 298              	.LC3:
 299 0018 433A2069 		.string	"C: i="
GAS LISTING /tmp/ccs4Eym4.s 			page 8


 299      3D00
 300 001e 0000     		.align	3
 301              	.LC4:
 302 0020 433A2079 		.string	"C: yield\n"
 302      69656C64 
 302      0A00
 303 002a 00000000 		.align	3
 303      0000
 304              	.LC5:
 305 0030 433A2074 		.string	"C: t1="
 305      313D00
 306 0037 00       		.align	3
 307              	.LC6:
 308 0038 433A2066 		.string	"C: fibonaci="
 308      69626F6E 
 308      6163693D 
 308      00
 309              		.text
 310              		.align	2
 311              		.globl	_Z11workerBodyCv
 313              	_Z11workerBodyCv:
 314              	.LFB26:
  51:src/workers.cpp **** 
  52:src/workers.cpp **** void workerBodyC()
  53:src/workers.cpp **** {
 315              		.loc 1 53 1 is_stmt 1
 316              		.cfi_startproc
 317 01b4 130101FE 		addi	sp,sp,-32
 318              		.cfi_def_cfa_offset 32
 319 01b8 233C1100 		sd	ra,24(sp)
 320 01bc 23388100 		sd	s0,16(sp)
 321 01c0 23349100 		sd	s1,8(sp)
 322 01c4 23302101 		sd	s2,0(sp)
 323              		.cfi_offset 1, -8
 324              		.cfi_offset 8, -16
 325              		.cfi_offset 9, -24
 326              		.cfi_offset 18, -32
 327 01c8 13040102 		addi	s0,sp,32
 328              		.cfi_def_cfa 8, 0
  54:src/workers.cpp ****     uint8 i = 0;
 329              		.loc 1 54 5
 330              	.LVL31:
 331              		.loc 1 54 11 is_stmt 0
 332 01cc 93040000 		li	s1,0
 333 01d0 6F000004 		j	.L25
 334              	.LVL32:
 335              	.L29:
  55:src/workers.cpp ****     for (; i < 3; i++)
  56:src/workers.cpp ****     {
  57:src/workers.cpp ****         printString("C: i=");
 336              		.loc 1 57 9 is_stmt 1 discriminator 1
 337              		.loc 1 57 20 is_stmt 0 discriminator 1
 338 01d4 17050000 		lla	a0,.LC3
 338      13050500 
 339 01dc 97000000 		call	_Z11printStringPKc@plt
 339      E7800000 
 340              	.LVL33:
GAS LISTING /tmp/ccs4Eym4.s 			page 9


  58:src/workers.cpp ****         printInt(i);
 341              		.loc 1 58 9 is_stmt 1 discriminator 1
 342              		.loc 1 58 17 is_stmt 0 discriminator 1
 343 01e4 13060000 		li	a2,0
 344 01e8 9305A000 		li	a1,10
 345 01ec 13850400 		mv	a0,s1
 346 01f0 97000000 		call	_Z8printIntiii@plt
 346      E7800000 
 347              	.LVL34:
  59:src/workers.cpp ****         printString("\n");
 348              		.loc 1 59 9 is_stmt 1 discriminator 1
 349              		.loc 1 59 20 is_stmt 0 discriminator 1
 350 01f8 17050000 		lla	a0,.LC1
 350      13050500 
 351 0200 97000000 		call	_Z11printStringPKc@plt
 351      E7800000 
 352              	.LVL35:
  55:src/workers.cpp ****     for (; i < 3; i++)
 353              		.loc 1 55 5 is_stmt 1 discriminator 1
 354 0208 9B841400 		addiw	s1,s1,1
 355              	.LVL36:
 356 020c 93F4F40F 		andi	s1,s1,0xff
 357              	.LVL37:
 358              	.L25:
  55:src/workers.cpp ****     for (; i < 3; i++)
 359              		.loc 1 55 5 discriminator 2
  55:src/workers.cpp ****     for (; i < 3; i++)
 360              		.loc 1 55 14 discriminator 2
 361 0210 93072000 		li	a5,2
 362 0214 E3F097FC 		bleu	s1,a5,.L29
  60:src/workers.cpp ****     }
  61:src/workers.cpp **** 
  62:src/workers.cpp ****     printString("C: yield\n");
 363              		.loc 1 62 5
 364              		.loc 1 62 16 is_stmt 0
 365 0218 17050000 		lla	a0,.LC4
 365      13050500 
 366 0220 97000000 		call	_Z11printStringPKc@plt
 366      E7800000 
 367              	.LVL38:
  63:src/workers.cpp ****     __asm__ ("li t1, 7");
 368              		.loc 1 63 5 is_stmt 1
 369              		.loc 1 63 25 is_stmt 0
 370              	#APP
 371              	# 63 "src/workers.cpp" 1
  64              	    TCB::yield();
 372              		li t1, 7
 373              	# 0 "" 2
 374              		.loc 1 64 5 is_stmt 1
 375              		.loc 1 64 15 is_stmt 0
 376              	#NO_APP
 377 022c 97000000 		call	_ZN3TCB5yieldEv@plt
 377      E7800000 
 378              	.LVL39:
  65:src/workers.cpp **** 
  66:src/workers.cpp ****     uint64 t1 = 0;
 379              		.loc 1 66 5 is_stmt 1
GAS LISTING /tmp/ccs4Eym4.s 			page 10


  67:src/workers.cpp ****     __asm__ ("mv %[t1], t1" : [t1] "=r"(t1));
 380              		.loc 1 67 5
 381              		.loc 1 67 45 is_stmt 0
 382              	#APP
 383              	# 67 "src/workers.cpp" 1
  68              	
 384              		mv s2, t1
 385              	# 0 "" 2
 386              	.LVL40:
  69:src/workers.cpp ****     printString("C: t1=");
 387              		.loc 1 69 5 is_stmt 1
 388              		.loc 1 69 16 is_stmt 0
 389              	#NO_APP
 390 0238 17050000 		lla	a0,.LC5
 390      13050500 
 391 0240 97000000 		call	_Z11printStringPKc@plt
 391      E7800000 
 392              	.LVL41:
  70:src/workers.cpp ****     printInt(t1);
 393              		.loc 1 70 5 is_stmt 1
 394              		.loc 1 70 13 is_stmt 0
 395 0248 13060000 		li	a2,0
 396 024c 9305A000 		li	a1,10
 397 0250 1B050900 		sext.w	a0,s2
 398 0254 97000000 		call	_Z8printIntiii@plt
 398      E7800000 
 399              	.LVL42:
  71:src/workers.cpp ****     printString("\n");
 400              		.loc 1 71 5 is_stmt 1
 401              		.loc 1 71 16 is_stmt 0
 402 025c 17050000 		lla	a0,.LC1
 402      13050500 
 403 0264 97000000 		call	_Z11printStringPKc@plt
 403      E7800000 
 404              	.LVL43:
  72:src/workers.cpp **** 
  73:src/workers.cpp ****     uint64 result = fibonacci(12);
 405              		.loc 1 73 5 is_stmt 1
 406              		.loc 1 73 30 is_stmt 0
 407 026c 1305C000 		li	a0,12
 408 0270 97000000 		call	_ZL9fibonaccim
 408      E7800000 
 409              	.LVL44:
 410 0278 13090500 		mv	s2,a0
 411              	.LVL45:
  74:src/workers.cpp ****     printString("C: fibonaci=");
 412              		.loc 1 74 5 is_stmt 1
 413              		.loc 1 74 16 is_stmt 0
 414 027c 17050000 		lla	a0,.LC6
 414      13050500 
 415              	.LVL46:
 416 0284 97000000 		call	_Z11printStringPKc@plt
 416      E7800000 
 417              	.LVL47:
  75:src/workers.cpp ****     printInt(result);
 418              		.loc 1 75 5 is_stmt 1
 419              		.loc 1 75 13 is_stmt 0
GAS LISTING /tmp/ccs4Eym4.s 			page 11


 420 028c 13060000 		li	a2,0
 421 0290 9305A000 		li	a1,10
 422 0294 1B050900 		sext.w	a0,s2
 423 0298 97000000 		call	_Z8printIntiii@plt
 423      E7800000 
 424              	.LVL48:
  76:src/workers.cpp ****     printString("\n");
 425              		.loc 1 76 5 is_stmt 1
 426              		.loc 1 76 16 is_stmt 0
 427 02a0 17050000 		lla	a0,.LC1
 427      13050500 
 428 02a8 97000000 		call	_Z11printStringPKc@plt
 428      E7800000 
 429              	.LVL49:
 430 02b0 6F000004 		j	.L27
 431              	.L30:
  77:src/workers.cpp **** 
  78:src/workers.cpp ****     for (; i < 6; i++)
  79:src/workers.cpp ****     {
  80:src/workers.cpp ****         printString("C: i=");
 432              		.loc 1 80 9 is_stmt 1 discriminator 1
 433              		.loc 1 80 20 is_stmt 0 discriminator 1
 434 02b4 17050000 		lla	a0,.LC3
 434      13050500 
 435 02bc 97000000 		call	_Z11printStringPKc@plt
 435      E7800000 
 436              	.LVL50:
  81:src/workers.cpp ****         printInt(i);
 437              		.loc 1 81 9 is_stmt 1 discriminator 1
 438              		.loc 1 81 17 is_stmt 0 discriminator 1
 439 02c4 13060000 		li	a2,0
 440 02c8 9305A000 		li	a1,10
 441 02cc 13850400 		mv	a0,s1
 442 02d0 97000000 		call	_Z8printIntiii@plt
 442      E7800000 
 443              	.LVL51:
  82:src/workers.cpp ****         printString("\n");
 444              		.loc 1 82 9 is_stmt 1 discriminator 1
 445              		.loc 1 82 20 is_stmt 0 discriminator 1
 446 02d8 17050000 		lla	a0,.LC1
 446      13050500 
 447 02e0 97000000 		call	_Z11printStringPKc@plt
 447      E7800000 
 448              	.LVL52:
  78:src/workers.cpp ****     {
 449              		.loc 1 78 5 is_stmt 1 discriminator 1
 450 02e8 9B841400 		addiw	s1,s1,1
 451              	.LVL53:
 452 02ec 93F4F40F 		andi	s1,s1,0xff
 453              	.LVL54:
 454              	.L27:
  78:src/workers.cpp ****     {
 455              		.loc 1 78 5 discriminator 2
  78:src/workers.cpp ****     {
 456              		.loc 1 78 14 discriminator 2
 457 02f0 93075000 		li	a5,5
 458 02f4 E3F097FC 		bleu	s1,a5,.L30
GAS LISTING /tmp/ccs4Eym4.s 			page 12


  83:src/workers.cpp ****     }
  84:src/workers.cpp **** //    TCB::yield();
  85:src/workers.cpp **** }
 459              		.loc 1 85 1 is_stmt 0
 460 02f8 83308101 		ld	ra,24(sp)
 461              		.cfi_restore 1
 462 02fc 03340101 		ld	s0,16(sp)
 463              		.cfi_restore 8
 464              		.cfi_def_cfa 2, 32
 465 0300 83348100 		ld	s1,8(sp)
 466              		.cfi_restore 9
 467              	.LVL55:
 468 0304 03390100 		ld	s2,0(sp)
 469              		.cfi_restore 18
 470              	.LVL56:
 471 0308 13010102 		addi	sp,sp,32
 472              		.cfi_def_cfa_offset 0
 473 030c 67800000 		jr	ra
 474              		.cfi_endproc
 475              	.LFE26:
 477              		.section	.rodata.str1.8
 478 0045 000000   		.align	3
 479              	.LC7:
 480 0048 443A2069 		.string	"D: i="
 480      3D00
 481 004e 0000     		.align	3
 482              	.LC8:
 483 0050 443A2079 		.string	"D: yield\n"
 483      69656C64 
 483      0A00
 484 005a 00000000 		.align	3
 484      0000
 485              	.LC9:
 486 0060 443A2066 		.string	"D: fibonaci="
 486      69626F6E 
 486      6163693D 
 486      00
 487              		.text
 488              		.align	2
 489              		.globl	_Z11workerBodyDv
 491              	_Z11workerBodyDv:
 492              	.LFB27:
  86:src/workers.cpp **** 
  87:src/workers.cpp **** void workerBodyD()
  88:src/workers.cpp **** {
 493              		.loc 1 88 1 is_stmt 1
 494              		.cfi_startproc
 495 0310 130101FE 		addi	sp,sp,-32
 496              		.cfi_def_cfa_offset 32
 497 0314 233C1100 		sd	ra,24(sp)
 498 0318 23388100 		sd	s0,16(sp)
 499 031c 23349100 		sd	s1,8(sp)
 500 0320 23302101 		sd	s2,0(sp)
 501              		.cfi_offset 1, -8
 502              		.cfi_offset 8, -16
 503              		.cfi_offset 9, -24
 504              		.cfi_offset 18, -32
GAS LISTING /tmp/ccs4Eym4.s 			page 13


 505 0324 13040102 		addi	s0,sp,32
 506              		.cfi_def_cfa 8, 0
  89:src/workers.cpp ****     uint8 i = 10;
 507              		.loc 1 89 5
 508              	.LVL57:
 509              		.loc 1 89 11 is_stmt 0
 510 0328 9304A000 		li	s1,10
 511 032c 6F000004 		j	.L33
 512              	.LVL58:
 513              	.L37:
  90:src/workers.cpp ****     for (; i < 13; i++)
  91:src/workers.cpp ****     {
  92:src/workers.cpp ****         printString("D: i=");
 514              		.loc 1 92 9 is_stmt 1 discriminator 1
 515              		.loc 1 92 20 is_stmt 0 discriminator 1
 516 0330 17050000 		lla	a0,.LC7
 516      13050500 
 517 0338 97000000 		call	_Z11printStringPKc@plt
 517      E7800000 
 518              	.LVL59:
  93:src/workers.cpp ****         printInt(i);
 519              		.loc 1 93 9 is_stmt 1 discriminator 1
 520              		.loc 1 93 17 is_stmt 0 discriminator 1
 521 0340 13060000 		li	a2,0
 522 0344 9305A000 		li	a1,10
 523 0348 13850400 		mv	a0,s1
 524 034c 97000000 		call	_Z8printIntiii@plt
 524      E7800000 
 525              	.LVL60:
  94:src/workers.cpp ****         printString("\n");
 526              		.loc 1 94 9 is_stmt 1 discriminator 1
 527              		.loc 1 94 20 is_stmt 0 discriminator 1
 528 0354 17050000 		lla	a0,.LC1
 528      13050500 
 529 035c 97000000 		call	_Z11printStringPKc@plt
 529      E7800000 
 530              	.LVL61:
  90:src/workers.cpp ****     for (; i < 13; i++)
 531              		.loc 1 90 5 is_stmt 1 discriminator 1
 532 0364 9B841400 		addiw	s1,s1,1
 533              	.LVL62:
 534 0368 93F4F40F 		andi	s1,s1,0xff
 535              	.LVL63:
 536              	.L33:
  90:src/workers.cpp ****     for (; i < 13; i++)
 537              		.loc 1 90 5 discriminator 2
  90:src/workers.cpp ****     for (; i < 13; i++)
 538              		.loc 1 90 14 discriminator 2
 539 036c 9307C000 		li	a5,12
 540 0370 E3F097FC 		bleu	s1,a5,.L37
  95:src/workers.cpp ****     }
  96:src/workers.cpp **** 
  97:src/workers.cpp ****     printString("D: yield\n");
 541              		.loc 1 97 5
 542              		.loc 1 97 16 is_stmt 0
 543 0374 17050000 		lla	a0,.LC8
 543      13050500 
GAS LISTING /tmp/ccs4Eym4.s 			page 14


 544 037c 97000000 		call	_Z11printStringPKc@plt
 544      E7800000 
 545              	.LVL64:
  98:src/workers.cpp ****     __asm__ ("li t1, 5");
 546              		.loc 1 98 5 is_stmt 1
 547              		.loc 1 98 25 is_stmt 0
 548              	#APP
 549              	# 98 "src/workers.cpp" 1
  99              	    TCB::yield();
 550              		li t1, 5
 551              	# 0 "" 2
 552              		.loc 1 99 5 is_stmt 1
 553              		.loc 1 99 15 is_stmt 0
 554              	#NO_APP
 555 0388 97000000 		call	_ZN3TCB5yieldEv@plt
 555      E7800000 
 556              	.LVL65:
 100:src/workers.cpp **** 
 101:src/workers.cpp ****     uint64 result = fibonacci(16);
 557              		.loc 1 101 5 is_stmt 1
 558              		.loc 1 101 30 is_stmt 0
 559 0390 13050001 		li	a0,16
 560 0394 97000000 		call	_ZL9fibonaccim
 560      E7800000 
 561              	.LVL66:
 562 039c 13090500 		mv	s2,a0
 563              	.LVL67:
 102:src/workers.cpp ****     printString("D: fibonaci=");
 564              		.loc 1 102 5 is_stmt 1
 565              		.loc 1 102 16 is_stmt 0
 566 03a0 17050000 		lla	a0,.LC9
 566      13050500 
 567              	.LVL68:
 568 03a8 97000000 		call	_Z11printStringPKc@plt
 568      E7800000 
 569              	.LVL69:
 103:src/workers.cpp ****     printInt(result);
 570              		.loc 1 103 5 is_stmt 1
 571              		.loc 1 103 13 is_stmt 0
 572 03b0 13060000 		li	a2,0
 573 03b4 9305A000 		li	a1,10
 574 03b8 1B050900 		sext.w	a0,s2
 575 03bc 97000000 		call	_Z8printIntiii@plt
 575      E7800000 
 576              	.LVL70:
 104:src/workers.cpp ****     printString("\n");
 577              		.loc 1 104 5 is_stmt 1
 578              		.loc 1 104 16 is_stmt 0
 579 03c4 17050000 		lla	a0,.LC1
 579      13050500 
 580 03cc 97000000 		call	_Z11printStringPKc@plt
 580      E7800000 
 581              	.LVL71:
 582 03d4 6F000004 		j	.L35
 583              	.L38:
 105:src/workers.cpp **** 
 106:src/workers.cpp ****     for (; i < 16; i++)
GAS LISTING /tmp/ccs4Eym4.s 			page 15


 107:src/workers.cpp ****     {
 108:src/workers.cpp ****         printString("D: i=");
 584              		.loc 1 108 9 is_stmt 1 discriminator 1
 585              		.loc 1 108 20 is_stmt 0 discriminator 1
 586 03d8 17050000 		lla	a0,.LC7
 586      13050500 
 587 03e0 97000000 		call	_Z11printStringPKc@plt
 587      E7800000 
 588              	.LVL72:
 109:src/workers.cpp ****         printInt(i);
 589              		.loc 1 109 9 is_stmt 1 discriminator 1
 590              		.loc 1 109 17 is_stmt 0 discriminator 1
 591 03e8 13060000 		li	a2,0
 592 03ec 9305A000 		li	a1,10
 593 03f0 13850400 		mv	a0,s1
 594 03f4 97000000 		call	_Z8printIntiii@plt
 594      E7800000 
 595              	.LVL73:
 110:src/workers.cpp ****         printString("\n");
 596              		.loc 1 110 9 is_stmt 1 discriminator 1
 597              		.loc 1 110 20 is_stmt 0 discriminator 1
 598 03fc 17050000 		lla	a0,.LC1
 598      13050500 
 599 0404 97000000 		call	_Z11printStringPKc@plt
 599      E7800000 
 600              	.LVL74:
 106:src/workers.cpp ****     {
 601              		.loc 1 106 5 is_stmt 1 discriminator 1
 602 040c 9B841400 		addiw	s1,s1,1
 603              	.LVL75:
 604 0410 93F4F40F 		andi	s1,s1,0xff
 605              	.LVL76:
 606              	.L35:
 106:src/workers.cpp ****     {
 607              		.loc 1 106 5 discriminator 2
 106:src/workers.cpp ****     {
 608              		.loc 1 106 14 discriminator 2
 609 0414 9307F000 		li	a5,15
 610 0418 E3F097FC 		bleu	s1,a5,.L38
 111:src/workers.cpp ****     }
 112:src/workers.cpp **** //    TCB::yield();
 113:src/workers.cpp **** }...
 611              		.loc 1 113 1 is_stmt 0
 612 041c 83308101 		ld	ra,24(sp)
 613              		.cfi_restore 1
 614 0420 03340101 		ld	s0,16(sp)
 615              		.cfi_restore 8
 616              		.cfi_def_cfa 2, 32
 617 0424 83348100 		ld	s1,8(sp)
 618              		.cfi_restore 9
 619              	.LVL77:
 620 0428 03390100 		ld	s2,0(sp)
 621              		.cfi_restore 18
 622              	.LVL78:
 623 042c 13010102 		addi	sp,sp,32
 624              		.cfi_def_cfa_offset 0
 625 0430 67800000 		jr	ra
GAS LISTING /tmp/ccs4Eym4.s 			page 16


 626              		.cfi_endproc
 627              	.LFE27:
 629              	.Letext0:
 630              		.file 2 "src/../lib/hw.h"
 631              		.file 3 "src/../h/tcb.hpp"
 632              		.file 4 "src/../h/syscall_c.hpp"
 633              		.file 5 "src/../h/printing.hpp"
GAS LISTING /tmp/ccs4Eym4.s 			page 17


DEFINED SYMBOLS
                            *ABS*:0000000000000000 workers.cpp
     /tmp/ccs4Eym4.s:8      .text:0000000000000000 _ZL9fibonaccim
     /tmp/ccs4Eym4.s:12     .text:0000000000000000 .L0 
     /tmp/ccs4Eym4.s:14     .text:0000000000000000 .L0 
     /tmp/ccs4Eym4.s:15     .text:0000000000000004 .L0 
     /tmp/ccs4Eym4.s:20     .text:0000000000000014 .L0 
     /tmp/ccs4Eym4.s:21     .text:0000000000000014 .L0 
     /tmp/ccs4Eym4.s:22     .text:0000000000000014 .L0 
     /tmp/ccs4Eym4.s:23     .text:0000000000000014 .L0 
     /tmp/ccs4Eym4.s:25     .text:0000000000000018 .L0 
     /tmp/ccs4Eym4.s:28     .text:000000000000001c .L0 
     /tmp/ccs4Eym4.s:31     .text:0000000000000024 .L0 
     /tmp/ccs4Eym4.s:32     .text:0000000000000024 .L0 
     /tmp/ccs4Eym4.s:35     .text:000000000000002c .L0 
     /tmp/ccs4Eym4.s:39     .text:0000000000000030 .L0 
     /tmp/ccs4Eym4.s:40     .text:0000000000000030 .L0 
     /tmp/ccs4Eym4.s:45     .text:0000000000000040 .L0 
     /tmp/ccs4Eym4.s:49     .text:000000000000004c .L0 
     /tmp/ccs4Eym4.s:52     .text:0000000000000050 .L0 
     /tmp/ccs4Eym4.s:53     .text:0000000000000054 .L0 
     /tmp/ccs4Eym4.s:54     .text:0000000000000054 .L0 
     /tmp/ccs4Eym4.s:56     .text:0000000000000058 .L0 
     /tmp/ccs4Eym4.s:57     .text:0000000000000058 .L0 
     /tmp/ccs4Eym4.s:59     .text:000000000000005c .L0 
     /tmp/ccs4Eym4.s:62     .text:0000000000000060 .L0 
     /tmp/ccs4Eym4.s:64     .text:0000000000000064 .L0 
     /tmp/ccs4Eym4.s:68     .text:0000000000000068 .L0 
     /tmp/ccs4Eym4.s:70     .text:0000000000000068 .L0 
     /tmp/ccs4Eym4.s:71     .text:0000000000000068 .L0 
     /tmp/ccs4Eym4.s:74     .text:0000000000000074 .L0 
     /tmp/ccs4Eym4.s:88     .text:0000000000000074 _Z11workerBodyAv
     /tmp/ccs4Eym4.s:91     .text:0000000000000074 .L0 
     /tmp/ccs4Eym4.s:92     .text:0000000000000074 .L0 
     /tmp/ccs4Eym4.s:93     .text:0000000000000078 .L0 
     /tmp/ccs4Eym4.s:97     .text:0000000000000084 .L0 
     /tmp/ccs4Eym4.s:98     .text:0000000000000084 .L0 
     /tmp/ccs4Eym4.s:99     .text:0000000000000084 .L0 
     /tmp/ccs4Eym4.s:101    .text:0000000000000088 .L0 
     /tmp/ccs4Eym4.s:105    .text:0000000000000088 .L0 
     /tmp/ccs4Eym4.s:106    .text:0000000000000088 .L0 
     /tmp/ccs4Eym4.s:113    .text:0000000000000090 .L0 
     /tmp/ccs4Eym4.s:117    .text:0000000000000094 .L0 
     /tmp/ccs4Eym4.s:122    .text:00000000000000a0 .L0 
     /tmp/ccs4Eym4.s:126    .text:00000000000000a4 .L0 
     /tmp/ccs4Eym4.s:130    .text:00000000000000b0 .L0 
     /tmp/ccs4Eym4.s:139    .text:00000000000000b8 .L0 
     /tmp/ccs4Eym4.s:143    .text:00000000000000bc .L0 
     /tmp/ccs4Eym4.s:147    .text:00000000000000c4 .L0 
     /tmp/ccs4Eym4.s:148    .text:00000000000000c4 .L0 
     /tmp/ccs4Eym4.s:152    .text:00000000000000d4 .L0 
     /tmp/ccs4Eym4.s:153    .text:00000000000000d4 .L0 
     /tmp/ccs4Eym4.s:159    .text:00000000000000e8 .L0 
     /tmp/ccs4Eym4.s:160    .text:00000000000000e8 .L0 
     /tmp/ccs4Eym4.s:165    .text:00000000000000f8 .L0 
     /tmp/ccs4Eym4.s:166    .text:00000000000000f8 .L0 
     /tmp/ccs4Eym4.s:174    .text:0000000000000100 .L0 
GAS LISTING /tmp/ccs4Eym4.s 			page 18


     /tmp/ccs4Eym4.s:175    .text:0000000000000104 .L0 
     /tmp/ccs4Eym4.s:177    .text:0000000000000108 .L0 
     /tmp/ccs4Eym4.s:178    .text:0000000000000108 .L0 
     /tmp/ccs4Eym4.s:180    .text:000000000000010c .L0 
     /tmp/ccs4Eym4.s:183    .text:0000000000000110 .L0 
     /tmp/ccs4Eym4.s:185    .text:0000000000000114 .L0 
     /tmp/ccs4Eym4.s:196    .text:0000000000000114 _Z11workerBodyBv
     /tmp/ccs4Eym4.s:199    .text:0000000000000114 .L0 
     /tmp/ccs4Eym4.s:200    .text:0000000000000114 .L0 
     /tmp/ccs4Eym4.s:201    .text:0000000000000118 .L0 
     /tmp/ccs4Eym4.s:205    .text:0000000000000124 .L0 
     /tmp/ccs4Eym4.s:206    .text:0000000000000124 .L0 
     /tmp/ccs4Eym4.s:207    .text:0000000000000124 .L0 
     /tmp/ccs4Eym4.s:209    .text:0000000000000128 .L0 
     /tmp/ccs4Eym4.s:213    .text:0000000000000128 .L0 
     /tmp/ccs4Eym4.s:214    .text:0000000000000128 .L0 
     /tmp/ccs4Eym4.s:221    .text:0000000000000130 .L0 
     /tmp/ccs4Eym4.s:225    .text:0000000000000134 .L0 
     /tmp/ccs4Eym4.s:230    .text:0000000000000140 .L0 
     /tmp/ccs4Eym4.s:234    .text:0000000000000144 .L0 
     /tmp/ccs4Eym4.s:238    .text:0000000000000150 .L0 
     /tmp/ccs4Eym4.s:247    .text:0000000000000158 .L0 
     /tmp/ccs4Eym4.s:251    .text:000000000000015c .L0 
     /tmp/ccs4Eym4.s:255    .text:0000000000000164 .L0 
     /tmp/ccs4Eym4.s:256    .text:0000000000000164 .L0 
     /tmp/ccs4Eym4.s:260    .text:0000000000000174 .L0 
     /tmp/ccs4Eym4.s:261    .text:0000000000000174 .L0 
     /tmp/ccs4Eym4.s:267    .text:0000000000000188 .L0 
     /tmp/ccs4Eym4.s:268    .text:0000000000000188 .L0 
     /tmp/ccs4Eym4.s:273    .text:0000000000000198 .L0 
     /tmp/ccs4Eym4.s:274    .text:0000000000000198 .L0 
     /tmp/ccs4Eym4.s:282    .text:00000000000001a0 .L0 
     /tmp/ccs4Eym4.s:283    .text:00000000000001a4 .L0 
     /tmp/ccs4Eym4.s:285    .text:00000000000001a8 .L0 
     /tmp/ccs4Eym4.s:286    .text:00000000000001a8 .L0 
     /tmp/ccs4Eym4.s:288    .text:00000000000001ac .L0 
     /tmp/ccs4Eym4.s:291    .text:00000000000001b0 .L0 
     /tmp/ccs4Eym4.s:293    .text:00000000000001b4 .L0 
     /tmp/ccs4Eym4.s:313    .text:00000000000001b4 _Z11workerBodyCv
     /tmp/ccs4Eym4.s:316    .text:00000000000001b4 .L0 
     /tmp/ccs4Eym4.s:317    .text:00000000000001b4 .L0 
     /tmp/ccs4Eym4.s:318    .text:00000000000001b8 .L0 
     /tmp/ccs4Eym4.s:323    .text:00000000000001c8 .L0 
     /tmp/ccs4Eym4.s:324    .text:00000000000001c8 .L0 
     /tmp/ccs4Eym4.s:325    .text:00000000000001c8 .L0 
     /tmp/ccs4Eym4.s:326    .text:00000000000001c8 .L0 
     /tmp/ccs4Eym4.s:328    .text:00000000000001cc .L0 
     /tmp/ccs4Eym4.s:331    .text:00000000000001cc .L0 
     /tmp/ccs4Eym4.s:332    .text:00000000000001cc .L0 
     /tmp/ccs4Eym4.s:337    .text:00000000000001d4 .L0 
     /tmp/ccs4Eym4.s:338    .text:00000000000001d4 .L0 
     /tmp/ccs4Eym4.s:342    .text:00000000000001e4 .L0 
     /tmp/ccs4Eym4.s:343    .text:00000000000001e4 .L0 
     /tmp/ccs4Eym4.s:349    .text:00000000000001f8 .L0 
     /tmp/ccs4Eym4.s:350    .text:00000000000001f8 .L0 
     /tmp/ccs4Eym4.s:354    .text:0000000000000208 .L0 
     /tmp/ccs4Eym4.s:360    .text:0000000000000210 .L0 
GAS LISTING /tmp/ccs4Eym4.s 			page 19


     /tmp/ccs4Eym4.s:361    .text:0000000000000210 .L0 
     /tmp/ccs4Eym4.s:364    .text:0000000000000218 .L0 
     /tmp/ccs4Eym4.s:365    .text:0000000000000218 .L0 
     /tmp/ccs4Eym4.s:369    .text:0000000000000228 .L0 
     src/workers.cpp:63     .text:0000000000000228 .L0 
     /tmp/ccs4Eym4.s:375    .text:000000000000022c .L0 
     /tmp/ccs4Eym4.s:377    .text:000000000000022c .L0 
     /tmp/ccs4Eym4.s:380    .text:0000000000000234 .L0 
     /tmp/ccs4Eym4.s:381    .text:0000000000000234 .L0 
     src/workers.cpp:67     .text:0000000000000234 .L0 
     /tmp/ccs4Eym4.s:388    .text:0000000000000238 .L0 
     /tmp/ccs4Eym4.s:390    .text:0000000000000238 .L0 
     /tmp/ccs4Eym4.s:394    .text:0000000000000248 .L0 
     /tmp/ccs4Eym4.s:395    .text:0000000000000248 .L0 
     /tmp/ccs4Eym4.s:401    .text:000000000000025c .L0 
     /tmp/ccs4Eym4.s:402    .text:000000000000025c .L0 
     /tmp/ccs4Eym4.s:406    .text:000000000000026c .L0 
     /tmp/ccs4Eym4.s:407    .text:000000000000026c .L0 
     /tmp/ccs4Eym4.s:413    .text:000000000000027c .L0 
     /tmp/ccs4Eym4.s:414    .text:000000000000027c .L0 
     /tmp/ccs4Eym4.s:419    .text:000000000000028c .L0 
     /tmp/ccs4Eym4.s:420    .text:000000000000028c .L0 
     /tmp/ccs4Eym4.s:426    .text:00000000000002a0 .L0 
     /tmp/ccs4Eym4.s:427    .text:00000000000002a0 .L0 
     /tmp/ccs4Eym4.s:433    .text:00000000000002b4 .L0 
     /tmp/ccs4Eym4.s:434    .text:00000000000002b4 .L0 
     /tmp/ccs4Eym4.s:438    .text:00000000000002c4 .L0 
     /tmp/ccs4Eym4.s:439    .text:00000000000002c4 .L0 
     /tmp/ccs4Eym4.s:445    .text:00000000000002d8 .L0 
     /tmp/ccs4Eym4.s:446    .text:00000000000002d8 .L0 
     /tmp/ccs4Eym4.s:450    .text:00000000000002e8 .L0 
     /tmp/ccs4Eym4.s:456    .text:00000000000002f0 .L0 
     /tmp/ccs4Eym4.s:457    .text:00000000000002f0 .L0 
     /tmp/ccs4Eym4.s:460    .text:00000000000002f8 .L0 
     /tmp/ccs4Eym4.s:461    .text:00000000000002fc .L0 
     /tmp/ccs4Eym4.s:463    .text:0000000000000300 .L0 
     /tmp/ccs4Eym4.s:464    .text:0000000000000300 .L0 
     /tmp/ccs4Eym4.s:466    .text:0000000000000304 .L0 
     /tmp/ccs4Eym4.s:469    .text:0000000000000308 .L0 
     /tmp/ccs4Eym4.s:472    .text:000000000000030c .L0 
     /tmp/ccs4Eym4.s:474    .text:0000000000000310 .L0 
     /tmp/ccs4Eym4.s:491    .text:0000000000000310 _Z11workerBodyDv
     /tmp/ccs4Eym4.s:494    .text:0000000000000310 .L0 
     /tmp/ccs4Eym4.s:495    .text:0000000000000310 .L0 
     /tmp/ccs4Eym4.s:496    .text:0000000000000314 .L0 
     /tmp/ccs4Eym4.s:501    .text:0000000000000324 .L0 
     /tmp/ccs4Eym4.s:502    .text:0000000000000324 .L0 
     /tmp/ccs4Eym4.s:503    .text:0000000000000324 .L0 
     /tmp/ccs4Eym4.s:504    .text:0000000000000324 .L0 
     /tmp/ccs4Eym4.s:506    .text:0000000000000328 .L0 
     /tmp/ccs4Eym4.s:509    .text:0000000000000328 .L0 
     /tmp/ccs4Eym4.s:510    .text:0000000000000328 .L0 
     /tmp/ccs4Eym4.s:515    .text:0000000000000330 .L0 
     /tmp/ccs4Eym4.s:516    .text:0000000000000330 .L0 
     /tmp/ccs4Eym4.s:520    .text:0000000000000340 .L0 
     /tmp/ccs4Eym4.s:521    .text:0000000000000340 .L0 
     /tmp/ccs4Eym4.s:527    .text:0000000000000354 .L0 
GAS LISTING /tmp/ccs4Eym4.s 			page 20


     /tmp/ccs4Eym4.s:528    .text:0000000000000354 .L0 
     /tmp/ccs4Eym4.s:532    .text:0000000000000364 .L0 
     /tmp/ccs4Eym4.s:538    .text:000000000000036c .L0 
     /tmp/ccs4Eym4.s:539    .text:000000000000036c .L0 
     /tmp/ccs4Eym4.s:542    .text:0000000000000374 .L0 
     /tmp/ccs4Eym4.s:543    .text:0000000000000374 .L0 
     /tmp/ccs4Eym4.s:547    .text:0000000000000384 .L0 
     src/workers.cpp:98     .text:0000000000000384 .L0 
     /tmp/ccs4Eym4.s:553    .text:0000000000000388 .L0 
     /tmp/ccs4Eym4.s:555    .text:0000000000000388 .L0 
     /tmp/ccs4Eym4.s:558    .text:0000000000000390 .L0 
     /tmp/ccs4Eym4.s:559    .text:0000000000000390 .L0 
     /tmp/ccs4Eym4.s:565    .text:00000000000003a0 .L0 
     /tmp/ccs4Eym4.s:566    .text:00000000000003a0 .L0 
     /tmp/ccs4Eym4.s:571    .text:00000000000003b0 .L0 
     /tmp/ccs4Eym4.s:572    .text:00000000000003b0 .L0 
     /tmp/ccs4Eym4.s:578    .text:00000000000003c4 .L0 
     /tmp/ccs4Eym4.s:579    .text:00000000000003c4 .L0 
     /tmp/ccs4Eym4.s:585    .text:00000000000003d8 .L0 
     /tmp/ccs4Eym4.s:586    .text:00000000000003d8 .L0 
     /tmp/ccs4Eym4.s:590    .text:00000000000003e8 .L0 
     /tmp/ccs4Eym4.s:591    .text:00000000000003e8 .L0 
     /tmp/ccs4Eym4.s:597    .text:00000000000003fc .L0 
     /tmp/ccs4Eym4.s:598    .text:00000000000003fc .L0 
     /tmp/ccs4Eym4.s:602    .text:000000000000040c .L0 
     /tmp/ccs4Eym4.s:608    .text:0000000000000414 .L0 
     /tmp/ccs4Eym4.s:609    .text:0000000000000414 .L0 
     /tmp/ccs4Eym4.s:612    .text:000000000000041c .L0 
     /tmp/ccs4Eym4.s:613    .text:0000000000000420 .L0 
     /tmp/ccs4Eym4.s:615    .text:0000000000000424 .L0 
     /tmp/ccs4Eym4.s:616    .text:0000000000000424 .L0 
     /tmp/ccs4Eym4.s:618    .text:0000000000000428 .L0 
     /tmp/ccs4Eym4.s:621    .text:000000000000042c .L0 
     /tmp/ccs4Eym4.s:624    .text:0000000000000430 .L0 
     /tmp/ccs4Eym4.s:626    .text:0000000000000434 .L0 
     /tmp/ccs4Eym4.s:634    .text:0000000000000434 .L0 
     /tmp/ccs4Eym4.s:79     .rodata.str1.8:0000000000000000 .LC0
     /tmp/ccs4Eym4.s:148    .text:00000000000000c4 .L0 
     /tmp/ccs4Eym4.s:82     .rodata.str1.8:0000000000000008 .LC1
     /tmp/ccs4Eym4.s:160    .text:00000000000000e8 .L0 
     /tmp/ccs4Eym4.s:190    .rodata.str1.8:0000000000000010 .LC2
     /tmp/ccs4Eym4.s:256    .text:0000000000000164 .L0 
     /tmp/ccs4Eym4.s:268    .text:0000000000000188 .L0 
     /tmp/ccs4Eym4.s:298    .rodata.str1.8:0000000000000018 .LC3
     /tmp/ccs4Eym4.s:338    .text:00000000000001d4 .L0 
     /tmp/ccs4Eym4.s:350    .text:00000000000001f8 .L0 
     /tmp/ccs4Eym4.s:301    .rodata.str1.8:0000000000000020 .LC4
     /tmp/ccs4Eym4.s:365    .text:0000000000000218 .L0 
     /tmp/ccs4Eym4.s:304    .rodata.str1.8:0000000000000030 .LC5
     /tmp/ccs4Eym4.s:390    .text:0000000000000238 .L0 
     /tmp/ccs4Eym4.s:402    .text:000000000000025c .L0 
     /tmp/ccs4Eym4.s:307    .rodata.str1.8:0000000000000038 .LC6
     /tmp/ccs4Eym4.s:414    .text:000000000000027c .L0 
     /tmp/ccs4Eym4.s:427    .text:00000000000002a0 .L0 
     /tmp/ccs4Eym4.s:434    .text:00000000000002b4 .L0 
     /tmp/ccs4Eym4.s:446    .text:00000000000002d8 .L0 
     /tmp/ccs4Eym4.s:479    .rodata.str1.8:0000000000000048 .LC7
GAS LISTING /tmp/ccs4Eym4.s 			page 21


     /tmp/ccs4Eym4.s:516    .text:0000000000000330 .L0 
     /tmp/ccs4Eym4.s:528    .text:0000000000000354 .L0 
     /tmp/ccs4Eym4.s:482    .rodata.str1.8:0000000000000050 .LC8
     /tmp/ccs4Eym4.s:543    .text:0000000000000374 .L0 
     /tmp/ccs4Eym4.s:485    .rodata.str1.8:0000000000000060 .LC9
     /tmp/ccs4Eym4.s:566    .text:00000000000003a0 .L0 
     /tmp/ccs4Eym4.s:579    .text:00000000000003c4 .L0 
     /tmp/ccs4Eym4.s:586    .text:00000000000003d8 .L0 
     /tmp/ccs4Eym4.s:598    .text:00000000000003fc .L0 
     /tmp/ccs4Eym4.s:50     .text:0000000000000050 .L1
     /tmp/ccs4Eym4.s:67     .text:0000000000000068 .L6
     /tmp/ccs4Eym4.s:37     .text:0000000000000030 .L3
     /tmp/ccs4Eym4.s:141    .text:00000000000000bc .L13
     /tmp/ccs4Eym4.s:134    .text:00000000000000b8 .L9
     /tmp/ccs4Eym4.s:109    .text:0000000000000090 .L10
     /tmp/ccs4Eym4.s:123    .text:00000000000000a4 .L11
     /tmp/ccs4Eym4.s:169    .text:0000000000000100 .L7
     /tmp/ccs4Eym4.s:115    .text:0000000000000094 .L12
     /tmp/ccs4Eym4.s:249    .text:000000000000015c .L21
     /tmp/ccs4Eym4.s:242    .text:0000000000000158 .L17
     /tmp/ccs4Eym4.s:217    .text:0000000000000130 .L18
     /tmp/ccs4Eym4.s:231    .text:0000000000000144 .L19
     /tmp/ccs4Eym4.s:277    .text:00000000000001a0 .L15
     /tmp/ccs4Eym4.s:223    .text:0000000000000134 .L20
     /tmp/ccs4Eym4.s:358    .text:0000000000000210 .L25
     /tmp/ccs4Eym4.s:335    .text:00000000000001d4 .L29
     /tmp/ccs4Eym4.s:454    .text:00000000000002f0 .L27
     /tmp/ccs4Eym4.s:431    .text:00000000000002b4 .L30
     /tmp/ccs4Eym4.s:536    .text:000000000000036c .L33
     /tmp/ccs4Eym4.s:513    .text:0000000000000330 .L37
     /tmp/ccs4Eym4.s:606    .text:0000000000000414 .L35
     /tmp/ccs4Eym4.s:583    .text:00000000000003d8 .L38
     /tmp/ccs4Eym4.s:1605   .debug_abbrev:0000000000000000 .Ldebug_abbrev0
     /tmp/ccs4Eym4.s:2540   .debug_str:00000000000002da .LASF44
     /tmp/ccs4Eym4.s:2460   .debug_str:00000000000000a6 .LASF45
     /tmp/ccs4Eym4.s:2452   .debug_str:0000000000000060 .LASF46
     /tmp/ccs4Eym4.s:5      .text:0000000000000000 .Ltext0
     /tmp/ccs4Eym4.s:629    .text:0000000000000434 .Letext0
     /tmp/ccs4Eym4.s:2434   .debug_line:0000000000000000 .Ldebug_line0
     /tmp/ccs4Eym4.s:2508   .debug_str:00000000000001fe .LASF0
     /tmp/ccs4Eym4.s:2516   .debug_str:000000000000022b .LASF1
     /tmp/ccs4Eym4.s:2498   .debug_str:00000000000001b5 .LASF2
     /tmp/ccs4Eym4.s:2464   .debug_str:00000000000000cc .LASF3
     /tmp/ccs4Eym4.s:2484   .debug_str:0000000000000164 .LASF4
     /tmp/ccs4Eym4.s:2536   .debug_str:00000000000002b7 .LASF5
     /tmp/ccs4Eym4.s:2454   .debug_str:0000000000000083 .LASF6
     /tmp/ccs4Eym4.s:2520   .debug_str:000000000000024d .LASF7
     /tmp/ccs4Eym4.s:2506   .debug_str:00000000000001eb .LASF8
     /tmp/ccs4Eym4.s:2546   .debug_str:00000000000003be .LASF9
     /tmp/ccs4Eym4.s:2476   .debug_str:0000000000000112 .LASF10
     /tmp/ccs4Eym4.s:2524   .debug_str:000000000000026b .LASF11
     /tmp/ccs4Eym4.s:2542   .debug_str:000000000000039e .LASF12
     /tmp/ccs4Eym4.s:2456   .debug_str:000000000000008a .LASF13
     /tmp/ccs4Eym4.s:2442   .debug_str:000000000000001f .LASF14
     /tmp/ccs4Eym4.s:2458   .debug_str:000000000000009a .LASF15
     /tmp/ccs4Eym4.s:2530   .debug_str:000000000000028b .LASF16
     /tmp/ccs4Eym4.s:2462   .debug_str:00000000000000b6 .LASF17
GAS LISTING /tmp/ccs4Eym4.s 			page 22


     /tmp/ccs4Eym4.s:2446   .debug_str:000000000000003b .LASF47
     /tmp/ccs4Eym4.s:2478   .debug_str:0000000000000120 .LASF18
     /tmp/ccs4Eym4.s:2526   .debug_str:000000000000027a .LASF20
     /tmp/ccs4Eym4.s:2522   .debug_str:0000000000000260 .LASF29
     /tmp/ccs4Eym4.s:2474   .debug_str:00000000000000fb .LASF31
     /tmp/ccs4Eym4.s:2500   .debug_str:00000000000001c3 .LASF19
     /tmp/ccs4Eym4.s:2480   .debug_str:0000000000000125 .LASF21
     /tmp/ccs4Eym4.s:2492   .debug_str:0000000000000181 .LASF22
     /tmp/ccs4Eym4.s:2496   .debug_str:0000000000000199 .LASF23
     /tmp/ccs4Eym4.s:2528   .debug_str:0000000000000286 .LASF48
     /tmp/ccs4Eym4.s:2532   .debug_str:00000000000002a1 .LASF49
     /tmp/ccs4Eym4.s:2502   .debug_str:00000000000001cf .LASF50
     /tmp/ccs4Eym4.s:2466   .debug_str:00000000000000d2 .LASF51
     /tmp/ccs4Eym4.s:2534   .debug_str:00000000000002a7 .LASF52
     /tmp/ccs4Eym4.s:2488   .debug_str:0000000000000174 .LASF24
     /tmp/ccs4Eym4.s:2512   .debug_str:0000000000000214 .LASF25
     /tmp/ccs4Eym4.s:2490   .debug_str:0000000000000179 .LASF26
     /tmp/ccs4Eym4.s:2486   .debug_str:000000000000016b .LASF27
     /tmp/ccs4Eym4.s:2550   .debug_str:00000000000003d8 .LASF53
     /tmp/ccs4Eym4.s:2482   .debug_str:000000000000013c .LASF54
     /tmp/ccs4Eym4.s:2510   .debug_str:000000000000020b .LASF55
     /tmp/ccs4Eym4.s:2468   .debug_str:00000000000000da .LASF56
     /tmp/ccs4Eym4.s:2494   .debug_str:000000000000018e .LASF57
     /tmp/ccs4Eym4.s:2470   .debug_str:00000000000000ed .LASF28
     /tmp/ccs4Eym4.s:2450   .debug_str:0000000000000054 .LASF30
     /tmp/ccs4Eym4.s:2514   .debug_str:000000000000021a .LASF32
     /tmp/ccs4Eym4.s:492    .text:0000000000000310 .LFB27
     /tmp/ccs4Eym4.s:627    .text:0000000000000434 .LFE27
     /tmp/ccs4Eym4.s:2245   .debug_loc:0000000000000000 .LLST10
     /tmp/ccs4Eym4.s:2436   .debug_str:0000000000000000 .LASF33
     /tmp/ccs4Eym4.s:2265   .debug_loc:000000000000005d .LLST11
     /tmp/ccs4Eym4.s:518    .text:0000000000000340 .LVL59
     /tmp/ccs4Eym4.s:525    .text:0000000000000354 .LVL60
     /tmp/ccs4Eym4.s:530    .text:0000000000000364 .LVL61
     /tmp/ccs4Eym4.s:545    .text:0000000000000384 .LVL64
     /tmp/ccs4Eym4.s:556    .text:0000000000000390 .LVL65
     /tmp/ccs4Eym4.s:561    .text:000000000000039c .LVL66
     /tmp/ccs4Eym4.s:569    .text:00000000000003b0 .LVL69
     /tmp/ccs4Eym4.s:576    .text:00000000000003c4 .LVL70
     /tmp/ccs4Eym4.s:581    .text:00000000000003d4 .LVL71
     /tmp/ccs4Eym4.s:588    .text:00000000000003e8 .LVL72
     /tmp/ccs4Eym4.s:595    .text:00000000000003fc .LVL73
     /tmp/ccs4Eym4.s:600    .text:000000000000040c .LVL74
     /tmp/ccs4Eym4.s:2440   .debug_str:0000000000000013 .LASF34
     /tmp/ccs4Eym4.s:2544   .debug_str:00000000000003ad .LASF35
     /tmp/ccs4Eym4.s:314    .text:00000000000001b4 .LFB26
     /tmp/ccs4Eym4.s:475    .text:0000000000000310 .LFE26
     /tmp/ccs4Eym4.s:2276   .debug_loc:0000000000000093 .LLST7
     /tmp/ccs4Eym4.s:2296   .debug_loc:00000000000000f0 .LLST8
     /tmp/ccs4Eym4.s:2304   .debug_loc:0000000000000114 .LLST9
     /tmp/ccs4Eym4.s:340    .text:00000000000001e4 .LVL33
     /tmp/ccs4Eym4.s:347    .text:00000000000001f8 .LVL34
     /tmp/ccs4Eym4.s:352    .text:0000000000000208 .LVL35
     /tmp/ccs4Eym4.s:367    .text:0000000000000228 .LVL38
     /tmp/ccs4Eym4.s:378    .text:0000000000000234 .LVL39
     /tmp/ccs4Eym4.s:392    .text:0000000000000248 .LVL41
     /tmp/ccs4Eym4.s:399    .text:000000000000025c .LVL42
GAS LISTING /tmp/ccs4Eym4.s 			page 23


     /tmp/ccs4Eym4.s:404    .text:000000000000026c .LVL43
     /tmp/ccs4Eym4.s:409    .text:0000000000000278 .LVL44
     /tmp/ccs4Eym4.s:417    .text:000000000000028c .LVL47
     /tmp/ccs4Eym4.s:424    .text:00000000000002a0 .LVL48
     /tmp/ccs4Eym4.s:429    .text:00000000000002b0 .LVL49
     /tmp/ccs4Eym4.s:436    .text:00000000000002c4 .LVL50
     /tmp/ccs4Eym4.s:443    .text:00000000000002d8 .LVL51
     /tmp/ccs4Eym4.s:448    .text:00000000000002e8 .LVL52
     /tmp/ccs4Eym4.s:2548   .debug_str:00000000000003ce .LASF58
     /tmp/ccs4Eym4.s:9      .text:0000000000000000 .LFB25
     /tmp/ccs4Eym4.s:75     .text:0000000000000074 .LFE25
     /tmp/ccs4Eym4.s:2315   .debug_loc:000000000000014a .LLST0
     /tmp/ccs4Eym4.s:42     .text:000000000000003c .LVL2
     /tmp/ccs4Eym4.s:47     .text:000000000000004c .LVL3
     /tmp/ccs4Eym4.s:72     .text:0000000000000070 .LVL6
     /tmp/ccs4Eym4.s:2438   .debug_str:0000000000000007 .LASF36
     /tmp/ccs4Eym4.s:2448   .debug_str:0000000000000043 .LASF37
     /tmp/ccs4Eym4.s:197    .text:0000000000000114 .LFB24
     /tmp/ccs4Eym4.s:294    .text:00000000000001b4 .LFE24
     /tmp/ccs4Eym4.s:212    .text:0000000000000128 .LBB8
     /tmp/ccs4Eym4.s:280    .text:00000000000001a0 .LBE8
     /tmp/ccs4Eym4.s:2337   .debug_loc:00000000000001a9 .LLST4
     /tmp/ccs4Eym4.s:2420   .debug_ranges:0000000000000000 .Ldebug_ranges0
     /tmp/ccs4Eym4.s:2349   .debug_loc:00000000000001e0 .LLST5
     /tmp/ccs4Eym4.s:228    .text:0000000000000140 .LBB11
     /tmp/ccs4Eym4.s:243    .text:0000000000000158 .LBE11
     /tmp/ccs4Eym4.s:2361   .debug_loc:0000000000000217 .LLST6
     /tmp/ccs4Eym4.s:258    .text:0000000000000174 .LVL26
     /tmp/ccs4Eym4.s:265    .text:0000000000000188 .LVL27
     /tmp/ccs4Eym4.s:270    .text:0000000000000198 .LVL28
     /tmp/ccs4Eym4.s:2504   .debug_str:00000000000001df .LASF38
     /tmp/ccs4Eym4.s:2538   .debug_str:00000000000002c9 .LASF39
     /tmp/ccs4Eym4.s:89     .text:0000000000000074 .LFB23
     /tmp/ccs4Eym4.s:186    .text:0000000000000114 .LFE23
     /tmp/ccs4Eym4.s:104    .text:0000000000000088 .LBB2
     /tmp/ccs4Eym4.s:172    .text:0000000000000100 .LBE2
     /tmp/ccs4Eym4.s:2372   .debug_loc:000000000000024d .LLST1
     /tmp/ccs4Eym4.s:2384   .debug_loc:0000000000000284 .LLST2
     /tmp/ccs4Eym4.s:120    .text:00000000000000a0 .LBB5
     /tmp/ccs4Eym4.s:135    .text:00000000000000b8 .LBE5
     /tmp/ccs4Eym4.s:2396   .debug_loc:00000000000002bb .LLST3
     /tmp/ccs4Eym4.s:150    .text:00000000000000d4 .LVL14
     /tmp/ccs4Eym4.s:157    .text:00000000000000e8 .LVL15
     /tmp/ccs4Eym4.s:162    .text:00000000000000f8 .LVL16
     /tmp/ccs4Eym4.s:2552   .debug_str:00000000000003e6 .LASF40
     /tmp/ccs4Eym4.s:2444   .debug_str:000000000000002f .LASF42
     /tmp/ccs4Eym4.s:2518   .debug_str:000000000000023e .LASF41
     /tmp/ccs4Eym4.s:2472   .debug_str:00000000000000f2 .LASF43
     /tmp/ccs4Eym4.s:508    .text:0000000000000328 .LVL57
     /tmp/ccs4Eym4.s:512    .text:0000000000000330 .LVL58
     /tmp/ccs4Eym4.s:533    .text:0000000000000368 .LVL62
     /tmp/ccs4Eym4.s:535    .text:000000000000036c .LVL63
     /tmp/ccs4Eym4.s:603    .text:0000000000000410 .LVL75
     /tmp/ccs4Eym4.s:605    .text:0000000000000414 .LVL76
     /tmp/ccs4Eym4.s:619    .text:0000000000000428 .LVL77
     /tmp/ccs4Eym4.s:563    .text:00000000000003a0 .LVL67
     /tmp/ccs4Eym4.s:567    .text:00000000000003a8 .LVL68
GAS LISTING /tmp/ccs4Eym4.s 			page 24


     /tmp/ccs4Eym4.s:622    .text:000000000000042c .LVL78
     /tmp/ccs4Eym4.s:330    .text:00000000000001cc .LVL31
     /tmp/ccs4Eym4.s:334    .text:00000000000001d4 .LVL32
     /tmp/ccs4Eym4.s:355    .text:000000000000020c .LVL36
     /tmp/ccs4Eym4.s:357    .text:0000000000000210 .LVL37
     /tmp/ccs4Eym4.s:451    .text:00000000000002ec .LVL53
     /tmp/ccs4Eym4.s:453    .text:00000000000002f0 .LVL54
     /tmp/ccs4Eym4.s:467    .text:0000000000000304 .LVL55
     /tmp/ccs4Eym4.s:386    .text:0000000000000238 .LVL40
     /tmp/ccs4Eym4.s:411    .text:000000000000027c .LVL45
     /tmp/ccs4Eym4.s:415    .text:0000000000000284 .LVL46
     /tmp/ccs4Eym4.s:470    .text:0000000000000308 .LVL56
     /tmp/ccs4Eym4.s:13     .text:0000000000000000 .LVL0
     /tmp/ccs4Eym4.s:36     .text:0000000000000030 .LVL1
     /tmp/ccs4Eym4.s:60     .text:000000000000005c .LVL4
     /tmp/ccs4Eym4.s:66     .text:0000000000000068 .LVL5
     /tmp/ccs4Eym4.s:211    .text:0000000000000128 .LVL19
     /tmp/ccs4Eym4.s:216    .text:0000000000000130 .LVL20
     /tmp/ccs4Eym4.s:289    .text:00000000000001ac .LVL30
     /tmp/ccs4Eym4.s:248    .text:000000000000015c .LVL25
     /tmp/ccs4Eym4.s:276    .text:00000000000001a0 .LVL29
     /tmp/ccs4Eym4.s:222    .text:0000000000000134 .LVL21
     /tmp/ccs4Eym4.s:232    .text:0000000000000144 .LVL22
     /tmp/ccs4Eym4.s:241    .text:0000000000000158 .LVL24
     /tmp/ccs4Eym4.s:103    .text:0000000000000088 .LVL7
     /tmp/ccs4Eym4.s:108    .text:0000000000000090 .LVL8
     /tmp/ccs4Eym4.s:181    .text:000000000000010c .LVL18
     /tmp/ccs4Eym4.s:140    .text:00000000000000bc .LVL13
     /tmp/ccs4Eym4.s:168    .text:0000000000000100 .LVL17
     /tmp/ccs4Eym4.s:114    .text:0000000000000094 .LVL9
     /tmp/ccs4Eym4.s:124    .text:00000000000000a4 .LVL10
     /tmp/ccs4Eym4.s:133    .text:00000000000000b8 .LVL12
     /tmp/ccs4Eym4.s:635    .debug_info:0000000000000000 .Ldebug_info0
     /tmp/ccs4Eym4.s:111    .text:0000000000000090 .LBB4
     /tmp/ccs4Eym4.s:136    .text:00000000000000b8 .LBE4
     /tmp/ccs4Eym4.s:164    .text:00000000000000f8 .LBB6
     /tmp/ccs4Eym4.s:170    .text:0000000000000100 .LBE6
     /tmp/ccs4Eym4.s:219    .text:0000000000000130 .LBB10
     /tmp/ccs4Eym4.s:244    .text:0000000000000158 .LBE10
     /tmp/ccs4Eym4.s:272    .text:0000000000000198 .LBB12
     /tmp/ccs4Eym4.s:278    .text:00000000000001a0 .LBE12

UNDEFINED SYMBOLS
_ZN3TCB5yieldEv
_Z11printStringPKc
_Z8printIntiii
