GAS LISTING /tmp/ccEh7fUZ.s 			page 1


   1              		.file	"Threads_C_API_test.cpp"
   2              		.option pic
   3              		.option norelax
   4              		.text
   5              	.Ltext0:
   6              		.align	2
   8              	_ZL9fibonaccim:
   9              	.LFB24:
  10              		.file 1 "test/Threads_C_API_test.cpp"
   1:test/Threads_C_API_test.cpp **** 
   2:test/Threads_C_API_test.cpp **** #include "../h/syscall_c.hpp"
   3:test/Threads_C_API_test.cpp **** #include "Threads_C_API_test.hpp"
   4:test/Threads_C_API_test.cpp **** 
   5:test/Threads_C_API_test.cpp **** #include "../h/printing.hpp"
   6:test/Threads_C_API_test.cpp **** 
   7:test/Threads_C_API_test.cpp **** static volatile bool finishedA = false;
   8:test/Threads_C_API_test.cpp **** static volatile bool finishedB = false;
   9:test/Threads_C_API_test.cpp **** static volatile bool finishedC = false;
  10:test/Threads_C_API_test.cpp **** static volatile bool finishedD = false;
  11:test/Threads_C_API_test.cpp **** 
  12:test/Threads_C_API_test.cpp **** static uint64 fibonacci(uint64 n) {
  11              		.loc 1 12 35
  12              		.cfi_startproc
  13              	.LVL0:
  14 0000 130101FE 		addi	sp,sp,-32
  15              		.cfi_def_cfa_offset 32
  16 0004 233C1100 		sd	ra,24(sp)
  17 0008 23388100 		sd	s0,16(sp)
  18 000c 23349100 		sd	s1,8(sp)
  19 0010 23302101 		sd	s2,0(sp)
  20              		.cfi_offset 1, -8
  21              		.cfi_offset 8, -16
  22              		.cfi_offset 9, -24
  23              		.cfi_offset 18, -32
  24 0014 13040102 		addi	s0,sp,32
  25              		.cfi_def_cfa 8, 0
  26 0018 93040500 		mv	s1,a0
  13:test/Threads_C_API_test.cpp ****     if (n == 0 || n == 1) { return n; }
  27              		.loc 1 13 5
  28 001c 93071000 		li	a5,1
  29 0020 63F8A702 		bleu	a0,a5,.L1
  14:test/Threads_C_API_test.cpp ****     if (n % 10 == 0) { thread_dispatch(); }
  30              		.loc 1 14 5
  31              		.loc 1 14 11 is_stmt 0
  32 0024 9307A000 		li	a5,10
  33 0028 B377F502 		remu	a5,a0,a5
  34              		.loc 1 14 5
  35 002c 638E0702 		beqz	a5,.L6
  36              	.LVL1:
  37              	.L3:
  15:test/Threads_C_API_test.cpp ****     return fibonacci(n - 1) + fibonacci(n - 2);
  38              		.loc 1 15 5 is_stmt 1
  39              		.loc 1 15 21 is_stmt 0
  40 0030 1385F4FF 		addi	a0,s1,-1
  41 0034 97000000 		call	_ZL9fibonaccim
  41      E7800000 
  42              	.LVL2:
GAS LISTING /tmp/ccEh7fUZ.s 			page 2


  43 003c 13090500 		mv	s2,a0
  44              		.loc 1 15 40
  45 0040 1385E4FF 		addi	a0,s1,-2
  46 0044 97000000 		call	_ZL9fibonaccim
  46      E7800000 
  47              	.LVL3:
  48              		.loc 1 15 46
  49 004c 3305A900 		add	a0,s2,a0
  50              	.L1:
  16:test/Threads_C_API_test.cpp **** }
  51              		.loc 1 16 1
  52 0050 83308101 		ld	ra,24(sp)
  53              		.cfi_remember_state
  54              		.cfi_restore 1
  55 0054 03340101 		ld	s0,16(sp)
  56              		.cfi_restore 8
  57              		.cfi_def_cfa 2, 32
  58 0058 83348100 		ld	s1,8(sp)
  59              		.cfi_restore 9
  60              	.LVL4:
  61 005c 03390100 		ld	s2,0(sp)
  62              		.cfi_restore 18
  63 0060 13010102 		addi	sp,sp,32
  64              		.cfi_def_cfa_offset 0
  65 0064 67800000 		jr	ra
  66              	.LVL5:
  67              	.L6:
  68              		.cfi_restore_state
  14:test/Threads_C_API_test.cpp ****     if (n % 10 == 0) { thread_dispatch(); }
  69              		.loc 1 14 24 is_stmt 1 discriminator 1
  14:test/Threads_C_API_test.cpp ****     if (n % 10 == 0) { thread_dispatch(); }
  70              		.loc 1 14 39 is_stmt 0 discriminator 1
  71 0068 97000000 		call	_Z15thread_dispatchv@plt
  71      E7800000 
  72              	.LVL6:
  73 0070 6FF01FFC 		j	.L3
  74              		.cfi_endproc
  75              	.LFE24:
  77              		.section	.rodata.str1.8,"aMS",@progbits,1
  78              		.align	3
  79              	.LC0:
  80 0000 443A2069 		.string	"D: i="
  80      3D00
  81 0006 0000     		.align	3
  82              	.LC1:
  83 0008 0A00     		.string	"\n"
  84 000a 00000000 		.align	3
  84      0000
  85              	.LC2:
  86 0010 443A2064 		.string	"D: dispatch\n"
  86      69737061 
  86      7463680A 
  86      00
  87 001d 000000   		.align	3
  88              	.LC3:
  89 0020 443A2066 		.string	"D: fibonaci="
  89      69626F6E 
GAS LISTING /tmp/ccEh7fUZ.s 			page 3


  89      6163693D 
  89      00
  90 002d 000000   		.align	3
  91              	.LC4:
  92 0030 44206669 		.string	"D finished!\n"
  92      6E697368 
  92      6564210A 
  92      00
  93              		.text
  94              		.align	2
  96              	_ZL11workerBodyDPv:
  97              	.LFB28:
  17:test/Threads_C_API_test.cpp **** 
  18:test/Threads_C_API_test.cpp **** static void workerBodyA(void* arg) {
  19:test/Threads_C_API_test.cpp ****     for (uint64 i = 0; i < 10; i++) {
  20:test/Threads_C_API_test.cpp ****         printString("A: i="); printInt(i); printString("\n");
  21:test/Threads_C_API_test.cpp ****         for (uint64 j = 0; j < 10000; j++) {
  22:test/Threads_C_API_test.cpp ****             for (uint64 k = 0; k < 30000; k++) { /* busy wait */ }
  23:test/Threads_C_API_test.cpp ****             thread_dispatch();
  24:test/Threads_C_API_test.cpp ****         }
  25:test/Threads_C_API_test.cpp ****     }
  26:test/Threads_C_API_test.cpp ****     printString("A finished!\n");
  27:test/Threads_C_API_test.cpp ****     finishedA = true;
  28:test/Threads_C_API_test.cpp **** }
  29:test/Threads_C_API_test.cpp **** 
  30:test/Threads_C_API_test.cpp **** static void workerBodyB(void* arg) {
  31:test/Threads_C_API_test.cpp ****     for (uint64 i = 0; i < 16; i++) {
  32:test/Threads_C_API_test.cpp ****         printString("B: i="); printInt(i); printString("\n");
  33:test/Threads_C_API_test.cpp ****         for (uint64 j = 0; j < 10000; j++) {
  34:test/Threads_C_API_test.cpp ****             for (uint64 k = 0; k < 30000; k++) { /* busy wait */ }
  35:test/Threads_C_API_test.cpp ****             thread_dispatch();
  36:test/Threads_C_API_test.cpp ****         }
  37:test/Threads_C_API_test.cpp ****     }
  38:test/Threads_C_API_test.cpp ****     printString("B finished!\n");
  39:test/Threads_C_API_test.cpp ****     finishedB = true;
  40:test/Threads_C_API_test.cpp ****     thread_dispatch();
  41:test/Threads_C_API_test.cpp **** }
  42:test/Threads_C_API_test.cpp **** 
  43:test/Threads_C_API_test.cpp **** static void workerBodyC(void* arg) {
  44:test/Threads_C_API_test.cpp ****     uint8 i = 0;
  45:test/Threads_C_API_test.cpp ****     for (; i < 3; i++) {
  46:test/Threads_C_API_test.cpp ****         printString("C: i="); printInt(i); printString("\n");
  47:test/Threads_C_API_test.cpp ****     }
  48:test/Threads_C_API_test.cpp **** 
  49:test/Threads_C_API_test.cpp ****     printString("C: dispatch\n");
  50:test/Threads_C_API_test.cpp ****     __asm__ ("li t1, 7");
  51:test/Threads_C_API_test.cpp ****     thread_dispatch();
  52:test/Threads_C_API_test.cpp **** 
  53:test/Threads_C_API_test.cpp ****     uint64 t1 = 0;
  54:test/Threads_C_API_test.cpp ****     __asm__ ("mv %[t1], t1" : [t1] "=r"(t1));
  55:test/Threads_C_API_test.cpp **** 
  56:test/Threads_C_API_test.cpp ****     printString("C: t1="); printInt(t1); printString("\n");
  57:test/Threads_C_API_test.cpp **** 
  58:test/Threads_C_API_test.cpp ****     uint64 result = fibonacci(12);
  59:test/Threads_C_API_test.cpp ****     printString("C: fibonaci="); printInt(result); printString("\n");
  60:test/Threads_C_API_test.cpp **** 
  61:test/Threads_C_API_test.cpp ****     for (; i < 6; i++) {
GAS LISTING /tmp/ccEh7fUZ.s 			page 4


  62:test/Threads_C_API_test.cpp ****         printString("C: i="); printInt(i); printString("\n");
  63:test/Threads_C_API_test.cpp ****     }
  64:test/Threads_C_API_test.cpp **** 
  65:test/Threads_C_API_test.cpp ****     printString("A finished!\n");
  66:test/Threads_C_API_test.cpp ****     finishedC = true;
  67:test/Threads_C_API_test.cpp ****     thread_dispatch();
  68:test/Threads_C_API_test.cpp **** }
  69:test/Threads_C_API_test.cpp **** 
  70:test/Threads_C_API_test.cpp **** static void workerBodyD(void* arg) {
  98              		.loc 1 70 36 is_stmt 1
  99              		.cfi_startproc
 100              	.LVL7:
 101 0074 130101FE 		addi	sp,sp,-32
 102              		.cfi_def_cfa_offset 32
 103 0078 233C1100 		sd	ra,24(sp)
 104 007c 23388100 		sd	s0,16(sp)
 105 0080 23349100 		sd	s1,8(sp)
 106 0084 23302101 		sd	s2,0(sp)
 107              		.cfi_offset 1, -8
 108              		.cfi_offset 8, -16
 109              		.cfi_offset 9, -24
 110              		.cfi_offset 18, -32
 111 0088 13040102 		addi	s0,sp,32
 112              		.cfi_def_cfa 8, 0
  71:test/Threads_C_API_test.cpp ****     uint8 i = 10;
 113              		.loc 1 71 5
 114              	.LVL8:
 115              		.loc 1 71 11 is_stmt 0
 116 008c 9304A000 		li	s1,10
 117 0090 6F000004 		j	.L9
 118              	.LVL9:
 119              	.L13:
  72:test/Threads_C_API_test.cpp ****     for (; i < 13; i++) {
  73:test/Threads_C_API_test.cpp ****         printString("D: i="); printInt(i); printString("\n");
 120              		.loc 1 73 9 is_stmt 1 discriminator 1
 121              		.loc 1 73 20 is_stmt 0 discriminator 1
 122 0094 17050000 		lla	a0,.LC0
 122      13050500 
 123 009c 97000000 		call	_Z11printStringPKc@plt
 123      E7800000 
 124              	.LVL10:
 125              		.loc 1 73 31 is_stmt 1 discriminator 1
 126              		.loc 1 73 39 is_stmt 0 discriminator 1
 127 00a4 13060000 		li	a2,0
 128 00a8 9305A000 		li	a1,10
 129 00ac 13850400 		mv	a0,s1
 130 00b0 97000000 		call	_Z8printIntiii@plt
 130      E7800000 
 131              	.LVL11:
 132              		.loc 1 73 44 is_stmt 1 discriminator 1
 133              		.loc 1 73 55 is_stmt 0 discriminator 1
 134 00b8 17050000 		lla	a0,.LC1
 134      13050500 
 135 00c0 97000000 		call	_Z11printStringPKc@plt
 135      E7800000 
 136              	.LVL12:
  72:test/Threads_C_API_test.cpp ****     for (; i < 13; i++) {
GAS LISTING /tmp/ccEh7fUZ.s 			page 5


 137              		.loc 1 72 5 is_stmt 1 discriminator 1
 138 00c8 9B841400 		addiw	s1,s1,1
 139              	.LVL13:
 140 00cc 93F4F40F 		andi	s1,s1,0xff
 141              	.LVL14:
 142              	.L9:
  72:test/Threads_C_API_test.cpp ****     for (; i < 13; i++) {
 143              		.loc 1 72 5 discriminator 2
  72:test/Threads_C_API_test.cpp ****     for (; i < 13; i++) {
 144              		.loc 1 72 14 discriminator 2
 145 00d0 9307C000 		li	a5,12
 146 00d4 E3F097FC 		bleu	s1,a5,.L13
  74:test/Threads_C_API_test.cpp ****     }
  75:test/Threads_C_API_test.cpp **** 
  76:test/Threads_C_API_test.cpp ****     printString("D: dispatch\n");
 147              		.loc 1 76 5
 148              		.loc 1 76 16 is_stmt 0
 149 00d8 17050000 		lla	a0,.LC2
 149      13050500 
 150 00e0 97000000 		call	_Z11printStringPKc@plt
 150      E7800000 
 151              	.LVL15:
  77:test/Threads_C_API_test.cpp ****     __asm__ ("li t1, 5");
 152              		.loc 1 77 5 is_stmt 1
 153              		.loc 1 77 25 is_stmt 0
 154              	#APP
 155              	# 77 "test/Threads_C_API_test.cpp" 1
  78              	    thread_dispatch();
 156              		li t1, 5
 157              	# 0 "" 2
 158              		.loc 1 78 5 is_stmt 1
 159              		.loc 1 78 20 is_stmt 0
 160              	#NO_APP
 161 00ec 97000000 		call	_Z15thread_dispatchv@plt
 161      E7800000 
 162              	.LVL16:
  79:test/Threads_C_API_test.cpp **** 
  80:test/Threads_C_API_test.cpp ****     uint64 result = fibonacci(16);
 163              		.loc 1 80 5 is_stmt 1
 164              		.loc 1 80 30 is_stmt 0
 165 00f4 13050001 		li	a0,16
 166 00f8 97000000 		call	_ZL9fibonaccim
 166      E7800000 
 167              	.LVL17:
 168 0100 13090500 		mv	s2,a0
 169              	.LVL18:
  81:test/Threads_C_API_test.cpp ****     printString("D: fibonaci="); printInt(result); printString("\n");
 170              		.loc 1 81 5 is_stmt 1
 171              		.loc 1 81 16 is_stmt 0
 172 0104 17050000 		lla	a0,.LC3
 172      13050500 
 173              	.LVL19:
 174 010c 97000000 		call	_Z11printStringPKc@plt
 174      E7800000 
 175              	.LVL20:
 176              		.loc 1 81 34 is_stmt 1
 177              		.loc 1 81 42 is_stmt 0
GAS LISTING /tmp/ccEh7fUZ.s 			page 6


 178 0114 13060000 		li	a2,0
 179 0118 9305A000 		li	a1,10
 180 011c 1B050900 		sext.w	a0,s2
 181 0120 97000000 		call	_Z8printIntiii@plt
 181      E7800000 
 182              	.LVL21:
 183              		.loc 1 81 52 is_stmt 1
 184              		.loc 1 81 63 is_stmt 0
 185 0128 17050000 		lla	a0,.LC1
 185      13050500 
 186 0130 97000000 		call	_Z11printStringPKc@plt
 186      E7800000 
 187              	.LVL22:
 188 0138 6F000004 		j	.L11
 189              	.L14:
  82:test/Threads_C_API_test.cpp **** 
  83:test/Threads_C_API_test.cpp ****     for (; i < 16; i++) {
  84:test/Threads_C_API_test.cpp ****         printString("D: i="); printInt(i); printString("\n");
 190              		.loc 1 84 9 is_stmt 1 discriminator 1
 191              		.loc 1 84 20 is_stmt 0 discriminator 1
 192 013c 17050000 		lla	a0,.LC0
 192      13050500 
 193 0144 97000000 		call	_Z11printStringPKc@plt
 193      E7800000 
 194              	.LVL23:
 195              		.loc 1 84 31 is_stmt 1 discriminator 1
 196              		.loc 1 84 39 is_stmt 0 discriminator 1
 197 014c 13060000 		li	a2,0
 198 0150 9305A000 		li	a1,10
 199 0154 13850400 		mv	a0,s1
 200 0158 97000000 		call	_Z8printIntiii@plt
 200      E7800000 
 201              	.LVL24:
 202              		.loc 1 84 44 is_stmt 1 discriminator 1
 203              		.loc 1 84 55 is_stmt 0 discriminator 1
 204 0160 17050000 		lla	a0,.LC1
 204      13050500 
 205 0168 97000000 		call	_Z11printStringPKc@plt
 205      E7800000 
 206              	.LVL25:
  83:test/Threads_C_API_test.cpp ****         printString("D: i="); printInt(i); printString("\n");
 207              		.loc 1 83 5 is_stmt 1 discriminator 1
 208 0170 9B841400 		addiw	s1,s1,1
 209              	.LVL26:
 210 0174 93F4F40F 		andi	s1,s1,0xff
 211              	.LVL27:
 212              	.L11:
  83:test/Threads_C_API_test.cpp ****         printString("D: i="); printInt(i); printString("\n");
 213              		.loc 1 83 5 discriminator 2
  83:test/Threads_C_API_test.cpp ****         printString("D: i="); printInt(i); printString("\n");
 214              		.loc 1 83 14 discriminator 2
 215 0178 9307F000 		li	a5,15
 216 017c E3F097FC 		bleu	s1,a5,.L14
  85:test/Threads_C_API_test.cpp ****     }
  86:test/Threads_C_API_test.cpp **** 
  87:test/Threads_C_API_test.cpp ****     printString("D finished!\n");
 217              		.loc 1 87 5
GAS LISTING /tmp/ccEh7fUZ.s 			page 7


 218              		.loc 1 87 16 is_stmt 0
 219 0180 17050000 		lla	a0,.LC4
 219      13050500 
 220 0188 97000000 		call	_Z11printStringPKc@plt
 220      E7800000 
 221              	.LVL28:
  88:test/Threads_C_API_test.cpp ****     finishedD = true;
 222              		.loc 1 88 5 is_stmt 1
 223              		.loc 1 88 15 is_stmt 0
 224 0190 93071000 		li	a5,1
 225 0194 17070000 		sb	a5,.LANCHOR0,a4
 225      2300F700 
  89:test/Threads_C_API_test.cpp ****     thread_dispatch();
 226              		.loc 1 89 5 is_stmt 1
 227              		.loc 1 89 20 is_stmt 0
 228 019c 97000000 		call	_Z15thread_dispatchv@plt
 228      E7800000 
 229              	.LVL29:
  90:test/Threads_C_API_test.cpp **** }
 230              		.loc 1 90 1
 231 01a4 83308101 		ld	ra,24(sp)
 232              		.cfi_restore 1
 233 01a8 03340101 		ld	s0,16(sp)
 234              		.cfi_restore 8
 235              		.cfi_def_cfa 2, 32
 236 01ac 83348100 		ld	s1,8(sp)
 237              		.cfi_restore 9
 238              	.LVL30:
 239 01b0 03390100 		ld	s2,0(sp)
 240              		.cfi_restore 18
 241              	.LVL31:
 242 01b4 13010102 		addi	sp,sp,32
 243              		.cfi_def_cfa_offset 0
 244 01b8 67800000 		jr	ra
 245              		.cfi_endproc
 246              	.LFE28:
 248              		.section	.rodata.str1.8
 249 003d 000000   		.align	3
 250              	.LC5:
 251 0040 433A2069 		.string	"C: i="
 251      3D00
 252 0046 0000     		.align	3
 253              	.LC6:
 254 0048 433A2064 		.string	"C: dispatch\n"
 254      69737061 
 254      7463680A 
 254      00
 255 0055 000000   		.align	3
 256              	.LC7:
 257 0058 433A2074 		.string	"C: t1="
 257      313D00
 258 005f 00       		.align	3
 259              	.LC8:
 260 0060 433A2066 		.string	"C: fibonaci="
 260      69626F6E 
 260      6163693D 
 260      00
GAS LISTING /tmp/ccEh7fUZ.s 			page 8


 261 006d 000000   		.align	3
 262              	.LC9:
 263 0070 41206669 		.string	"A finished!\n"
 263      6E697368 
 263      6564210A 
 263      00
 264              		.text
 265              		.align	2
 267              	_ZL11workerBodyCPv:
 268              	.LFB27:
  43:test/Threads_C_API_test.cpp ****     uint8 i = 0;
 269              		.loc 1 43 36 is_stmt 1
 270              		.cfi_startproc
 271              	.LVL32:
 272 01bc 130101FE 		addi	sp,sp,-32
 273              		.cfi_def_cfa_offset 32
 274 01c0 233C1100 		sd	ra,24(sp)
 275 01c4 23388100 		sd	s0,16(sp)
 276 01c8 23349100 		sd	s1,8(sp)
 277 01cc 23302101 		sd	s2,0(sp)
 278              		.cfi_offset 1, -8
 279              		.cfi_offset 8, -16
 280              		.cfi_offset 9, -24
 281              		.cfi_offset 18, -32
 282 01d0 13040102 		addi	s0,sp,32
 283              		.cfi_def_cfa 8, 0
  44:test/Threads_C_API_test.cpp ****     for (; i < 3; i++) {
 284              		.loc 1 44 5
 285              	.LVL33:
  44:test/Threads_C_API_test.cpp ****     for (; i < 3; i++) {
 286              		.loc 1 44 11 is_stmt 0
 287 01d4 93040000 		li	s1,0
 288 01d8 6F000004 		j	.L17
 289              	.LVL34:
 290              	.L21:
  46:test/Threads_C_API_test.cpp ****     }
 291              		.loc 1 46 9 is_stmt 1 discriminator 1
  46:test/Threads_C_API_test.cpp ****     }
 292              		.loc 1 46 20 is_stmt 0 discriminator 1
 293 01dc 17050000 		lla	a0,.LC5
 293      13050500 
 294 01e4 97000000 		call	_Z11printStringPKc@plt
 294      E7800000 
 295              	.LVL35:
  46:test/Threads_C_API_test.cpp ****     }
 296              		.loc 1 46 31 is_stmt 1 discriminator 1
  46:test/Threads_C_API_test.cpp ****     }
 297              		.loc 1 46 39 is_stmt 0 discriminator 1
 298 01ec 13060000 		li	a2,0
 299 01f0 9305A000 		li	a1,10
 300 01f4 13850400 		mv	a0,s1
 301 01f8 97000000 		call	_Z8printIntiii@plt
 301      E7800000 
 302              	.LVL36:
  46:test/Threads_C_API_test.cpp ****     }
 303              		.loc 1 46 44 is_stmt 1 discriminator 1
  46:test/Threads_C_API_test.cpp ****     }
GAS LISTING /tmp/ccEh7fUZ.s 			page 9


 304              		.loc 1 46 55 is_stmt 0 discriminator 1
 305 0200 17050000 		lla	a0,.LC1
 305      13050500 
 306 0208 97000000 		call	_Z11printStringPKc@plt
 306      E7800000 
 307              	.LVL37:
  45:test/Threads_C_API_test.cpp ****         printString("C: i="); printInt(i); printString("\n");
 308              		.loc 1 45 5 is_stmt 1 discriminator 1
 309 0210 9B841400 		addiw	s1,s1,1
 310              	.LVL38:
 311 0214 93F4F40F 		andi	s1,s1,0xff
 312              	.LVL39:
 313              	.L17:
  45:test/Threads_C_API_test.cpp ****         printString("C: i="); printInt(i); printString("\n");
 314              		.loc 1 45 5 discriminator 2
  45:test/Threads_C_API_test.cpp ****         printString("C: i="); printInt(i); printString("\n");
 315              		.loc 1 45 14 discriminator 2
 316 0218 93072000 		li	a5,2
 317 021c E3F097FC 		bleu	s1,a5,.L21
  49:test/Threads_C_API_test.cpp ****     __asm__ ("li t1, 7");
 318              		.loc 1 49 5
  49:test/Threads_C_API_test.cpp ****     __asm__ ("li t1, 7");
 319              		.loc 1 49 16 is_stmt 0
 320 0220 17050000 		lla	a0,.LC6
 320      13050500 
 321 0228 97000000 		call	_Z11printStringPKc@plt
 321      E7800000 
 322              	.LVL40:
  50:test/Threads_C_API_test.cpp ****     thread_dispatch();
 323              		.loc 1 50 5 is_stmt 1
  50:test/Threads_C_API_test.cpp ****     thread_dispatch();
 324              		.loc 1 50 25 is_stmt 0
 325              	#APP
 326              	# 50 "test/Threads_C_API_test.cpp" 1
  51:test/Threads_C_API_test.cpp **** 
 327              		li t1, 7
 328              	# 0 "" 2
 329              		.loc 1 51 5 is_stmt 1
  51:test/Threads_C_API_test.cpp **** 
 330              		.loc 1 51 20 is_stmt 0
 331              	#NO_APP
 332 0234 97000000 		call	_Z15thread_dispatchv@plt
 332      E7800000 
 333              	.LVL41:
  53:test/Threads_C_API_test.cpp ****     __asm__ ("mv %[t1], t1" : [t1] "=r"(t1));
 334              		.loc 1 53 5 is_stmt 1
  54:test/Threads_C_API_test.cpp **** 
 335              		.loc 1 54 5
  54:test/Threads_C_API_test.cpp **** 
 336              		.loc 1 54 45 is_stmt 0
 337              	#APP
 338              	# 54 "test/Threads_C_API_test.cpp" 1
 339              		mv s2, t1
 340              	# 0 "" 2
 341              	.LVL42:
  56:test/Threads_C_API_test.cpp **** 
 342              		.loc 1 56 5 is_stmt 1
GAS LISTING /tmp/ccEh7fUZ.s 			page 10


  56:test/Threads_C_API_test.cpp **** 
 343              		.loc 1 56 16 is_stmt 0
 344              	#NO_APP
 345 0240 17050000 		lla	a0,.LC7
 345      13050500 
 346 0248 97000000 		call	_Z11printStringPKc@plt
 346      E7800000 
 347              	.LVL43:
  56:test/Threads_C_API_test.cpp **** 
 348              		.loc 1 56 28 is_stmt 1
  56:test/Threads_C_API_test.cpp **** 
 349              		.loc 1 56 36 is_stmt 0
 350 0250 13060000 		li	a2,0
 351 0254 9305A000 		li	a1,10
 352 0258 1B050900 		sext.w	a0,s2
 353 025c 97000000 		call	_Z8printIntiii@plt
 353      E7800000 
 354              	.LVL44:
  56:test/Threads_C_API_test.cpp **** 
 355              		.loc 1 56 42 is_stmt 1
  56:test/Threads_C_API_test.cpp **** 
 356              		.loc 1 56 53 is_stmt 0
 357 0264 17050000 		lla	a0,.LC1
 357      13050500 
 358 026c 97000000 		call	_Z11printStringPKc@plt
 358      E7800000 
 359              	.LVL45:
  58:test/Threads_C_API_test.cpp ****     printString("C: fibonaci="); printInt(result); printString("\n");
 360              		.loc 1 58 5 is_stmt 1
  58:test/Threads_C_API_test.cpp ****     printString("C: fibonaci="); printInt(result); printString("\n");
 361              		.loc 1 58 30 is_stmt 0
 362 0274 1305C000 		li	a0,12
 363 0278 97000000 		call	_ZL9fibonaccim
 363      E7800000 
 364              	.LVL46:
 365 0280 13090500 		mv	s2,a0
 366              	.LVL47:
  59:test/Threads_C_API_test.cpp **** 
 367              		.loc 1 59 5 is_stmt 1
  59:test/Threads_C_API_test.cpp **** 
 368              		.loc 1 59 16 is_stmt 0
 369 0284 17050000 		lla	a0,.LC8
 369      13050500 
 370              	.LVL48:
 371 028c 97000000 		call	_Z11printStringPKc@plt
 371      E7800000 
 372              	.LVL49:
  59:test/Threads_C_API_test.cpp **** 
 373              		.loc 1 59 34 is_stmt 1
  59:test/Threads_C_API_test.cpp **** 
 374              		.loc 1 59 42 is_stmt 0
 375 0294 13060000 		li	a2,0
 376 0298 9305A000 		li	a1,10
 377 029c 1B050900 		sext.w	a0,s2
 378 02a0 97000000 		call	_Z8printIntiii@plt
 378      E7800000 
 379              	.LVL50:
GAS LISTING /tmp/ccEh7fUZ.s 			page 11


  59:test/Threads_C_API_test.cpp **** 
 380              		.loc 1 59 52 is_stmt 1
  59:test/Threads_C_API_test.cpp **** 
 381              		.loc 1 59 63 is_stmt 0
 382 02a8 17050000 		lla	a0,.LC1
 382      13050500 
 383 02b0 97000000 		call	_Z11printStringPKc@plt
 383      E7800000 
 384              	.LVL51:
 385 02b8 6F000004 		j	.L19
 386              	.L22:
  62:test/Threads_C_API_test.cpp ****     }
 387              		.loc 1 62 9 is_stmt 1 discriminator 1
  62:test/Threads_C_API_test.cpp ****     }
 388              		.loc 1 62 20 is_stmt 0 discriminator 1
 389 02bc 17050000 		lla	a0,.LC5
 389      13050500 
 390 02c4 97000000 		call	_Z11printStringPKc@plt
 390      E7800000 
 391              	.LVL52:
  62:test/Threads_C_API_test.cpp ****     }
 392              		.loc 1 62 31 is_stmt 1 discriminator 1
  62:test/Threads_C_API_test.cpp ****     }
 393              		.loc 1 62 39 is_stmt 0 discriminator 1
 394 02cc 13060000 		li	a2,0
 395 02d0 9305A000 		li	a1,10
 396 02d4 13850400 		mv	a0,s1
 397 02d8 97000000 		call	_Z8printIntiii@plt
 397      E7800000 
 398              	.LVL53:
  62:test/Threads_C_API_test.cpp ****     }
 399              		.loc 1 62 44 is_stmt 1 discriminator 1
  62:test/Threads_C_API_test.cpp ****     }
 400              		.loc 1 62 55 is_stmt 0 discriminator 1
 401 02e0 17050000 		lla	a0,.LC1
 401      13050500 
 402 02e8 97000000 		call	_Z11printStringPKc@plt
 402      E7800000 
 403              	.LVL54:
  61:test/Threads_C_API_test.cpp ****         printString("C: i="); printInt(i); printString("\n");
 404              		.loc 1 61 5 is_stmt 1 discriminator 1
 405 02f0 9B841400 		addiw	s1,s1,1
 406              	.LVL55:
 407 02f4 93F4F40F 		andi	s1,s1,0xff
 408              	.LVL56:
 409              	.L19:
  61:test/Threads_C_API_test.cpp ****         printString("C: i="); printInt(i); printString("\n");
 410              		.loc 1 61 5 discriminator 2
  61:test/Threads_C_API_test.cpp ****         printString("C: i="); printInt(i); printString("\n");
 411              		.loc 1 61 14 discriminator 2
 412 02f8 93075000 		li	a5,5
 413 02fc E3F097FC 		bleu	s1,a5,.L22
  65:test/Threads_C_API_test.cpp ****     finishedC = true;
 414              		.loc 1 65 5
  65:test/Threads_C_API_test.cpp ****     finishedC = true;
 415              		.loc 1 65 16 is_stmt 0
 416 0300 17050000 		lla	a0,.LC9
GAS LISTING /tmp/ccEh7fUZ.s 			page 12


 416      13050500 
 417 0308 97000000 		call	_Z11printStringPKc@plt
 417      E7800000 
 418              	.LVL57:
  66:test/Threads_C_API_test.cpp ****     thread_dispatch();
 419              		.loc 1 66 5 is_stmt 1
  66:test/Threads_C_API_test.cpp ****     thread_dispatch();
 420              		.loc 1 66 15 is_stmt 0
 421 0310 93071000 		li	a5,1
 422 0314 17070000 		sb	a5,.LANCHOR0+1,a4
 422      2300F700 
  67:test/Threads_C_API_test.cpp **** }
 423              		.loc 1 67 5 is_stmt 1
  67:test/Threads_C_API_test.cpp **** }
 424              		.loc 1 67 20 is_stmt 0
 425 031c 97000000 		call	_Z15thread_dispatchv@plt
 425      E7800000 
 426              	.LVL58:
  68:test/Threads_C_API_test.cpp **** 
 427              		.loc 1 68 1
 428 0324 83308101 		ld	ra,24(sp)
 429              		.cfi_restore 1
 430 0328 03340101 		ld	s0,16(sp)
 431              		.cfi_restore 8
 432              		.cfi_def_cfa 2, 32
 433 032c 83348100 		ld	s1,8(sp)
 434              		.cfi_restore 9
 435              	.LVL59:
 436 0330 03390100 		ld	s2,0(sp)
 437              		.cfi_restore 18
 438              	.LVL60:
 439 0334 13010102 		addi	sp,sp,32
 440              		.cfi_def_cfa_offset 0
 441 0338 67800000 		jr	ra
 442              		.cfi_endproc
 443              	.LFE27:
 445              		.section	.rodata.str1.8
 446 007d 000000   		.align	3
 447              	.LC10:
 448 0080 423A2069 		.string	"B: i="
 448      3D00
 449 0086 0000     		.align	3
 450              	.LC11:
 451 0088 42206669 		.string	"B finished!\n"
 451      6E697368 
 451      6564210A 
 451      00
 452              		.text
 453              		.align	2
 455              	_ZL11workerBodyBPv:
 456              	.LFB26:
  30:test/Threads_C_API_test.cpp ****     for (uint64 i = 0; i < 16; i++) {
 457              		.loc 1 30 36 is_stmt 1
 458              		.cfi_startproc
 459              	.LVL61:
 460 033c 130101FE 		addi	sp,sp,-32
 461              		.cfi_def_cfa_offset 32
GAS LISTING /tmp/ccEh7fUZ.s 			page 13


 462 0340 233C1100 		sd	ra,24(sp)
 463 0344 23388100 		sd	s0,16(sp)
 464 0348 23349100 		sd	s1,8(sp)
 465 034c 23302101 		sd	s2,0(sp)
 466              		.cfi_offset 1, -8
 467              		.cfi_offset 8, -16
 468              		.cfi_offset 9, -24
 469              		.cfi_offset 18, -32
 470 0350 13040102 		addi	s0,sp,32
 471              		.cfi_def_cfa 8, 0
  31:test/Threads_C_API_test.cpp ****         printString("B: i="); printInt(i); printString("\n");
 472              		.loc 1 31 5
 473              	.LVL62:
 474              	.LBB6:
  31:test/Threads_C_API_test.cpp ****         printString("B: i="); printInt(i); printString("\n");
 475              		.loc 1 31 17 is_stmt 0
 476 0354 13090000 		li	s2,0
 477 0358 6F008003 		j	.L29
 478              	.LVL63:
 479              	.L26:
 480              	.LBB7:
 481              	.LBB8:
 482              	.LBB9:
  35:test/Threads_C_API_test.cpp ****         }
 483              		.loc 1 35 13 is_stmt 1 discriminator 2
  35:test/Threads_C_API_test.cpp ****         }
 484              		.loc 1 35 28 is_stmt 0 discriminator 2
 485 035c 97000000 		call	_Z15thread_dispatchv@plt
 485      E7800000 
 486              	.LVL64:
 487              	.LBE9:
  33:test/Threads_C_API_test.cpp ****             for (uint64 k = 0; k < 30000; k++) { /* busy wait */ }
 488              		.loc 1 33 9 is_stmt 1 discriminator 2
 489 0364 93841400 		addi	s1,s1,1
 490              	.LVL65:
 491              	.L28:
  33:test/Threads_C_API_test.cpp ****             for (uint64 k = 0; k < 30000; k++) { /* busy wait */ }
 492              		.loc 1 33 30 discriminator 1
 493 0368 B7270000 		li	a5,8192
 494 036c 9387F770 		addi	a5,a5,1807
 495 0370 63EE9700 		bgtu	s1,a5,.L25
 496              	.LBB11:
 497              	.LBB10:
  34:test/Threads_C_API_test.cpp ****             thread_dispatch();
 498              		.loc 1 34 25 is_stmt 0
 499 0374 13070000 		li	a4,0
 500              	.L27:
 501              	.LVL66:
  34:test/Threads_C_API_test.cpp ****             thread_dispatch();
 502              		.loc 1 34 34 is_stmt 1 discriminator 3
 503 0378 B7770000 		li	a5,28672
 504 037c 9387F752 		addi	a5,a5,1327
 505 0380 E3EEE7FC 		bgtu	a4,a5,.L26
  34:test/Threads_C_API_test.cpp ****             thread_dispatch();
 506              		.loc 1 34 13 discriminator 2
 507 0384 13071700 		addi	a4,a4,1
 508              	.LVL67:
GAS LISTING /tmp/ccEh7fUZ.s 			page 14


 509 0388 6FF01FFF 		j	.L27
 510              	.LVL68:
 511              	.L25:
 512              	.LBE10:
 513              	.LBE11:
 514              	.LBE8:
 515              	.LBE7:
  31:test/Threads_C_API_test.cpp ****         printString("B: i="); printInt(i); printString("\n");
 516              		.loc 1 31 5 discriminator 2
 517 038c 13091900 		addi	s2,s2,1
 518              	.LVL69:
 519              	.L29:
  31:test/Threads_C_API_test.cpp ****         printString("B: i="); printInt(i); printString("\n");
 520              		.loc 1 31 26 discriminator 1
 521 0390 9307F000 		li	a5,15
 522 0394 63E02705 		bgtu	s2,a5,.L24
 523              	.LBB13:
  32:test/Threads_C_API_test.cpp ****         for (uint64 j = 0; j < 10000; j++) {
 524              		.loc 1 32 9
  32:test/Threads_C_API_test.cpp ****         for (uint64 j = 0; j < 10000; j++) {
 525              		.loc 1 32 20 is_stmt 0
 526 0398 17050000 		lla	a0,.LC10
 526      13050500 
 527 03a0 97000000 		call	_Z11printStringPKc@plt
 527      E7800000 
 528              	.LVL70:
  32:test/Threads_C_API_test.cpp ****         for (uint64 j = 0; j < 10000; j++) {
 529              		.loc 1 32 31 is_stmt 1
  32:test/Threads_C_API_test.cpp ****         for (uint64 j = 0; j < 10000; j++) {
 530              		.loc 1 32 39 is_stmt 0
 531 03a8 13060000 		li	a2,0
 532 03ac 9305A000 		li	a1,10
 533 03b0 1B050900 		sext.w	a0,s2
 534 03b4 97000000 		call	_Z8printIntiii@plt
 534      E7800000 
 535              	.LVL71:
  32:test/Threads_C_API_test.cpp ****         for (uint64 j = 0; j < 10000; j++) {
 536              		.loc 1 32 44 is_stmt 1
  32:test/Threads_C_API_test.cpp ****         for (uint64 j = 0; j < 10000; j++) {
 537              		.loc 1 32 55 is_stmt 0
 538 03bc 17050000 		lla	a0,.LC1
 538      13050500 
 539 03c4 97000000 		call	_Z11printStringPKc@plt
 539      E7800000 
 540              	.LVL72:
  33:test/Threads_C_API_test.cpp ****             for (uint64 k = 0; k < 30000; k++) { /* busy wait */ }
 541              		.loc 1 33 9 is_stmt 1
 542              	.LBB12:
  33:test/Threads_C_API_test.cpp ****             for (uint64 k = 0; k < 30000; k++) { /* busy wait */ }
 543              		.loc 1 33 21 is_stmt 0
 544 03cc 93040000 		li	s1,0
 545 03d0 6FF09FF9 		j	.L28
 546              	.LVL73:
 547              	.L24:
 548              	.LBE12:
 549              	.LBE13:
 550              	.LBE6:
GAS LISTING /tmp/ccEh7fUZ.s 			page 15


  38:test/Threads_C_API_test.cpp ****     finishedB = true;
 551              		.loc 1 38 5 is_stmt 1
  38:test/Threads_C_API_test.cpp ****     finishedB = true;
 552              		.loc 1 38 16 is_stmt 0
 553 03d4 17050000 		lla	a0,.LC11
 553      13050500 
 554 03dc 97000000 		call	_Z11printStringPKc@plt
 554      E7800000 
 555              	.LVL74:
  39:test/Threads_C_API_test.cpp ****     thread_dispatch();
 556              		.loc 1 39 5 is_stmt 1
  39:test/Threads_C_API_test.cpp ****     thread_dispatch();
 557              		.loc 1 39 15 is_stmt 0
 558 03e4 93071000 		li	a5,1
 559 03e8 17070000 		sb	a5,.LANCHOR0+2,a4
 559      2300F700 
  40:test/Threads_C_API_test.cpp **** }
 560              		.loc 1 40 5 is_stmt 1
  40:test/Threads_C_API_test.cpp **** }
 561              		.loc 1 40 20 is_stmt 0
 562 03f0 97000000 		call	_Z15thread_dispatchv@plt
 562      E7800000 
 563              	.LVL75:
  41:test/Threads_C_API_test.cpp **** 
 564              		.loc 1 41 1
 565 03f8 83308101 		ld	ra,24(sp)
 566              		.cfi_restore 1
 567 03fc 03340101 		ld	s0,16(sp)
 568              		.cfi_restore 8
 569              		.cfi_def_cfa 2, 32
 570 0400 83348100 		ld	s1,8(sp)
 571              		.cfi_restore 9
 572 0404 03390100 		ld	s2,0(sp)
 573              		.cfi_restore 18
 574              	.LVL76:
 575 0408 13010102 		addi	sp,sp,32
 576              		.cfi_def_cfa_offset 0
 577 040c 67800000 		jr	ra
 578              		.cfi_endproc
 579              	.LFE26:
 581              		.section	.rodata.str1.8
 582 0095 000000   		.align	3
 583              	.LC12:
 584 0098 413A2069 		.string	"A: i="
 584      3D00
 585              		.text
 586              		.align	2
 588              	_ZL11workerBodyAPv:
 589              	.LFB25:
  18:test/Threads_C_API_test.cpp ****     for (uint64 i = 0; i < 10; i++) {
 590              		.loc 1 18 36 is_stmt 1
 591              		.cfi_startproc
 592              	.LVL77:
 593 0410 130101FE 		addi	sp,sp,-32
 594              		.cfi_def_cfa_offset 32
 595 0414 233C1100 		sd	ra,24(sp)
 596 0418 23388100 		sd	s0,16(sp)
GAS LISTING /tmp/ccEh7fUZ.s 			page 16


 597 041c 23349100 		sd	s1,8(sp)
 598 0420 23302101 		sd	s2,0(sp)
 599              		.cfi_offset 1, -8
 600              		.cfi_offset 8, -16
 601              		.cfi_offset 9, -24
 602              		.cfi_offset 18, -32
 603 0424 13040102 		addi	s0,sp,32
 604              		.cfi_def_cfa 8, 0
  19:test/Threads_C_API_test.cpp ****         printString("A: i="); printInt(i); printString("\n");
 605              		.loc 1 19 5
 606              	.LVL78:
 607              	.LBB14:
  19:test/Threads_C_API_test.cpp ****         printString("A: i="); printInt(i); printString("\n");
 608              		.loc 1 19 17 is_stmt 0
 609 0428 13090000 		li	s2,0
 610 042c 6F008003 		j	.L37
 611              	.LVL79:
 612              	.L34:
 613              	.LBB15:
 614              	.LBB16:
 615              	.LBB17:
  23:test/Threads_C_API_test.cpp ****         }
 616              		.loc 1 23 13 is_stmt 1 discriminator 2
  23:test/Threads_C_API_test.cpp ****         }
 617              		.loc 1 23 28 is_stmt 0 discriminator 2
 618 0430 97000000 		call	_Z15thread_dispatchv@plt
 618      E7800000 
 619              	.LVL80:
 620              	.LBE17:
  21:test/Threads_C_API_test.cpp ****             for (uint64 k = 0; k < 30000; k++) { /* busy wait */ }
 621              		.loc 1 21 9 is_stmt 1 discriminator 2
 622 0438 93841400 		addi	s1,s1,1
 623              	.LVL81:
 624              	.L36:
  21:test/Threads_C_API_test.cpp ****             for (uint64 k = 0; k < 30000; k++) { /* busy wait */ }
 625              		.loc 1 21 30 discriminator 1
 626 043c B7270000 		li	a5,8192
 627 0440 9387F770 		addi	a5,a5,1807
 628 0444 63EE9700 		bgtu	s1,a5,.L33
 629              	.LBB19:
 630              	.LBB18:
  22:test/Threads_C_API_test.cpp ****             thread_dispatch();
 631              		.loc 1 22 25 is_stmt 0
 632 0448 13070000 		li	a4,0
 633              	.L35:
 634              	.LVL82:
  22:test/Threads_C_API_test.cpp ****             thread_dispatch();
 635              		.loc 1 22 34 is_stmt 1 discriminator 3
 636 044c B7770000 		li	a5,28672
 637 0450 9387F752 		addi	a5,a5,1327
 638 0454 E3EEE7FC 		bgtu	a4,a5,.L34
  22:test/Threads_C_API_test.cpp ****             thread_dispatch();
 639              		.loc 1 22 13 discriminator 2
 640 0458 13071700 		addi	a4,a4,1
 641              	.LVL83:
 642 045c 6FF01FFF 		j	.L35
 643              	.LVL84:
GAS LISTING /tmp/ccEh7fUZ.s 			page 17


 644              	.L33:
 645              	.LBE18:
 646              	.LBE19:
 647              	.LBE16:
 648              	.LBE15:
  19:test/Threads_C_API_test.cpp ****         printString("A: i="); printInt(i); printString("\n");
 649              		.loc 1 19 5 discriminator 2
 650 0460 13091900 		addi	s2,s2,1
 651              	.LVL85:
 652              	.L37:
  19:test/Threads_C_API_test.cpp ****         printString("A: i="); printInt(i); printString("\n");
 653              		.loc 1 19 26 discriminator 1
 654 0464 93079000 		li	a5,9
 655 0468 63E02705 		bgtu	s2,a5,.L32
 656              	.LBB21:
  20:test/Threads_C_API_test.cpp ****         for (uint64 j = 0; j < 10000; j++) {
 657              		.loc 1 20 9
  20:test/Threads_C_API_test.cpp ****         for (uint64 j = 0; j < 10000; j++) {
 658              		.loc 1 20 20 is_stmt 0
 659 046c 17050000 		lla	a0,.LC12
 659      13050500 
 660 0474 97000000 		call	_Z11printStringPKc@plt
 660      E7800000 
 661              	.LVL86:
  20:test/Threads_C_API_test.cpp ****         for (uint64 j = 0; j < 10000; j++) {
 662              		.loc 1 20 31 is_stmt 1
  20:test/Threads_C_API_test.cpp ****         for (uint64 j = 0; j < 10000; j++) {
 663              		.loc 1 20 39 is_stmt 0
 664 047c 13060000 		li	a2,0
 665 0480 9305A000 		li	a1,10
 666 0484 1B050900 		sext.w	a0,s2
 667 0488 97000000 		call	_Z8printIntiii@plt
 667      E7800000 
 668              	.LVL87:
  20:test/Threads_C_API_test.cpp ****         for (uint64 j = 0; j < 10000; j++) {
 669              		.loc 1 20 44 is_stmt 1
  20:test/Threads_C_API_test.cpp ****         for (uint64 j = 0; j < 10000; j++) {
 670              		.loc 1 20 55 is_stmt 0
 671 0490 17050000 		lla	a0,.LC1
 671      13050500 
 672 0498 97000000 		call	_Z11printStringPKc@plt
 672      E7800000 
 673              	.LVL88:
  21:test/Threads_C_API_test.cpp ****             for (uint64 k = 0; k < 30000; k++) { /* busy wait */ }
 674              		.loc 1 21 9 is_stmt 1
 675              	.LBB20:
  21:test/Threads_C_API_test.cpp ****             for (uint64 k = 0; k < 30000; k++) { /* busy wait */ }
 676              		.loc 1 21 21 is_stmt 0
 677 04a0 93040000 		li	s1,0
 678 04a4 6FF09FF9 		j	.L36
 679              	.LVL89:
 680              	.L32:
 681              	.LBE20:
 682              	.LBE21:
 683              	.LBE14:
  26:test/Threads_C_API_test.cpp ****     finishedA = true;
 684              		.loc 1 26 5 is_stmt 1
GAS LISTING /tmp/ccEh7fUZ.s 			page 18


  26:test/Threads_C_API_test.cpp ****     finishedA = true;
 685              		.loc 1 26 16 is_stmt 0
 686 04a8 17050000 		lla	a0,.LC9
 686      13050500 
 687 04b0 97000000 		call	_Z11printStringPKc@plt
 687      E7800000 
 688              	.LVL90:
  27:test/Threads_C_API_test.cpp **** }
 689              		.loc 1 27 5 is_stmt 1
  27:test/Threads_C_API_test.cpp **** }
 690              		.loc 1 27 15 is_stmt 0
 691 04b8 93071000 		li	a5,1
 692 04bc 17070000 		sb	a5,.LANCHOR0+3,a4
 692      2300F700 
  28:test/Threads_C_API_test.cpp **** 
 693              		.loc 1 28 1
 694 04c4 83308101 		ld	ra,24(sp)
 695              		.cfi_restore 1
 696 04c8 03340101 		ld	s0,16(sp)
 697              		.cfi_restore 8
 698              		.cfi_def_cfa 2, 32
 699 04cc 83348100 		ld	s1,8(sp)
 700              		.cfi_restore 9
 701 04d0 03390100 		ld	s2,0(sp)
 702              		.cfi_restore 18
 703              	.LVL91:
 704 04d4 13010102 		addi	sp,sp,32
 705              		.cfi_def_cfa_offset 0
 706 04d8 67800000 		jr	ra
 707              		.cfi_endproc
 708              	.LFE25:
 710              		.section	.rodata.str1.8
 711 009e 0000     		.align	3
 712              	.LC13:
 713 00a0 54687265 		.string	"ThreadA created\n"
 713      61644120 
 713      63726561 
 713      7465640A 
 713      00
 714 00b1 00000000 		.align	3
 714      000000
 715              	.LC14:
 716 00b8 54687265 		.string	"ThreadB created\n"
 716      61644220 
 716      63726561 
 716      7465640A 
 716      00
 717 00c9 00000000 		.align	3
 717      000000
 718              	.LC15:
 719 00d0 54687265 		.string	"ThreadC created\n"
 719      61644320 
 719      63726561 
 719      7465640A 
 719      00
 720 00e1 00000000 		.align	3
 720      000000
GAS LISTING /tmp/ccEh7fUZ.s 			page 19


 721              	.LC16:
 722 00e8 54687265 		.string	"ThreadD created\n"
 722      61644420 
 722      63726561 
 722      7465640A 
 722      00
 723              		.text
 724              		.align	2
 725              		.globl	_Z18Threads_C_API_testv
 727              	_Z18Threads_C_API_testv:
 728              	.LFB29:
  91:test/Threads_C_API_test.cpp **** 
  92:test/Threads_C_API_test.cpp **** 
  93:test/Threads_C_API_test.cpp **** void Threads_C_API_test() {
 729              		.loc 1 93 27 is_stmt 1
 730              		.cfi_startproc
 731 04dc 130101FC 		addi	sp,sp,-64
 732              		.cfi_def_cfa_offset 64
 733 04e0 233C1102 		sd	ra,56(sp)
 734 04e4 23388102 		sd	s0,48(sp)
 735 04e8 23349102 		sd	s1,40(sp)
 736 04ec 23302103 		sd	s2,32(sp)
 737              		.cfi_offset 1, -8
 738              		.cfi_offset 8, -16
 739              		.cfi_offset 9, -24
 740              		.cfi_offset 18, -32
 741 04f0 13040104 		addi	s0,sp,64
 742              		.cfi_def_cfa 8, 0
  94:test/Threads_C_API_test.cpp ****     thread_t threads[4];
 743              		.loc 1 94 5
  95:test/Threads_C_API_test.cpp ****     thread_create(&threads[0], workerBodyA, nullptr);
 744              		.loc 1 95 5
 745              		.loc 1 95 18 is_stmt 0
 746 04f4 13060000 		li	a2,0
 747 04f8 97050000 		lla	a1,_ZL11workerBodyAPv
 747      93850500 
 748 0500 130504FC 		addi	a0,s0,-64
 749 0504 97000000 		call	_Z13thread_createPP3TCBPFvPvES2_@plt
 749      E7800000 
 750              	.LVL92:
  96:test/Threads_C_API_test.cpp ****     printString("ThreadA created\n");
 751              		.loc 1 96 5 is_stmt 1
 752              		.loc 1 96 16 is_stmt 0
 753 050c 17050000 		lla	a0,.LC13
 753      13050500 
 754 0514 97000000 		call	_Z11printStringPKc@plt
 754      E7800000 
 755              	.LVL93:
  97:test/Threads_C_API_test.cpp **** 
  98:test/Threads_C_API_test.cpp ****     thread_create(&threads[1], workerBodyB, nullptr);
 756              		.loc 1 98 5 is_stmt 1
 757              		.loc 1 98 18 is_stmt 0
 758 051c 13060000 		li	a2,0
 759 0520 97050000 		lla	a1,_ZL11workerBodyBPv
 759      93850500 
 760 0528 130584FC 		addi	a0,s0,-56
 761 052c 97000000 		call	_Z13thread_createPP3TCBPFvPvES2_@plt
GAS LISTING /tmp/ccEh7fUZ.s 			page 20


 761      E7800000 
 762              	.LVL94:
  99:test/Threads_C_API_test.cpp ****     printString("ThreadB created\n");
 763              		.loc 1 99 5 is_stmt 1
 764              		.loc 1 99 16 is_stmt 0
 765 0534 17050000 		lla	a0,.LC14
 765      13050500 
 766 053c 97000000 		call	_Z11printStringPKc@plt
 766      E7800000 
 767              	.LVL95:
 100:test/Threads_C_API_test.cpp **** 
 101:test/Threads_C_API_test.cpp ****     thread_create(&threads[2], workerBodyC, nullptr);
 768              		.loc 1 101 5 is_stmt 1
 769              		.loc 1 101 18 is_stmt 0
 770 0544 13060000 		li	a2,0
 771 0548 97050000 		lla	a1,_ZL11workerBodyCPv
 771      93850500 
 772 0550 130504FD 		addi	a0,s0,-48
 773 0554 97000000 		call	_Z13thread_createPP3TCBPFvPvES2_@plt
 773      E7800000 
 774              	.LVL96:
 102:test/Threads_C_API_test.cpp ****     printString("ThreadC created\n");
 775              		.loc 1 102 5 is_stmt 1
 776              		.loc 1 102 16 is_stmt 0
 777 055c 17050000 		lla	a0,.LC15
 777      13050500 
 778 0564 97000000 		call	_Z11printStringPKc@plt
 778      E7800000 
 779              	.LVL97:
 103:test/Threads_C_API_test.cpp **** 
 104:test/Threads_C_API_test.cpp ****     thread_create(&threads[3], workerBodyD, nullptr);
 780              		.loc 1 104 5 is_stmt 1
 781              		.loc 1 104 18 is_stmt 0
 782 056c 13060000 		li	a2,0
 783 0570 97050000 		lla	a1,_ZL11workerBodyDPv
 783      93850500 
 784 0578 130584FD 		addi	a0,s0,-40
 785 057c 97000000 		call	_Z13thread_createPP3TCBPFvPvES2_@plt
 785      E7800000 
 786              	.LVL98:
 105:test/Threads_C_API_test.cpp ****     printString("ThreadD created\n");
 787              		.loc 1 105 5 is_stmt 1
 788              		.loc 1 105 16 is_stmt 0
 789 0584 17050000 		lla	a0,.LC16
 789      13050500 
 790 058c 97000000 		call	_Z11printStringPKc@plt
 790      E7800000 
 791              	.LVL99:
 792 0594 6F00C000 		j	.L42
 793              	.L40:
 106:test/Threads_C_API_test.cpp **** 
 107:test/Threads_C_API_test.cpp ****     while (!(finishedA && finishedB && finishedC && finishedD)) {
 108:test/Threads_C_API_test.cpp ****         thread_dispatch();
 794              		.loc 1 108 9 is_stmt 1
 795              		.loc 1 108 24 is_stmt 0
 796 0598 97000000 		call	_Z15thread_dispatchv@plt
 796      E7800000 
GAS LISTING /tmp/ccEh7fUZ.s 			page 21


 797              	.LVL100:
 798              	.L42:
 107:test/Threads_C_API_test.cpp ****         thread_dispatch();
 799              		.loc 1 107 5 is_stmt 1
 107:test/Threads_C_API_test.cpp ****         thread_dispatch();
 800              		.loc 1 107 12
 107:test/Threads_C_API_test.cpp ****         thread_dispatch();
 801              		.loc 1 107 14 is_stmt 0
 802 05a0 97070000 		lbu	a5,.LANCHOR0+3
 802      83C70700 
 107:test/Threads_C_API_test.cpp ****         thread_dispatch();
 803              		.loc 1 107 12
 804 05a8 E38807FE 		beqz	a5,.L40
 107:test/Threads_C_API_test.cpp ****         thread_dispatch();
 805              		.loc 1 107 27 discriminator 2
 806 05ac 97070000 		lbu	a5,.LANCHOR0+2
 806      83C70700 
 107:test/Threads_C_API_test.cpp ****         thread_dispatch();
 807              		.loc 1 107 24 discriminator 2
 808 05b4 E38207FE 		beqz	a5,.L40
 107:test/Threads_C_API_test.cpp ****         thread_dispatch();
 809              		.loc 1 107 40 discriminator 4
 810 05b8 97070000 		lbu	a5,.LANCHOR0+1
 810      83C70700 
 107:test/Threads_C_API_test.cpp ****         thread_dispatch();
 811              		.loc 1 107 37 discriminator 4
 812 05c0 E38C07FC 		beqz	a5,.L40
 107:test/Threads_C_API_test.cpp ****         thread_dispatch();
 813              		.loc 1 107 53 discriminator 6
 814 05c4 97070000 		lbu	a5,.LANCHOR0
 814      83C70700 
 107:test/Threads_C_API_test.cpp ****         thread_dispatch();
 815              		.loc 1 107 12 discriminator 6
 816 05cc E38607FC 		beqz	a5,.L40
 817 05d0 93040000 		li	s1,0
 818 05d4 6F004001 		j	.L41
 819              	.LVL101:
 820              	.L45:
 821              	.LBB22:
 109:test/Threads_C_API_test.cpp ****     }
 110:test/Threads_C_API_test.cpp **** 
 111:test/Threads_C_API_test.cpp ****     for(int i = 0; i < 4; i++) delete threads[i];
 822              		.loc 1 111 48
 823 05d8 13050900 		mv	a0,s2
 824 05dc 97000000 		call	_ZdlPv@plt
 824      E7800000 
 825              	.LVL102:
 826              	.L44:
 827              		.loc 1 111 5 is_stmt 1 discriminator 5
 828 05e4 9B841400 		addiw	s1,s1,1
 829              	.LVL103:
 830              	.L41:
 831              		.loc 1 111 22 discriminator 6
 832 05e8 93073000 		li	a5,3
 833 05ec 63C69702 		bgt	s1,a5,.L39
 834              		.loc 1 111 32 discriminator 2
 835              		.loc 1 111 48 is_stmt 0 discriminator 2
GAS LISTING /tmp/ccEh7fUZ.s 			page 22


 836 05f0 93973400 		slli	a5,s1,3
 837 05f4 130704FE 		addi	a4,s0,-32
 838 05f8 B307F700 		add	a5,a4,a5
 839 05fc 03B907FE 		ld	s2,-32(a5)
 840              		.loc 1 111 49 discriminator 2
 841 0600 E30209FE 		beqz	s2,.L44
 842              	.LVL104:
 843              	.LBB23:
 844              	.LBB24:
 845              		.file 2 "test/../h/tcb.hpp"
   1:test/../h/tcb.hpp **** #ifndef TCB_H
   2:test/../h/tcb.hpp **** #define TCB_H
   3:test/../h/tcb.hpp **** 
   4:test/../h/tcb.hpp **** #include "../lib/hw.h"
   5:test/../h/tcb.hpp **** #include "../h/scheduler.hpp"
   6:test/../h/tcb.hpp **** 
   7:test/../h/tcb.hpp **** class TCB {
   8:test/../h/tcb.hpp **** public:
   9:test/../h/tcb.hpp ****     ~TCB(){ delete[] stack; }
 846              		.loc 2 9 13 is_stmt 1
 847              		.loc 2 9 22 is_stmt 0
 848 0604 03350901 		ld	a0,16(s2)
 849              		.loc 2 9 27
 850 0608 E30805FC 		beqz	a0,.L45
 851              		.loc 2 9 22
 852 060c 97000000 		call	_ZdaPv@plt
 852      E7800000 
 853              	.LVL105:
 854 0614 6FF05FFC 		j	.L45
 855              	.LVL106:
 856              	.L39:
 857              	.LBE24:
 858              	.LBE23:
 859              	.LBE22:
 112:test/Threads_C_API_test.cpp **** 
 113:test/Threads_C_API_test.cpp **** }
 860              		.loc 1 113 1
 861 0618 83308103 		ld	ra,56(sp)
 862              		.cfi_restore 1
 863 061c 03340103 		ld	s0,48(sp)
 864              		.cfi_restore 8
 865              		.cfi_def_cfa 2, 64
 866 0620 83348102 		ld	s1,40(sp)
 867              		.cfi_restore 9
 868              	.LVL107:
 869 0624 03390102 		ld	s2,32(sp)
 870              		.cfi_restore 18
 871 0628 13010104 		addi	sp,sp,64
 872              		.cfi_def_cfa_offset 0
 873 062c 67800000 		jr	ra
 874              		.cfi_endproc
 875              	.LFE29:
 877              		.bss
 878              		.set	.LANCHOR0,. + 0
 881              	_ZL9finishedD:
 882 0000 00       		.zero	1
 885              	_ZL9finishedC:
GAS LISTING /tmp/ccEh7fUZ.s 			page 23


 886 0001 00       		.zero	1
 889              	_ZL9finishedB:
 890 0002 00       		.zero	1
 893              	_ZL9finishedA:
 894 0003 00       		.zero	1
 895              		.text
 896              	.Letext0:
 897              		.file 3 "test/../h/../lib/hw.h"
 898              		.file 4 "test/../h/syscall_c.hpp"
 899              		.file 5 "test/../h/printing.hpp"
GAS LISTING /tmp/ccEh7fUZ.s 			page 24


DEFINED SYMBOLS
                            *ABS*:0000000000000000 Threads_C_API_test.cpp
     /tmp/ccEh7fUZ.s:8      .text:0000000000000000 _ZL9fibonaccim
     /tmp/ccEh7fUZ.s:12     .text:0000000000000000 .L0 
     /tmp/ccEh7fUZ.s:14     .text:0000000000000000 .L0 
     /tmp/ccEh7fUZ.s:15     .text:0000000000000004 .L0 
     /tmp/ccEh7fUZ.s:20     .text:0000000000000014 .L0 
     /tmp/ccEh7fUZ.s:21     .text:0000000000000014 .L0 
     /tmp/ccEh7fUZ.s:22     .text:0000000000000014 .L0 
     /tmp/ccEh7fUZ.s:23     .text:0000000000000014 .L0 
     /tmp/ccEh7fUZ.s:25     .text:0000000000000018 .L0 
     /tmp/ccEh7fUZ.s:28     .text:000000000000001c .L0 
     /tmp/ccEh7fUZ.s:31     .text:0000000000000024 .L0 
     /tmp/ccEh7fUZ.s:32     .text:0000000000000024 .L0 
     /tmp/ccEh7fUZ.s:35     .text:000000000000002c .L0 
     /tmp/ccEh7fUZ.s:39     .text:0000000000000030 .L0 
     /tmp/ccEh7fUZ.s:40     .text:0000000000000030 .L0 
     /tmp/ccEh7fUZ.s:45     .text:0000000000000040 .L0 
     /tmp/ccEh7fUZ.s:49     .text:000000000000004c .L0 
     /tmp/ccEh7fUZ.s:52     .text:0000000000000050 .L0 
     /tmp/ccEh7fUZ.s:53     .text:0000000000000054 .L0 
     /tmp/ccEh7fUZ.s:54     .text:0000000000000054 .L0 
     /tmp/ccEh7fUZ.s:56     .text:0000000000000058 .L0 
     /tmp/ccEh7fUZ.s:57     .text:0000000000000058 .L0 
     /tmp/ccEh7fUZ.s:59     .text:000000000000005c .L0 
     /tmp/ccEh7fUZ.s:62     .text:0000000000000060 .L0 
     /tmp/ccEh7fUZ.s:64     .text:0000000000000064 .L0 
     /tmp/ccEh7fUZ.s:68     .text:0000000000000068 .L0 
     /tmp/ccEh7fUZ.s:70     .text:0000000000000068 .L0 
     /tmp/ccEh7fUZ.s:71     .text:0000000000000068 .L0 
     /tmp/ccEh7fUZ.s:74     .text:0000000000000074 .L0 
     /tmp/ccEh7fUZ.s:96     .text:0000000000000074 _ZL11workerBodyDPv
     /tmp/ccEh7fUZ.s:99     .text:0000000000000074 .L0 
     /tmp/ccEh7fUZ.s:101    .text:0000000000000074 .L0 
     /tmp/ccEh7fUZ.s:102    .text:0000000000000078 .L0 
     /tmp/ccEh7fUZ.s:107    .text:0000000000000088 .L0 
     /tmp/ccEh7fUZ.s:108    .text:0000000000000088 .L0 
     /tmp/ccEh7fUZ.s:109    .text:0000000000000088 .L0 
     /tmp/ccEh7fUZ.s:110    .text:0000000000000088 .L0 
     /tmp/ccEh7fUZ.s:112    .text:000000000000008c .L0 
     /tmp/ccEh7fUZ.s:115    .text:000000000000008c .L0 
     /tmp/ccEh7fUZ.s:116    .text:000000000000008c .L0 
     /tmp/ccEh7fUZ.s:121    .text:0000000000000094 .L0 
     /tmp/ccEh7fUZ.s:122    .text:0000000000000094 .L0 
     /tmp/ccEh7fUZ.s:126    .text:00000000000000a4 .L0 
     /tmp/ccEh7fUZ.s:127    .text:00000000000000a4 .L0 
     /tmp/ccEh7fUZ.s:133    .text:00000000000000b8 .L0 
     /tmp/ccEh7fUZ.s:134    .text:00000000000000b8 .L0 
     /tmp/ccEh7fUZ.s:138    .text:00000000000000c8 .L0 
     /tmp/ccEh7fUZ.s:144    .text:00000000000000d0 .L0 
     /tmp/ccEh7fUZ.s:145    .text:00000000000000d0 .L0 
     /tmp/ccEh7fUZ.s:148    .text:00000000000000d8 .L0 
     /tmp/ccEh7fUZ.s:149    .text:00000000000000d8 .L0 
     /tmp/ccEh7fUZ.s:153    .text:00000000000000e8 .L0 
test/Threads_C_API_test.cpp:77     .text:00000000000000e8 .L0 
     /tmp/ccEh7fUZ.s:159    .text:00000000000000ec .L0 
     /tmp/ccEh7fUZ.s:161    .text:00000000000000ec .L0 
GAS LISTING /tmp/ccEh7fUZ.s 			page 25


     /tmp/ccEh7fUZ.s:164    .text:00000000000000f4 .L0 
     /tmp/ccEh7fUZ.s:165    .text:00000000000000f4 .L0 
     /tmp/ccEh7fUZ.s:171    .text:0000000000000104 .L0 
     /tmp/ccEh7fUZ.s:172    .text:0000000000000104 .L0 
     /tmp/ccEh7fUZ.s:177    .text:0000000000000114 .L0 
     /tmp/ccEh7fUZ.s:178    .text:0000000000000114 .L0 
     /tmp/ccEh7fUZ.s:184    .text:0000000000000128 .L0 
     /tmp/ccEh7fUZ.s:185    .text:0000000000000128 .L0 
     /tmp/ccEh7fUZ.s:191    .text:000000000000013c .L0 
     /tmp/ccEh7fUZ.s:192    .text:000000000000013c .L0 
     /tmp/ccEh7fUZ.s:196    .text:000000000000014c .L0 
     /tmp/ccEh7fUZ.s:197    .text:000000000000014c .L0 
     /tmp/ccEh7fUZ.s:203    .text:0000000000000160 .L0 
     /tmp/ccEh7fUZ.s:204    .text:0000000000000160 .L0 
     /tmp/ccEh7fUZ.s:208    .text:0000000000000170 .L0 
     /tmp/ccEh7fUZ.s:214    .text:0000000000000178 .L0 
     /tmp/ccEh7fUZ.s:215    .text:0000000000000178 .L0 
     /tmp/ccEh7fUZ.s:218    .text:0000000000000180 .L0 
     /tmp/ccEh7fUZ.s:219    .text:0000000000000180 .L0 
     /tmp/ccEh7fUZ.s:223    .text:0000000000000190 .L0 
     /tmp/ccEh7fUZ.s:224    .text:0000000000000190 .L0 
     /tmp/ccEh7fUZ.s:227    .text:000000000000019c .L0 
     /tmp/ccEh7fUZ.s:228    .text:000000000000019c .L0 
     /tmp/ccEh7fUZ.s:231    .text:00000000000001a4 .L0 
     /tmp/ccEh7fUZ.s:232    .text:00000000000001a8 .L0 
     /tmp/ccEh7fUZ.s:234    .text:00000000000001ac .L0 
     /tmp/ccEh7fUZ.s:235    .text:00000000000001ac .L0 
     /tmp/ccEh7fUZ.s:237    .text:00000000000001b0 .L0 
     /tmp/ccEh7fUZ.s:240    .text:00000000000001b4 .L0 
     /tmp/ccEh7fUZ.s:243    .text:00000000000001b8 .L0 
     /tmp/ccEh7fUZ.s:245    .text:00000000000001bc .L0 
     /tmp/ccEh7fUZ.s:267    .text:00000000000001bc _ZL11workerBodyCPv
     /tmp/ccEh7fUZ.s:270    .text:00000000000001bc .L0 
     /tmp/ccEh7fUZ.s:272    .text:00000000000001bc .L0 
     /tmp/ccEh7fUZ.s:273    .text:00000000000001c0 .L0 
     /tmp/ccEh7fUZ.s:278    .text:00000000000001d0 .L0 
     /tmp/ccEh7fUZ.s:279    .text:00000000000001d0 .L0 
     /tmp/ccEh7fUZ.s:280    .text:00000000000001d0 .L0 
     /tmp/ccEh7fUZ.s:281    .text:00000000000001d0 .L0 
     /tmp/ccEh7fUZ.s:283    .text:00000000000001d4 .L0 
     /tmp/ccEh7fUZ.s:286    .text:00000000000001d4 .L0 
     /tmp/ccEh7fUZ.s:287    .text:00000000000001d4 .L0 
     /tmp/ccEh7fUZ.s:292    .text:00000000000001dc .L0 
     /tmp/ccEh7fUZ.s:293    .text:00000000000001dc .L0 
     /tmp/ccEh7fUZ.s:297    .text:00000000000001ec .L0 
     /tmp/ccEh7fUZ.s:298    .text:00000000000001ec .L0 
     /tmp/ccEh7fUZ.s:304    .text:0000000000000200 .L0 
     /tmp/ccEh7fUZ.s:305    .text:0000000000000200 .L0 
     /tmp/ccEh7fUZ.s:309    .text:0000000000000210 .L0 
     /tmp/ccEh7fUZ.s:315    .text:0000000000000218 .L0 
     /tmp/ccEh7fUZ.s:316    .text:0000000000000218 .L0 
     /tmp/ccEh7fUZ.s:319    .text:0000000000000220 .L0 
     /tmp/ccEh7fUZ.s:320    .text:0000000000000220 .L0 
     /tmp/ccEh7fUZ.s:324    .text:0000000000000230 .L0 
test/Threads_C_API_test.cpp:50     .text:0000000000000230 .L0 
     /tmp/ccEh7fUZ.s:330    .text:0000000000000234 .L0 
     /tmp/ccEh7fUZ.s:332    .text:0000000000000234 .L0 
GAS LISTING /tmp/ccEh7fUZ.s 			page 26


     /tmp/ccEh7fUZ.s:335    .text:000000000000023c .L0 
     /tmp/ccEh7fUZ.s:336    .text:000000000000023c .L0 
test/Threads_C_API_test.cpp:54     .text:000000000000023c .L0 
     /tmp/ccEh7fUZ.s:343    .text:0000000000000240 .L0 
     /tmp/ccEh7fUZ.s:345    .text:0000000000000240 .L0 
     /tmp/ccEh7fUZ.s:349    .text:0000000000000250 .L0 
     /tmp/ccEh7fUZ.s:350    .text:0000000000000250 .L0 
     /tmp/ccEh7fUZ.s:356    .text:0000000000000264 .L0 
     /tmp/ccEh7fUZ.s:357    .text:0000000000000264 .L0 
     /tmp/ccEh7fUZ.s:361    .text:0000000000000274 .L0 
     /tmp/ccEh7fUZ.s:362    .text:0000000000000274 .L0 
     /tmp/ccEh7fUZ.s:368    .text:0000000000000284 .L0 
     /tmp/ccEh7fUZ.s:369    .text:0000000000000284 .L0 
     /tmp/ccEh7fUZ.s:374    .text:0000000000000294 .L0 
     /tmp/ccEh7fUZ.s:375    .text:0000000000000294 .L0 
     /tmp/ccEh7fUZ.s:381    .text:00000000000002a8 .L0 
     /tmp/ccEh7fUZ.s:382    .text:00000000000002a8 .L0 
     /tmp/ccEh7fUZ.s:388    .text:00000000000002bc .L0 
     /tmp/ccEh7fUZ.s:389    .text:00000000000002bc .L0 
     /tmp/ccEh7fUZ.s:393    .text:00000000000002cc .L0 
     /tmp/ccEh7fUZ.s:394    .text:00000000000002cc .L0 
     /tmp/ccEh7fUZ.s:400    .text:00000000000002e0 .L0 
     /tmp/ccEh7fUZ.s:401    .text:00000000000002e0 .L0 
     /tmp/ccEh7fUZ.s:405    .text:00000000000002f0 .L0 
     /tmp/ccEh7fUZ.s:411    .text:00000000000002f8 .L0 
     /tmp/ccEh7fUZ.s:412    .text:00000000000002f8 .L0 
     /tmp/ccEh7fUZ.s:415    .text:0000000000000300 .L0 
     /tmp/ccEh7fUZ.s:416    .text:0000000000000300 .L0 
     /tmp/ccEh7fUZ.s:420    .text:0000000000000310 .L0 
     /tmp/ccEh7fUZ.s:421    .text:0000000000000310 .L0 
     /tmp/ccEh7fUZ.s:424    .text:000000000000031c .L0 
     /tmp/ccEh7fUZ.s:425    .text:000000000000031c .L0 
     /tmp/ccEh7fUZ.s:428    .text:0000000000000324 .L0 
     /tmp/ccEh7fUZ.s:429    .text:0000000000000328 .L0 
     /tmp/ccEh7fUZ.s:431    .text:000000000000032c .L0 
     /tmp/ccEh7fUZ.s:432    .text:000000000000032c .L0 
     /tmp/ccEh7fUZ.s:434    .text:0000000000000330 .L0 
     /tmp/ccEh7fUZ.s:437    .text:0000000000000334 .L0 
     /tmp/ccEh7fUZ.s:440    .text:0000000000000338 .L0 
     /tmp/ccEh7fUZ.s:442    .text:000000000000033c .L0 
     /tmp/ccEh7fUZ.s:455    .text:000000000000033c _ZL11workerBodyBPv
     /tmp/ccEh7fUZ.s:458    .text:000000000000033c .L0 
     /tmp/ccEh7fUZ.s:460    .text:000000000000033c .L0 
     /tmp/ccEh7fUZ.s:461    .text:0000000000000340 .L0 
     /tmp/ccEh7fUZ.s:466    .text:0000000000000350 .L0 
     /tmp/ccEh7fUZ.s:467    .text:0000000000000350 .L0 
     /tmp/ccEh7fUZ.s:468    .text:0000000000000350 .L0 
     /tmp/ccEh7fUZ.s:469    .text:0000000000000350 .L0 
     /tmp/ccEh7fUZ.s:471    .text:0000000000000354 .L0 
     /tmp/ccEh7fUZ.s:475    .text:0000000000000354 .L0 
     /tmp/ccEh7fUZ.s:476    .text:0000000000000354 .L0 
     /tmp/ccEh7fUZ.s:484    .text:000000000000035c .L0 
     /tmp/ccEh7fUZ.s:485    .text:000000000000035c .L0 
     /tmp/ccEh7fUZ.s:489    .text:0000000000000364 .L0 
     /tmp/ccEh7fUZ.s:493    .text:0000000000000368 .L0 
     /tmp/ccEh7fUZ.s:499    .text:0000000000000374 .L0 
     /tmp/ccEh7fUZ.s:503    .text:0000000000000378 .L0 
GAS LISTING /tmp/ccEh7fUZ.s 			page 27


     /tmp/ccEh7fUZ.s:507    .text:0000000000000384 .L0 
     /tmp/ccEh7fUZ.s:517    .text:000000000000038c .L0 
     /tmp/ccEh7fUZ.s:521    .text:0000000000000390 .L0 
     /tmp/ccEh7fUZ.s:525    .text:0000000000000398 .L0 
     /tmp/ccEh7fUZ.s:526    .text:0000000000000398 .L0 
     /tmp/ccEh7fUZ.s:530    .text:00000000000003a8 .L0 
     /tmp/ccEh7fUZ.s:531    .text:00000000000003a8 .L0 
     /tmp/ccEh7fUZ.s:537    .text:00000000000003bc .L0 
     /tmp/ccEh7fUZ.s:538    .text:00000000000003bc .L0 
     /tmp/ccEh7fUZ.s:543    .text:00000000000003cc .L0 
     /tmp/ccEh7fUZ.s:544    .text:00000000000003cc .L0 
     /tmp/ccEh7fUZ.s:552    .text:00000000000003d4 .L0 
     /tmp/ccEh7fUZ.s:553    .text:00000000000003d4 .L0 
     /tmp/ccEh7fUZ.s:557    .text:00000000000003e4 .L0 
     /tmp/ccEh7fUZ.s:558    .text:00000000000003e4 .L0 
     /tmp/ccEh7fUZ.s:561    .text:00000000000003f0 .L0 
     /tmp/ccEh7fUZ.s:562    .text:00000000000003f0 .L0 
     /tmp/ccEh7fUZ.s:565    .text:00000000000003f8 .L0 
     /tmp/ccEh7fUZ.s:566    .text:00000000000003fc .L0 
     /tmp/ccEh7fUZ.s:568    .text:0000000000000400 .L0 
     /tmp/ccEh7fUZ.s:569    .text:0000000000000400 .L0 
     /tmp/ccEh7fUZ.s:571    .text:0000000000000404 .L0 
     /tmp/ccEh7fUZ.s:573    .text:0000000000000408 .L0 
     /tmp/ccEh7fUZ.s:576    .text:000000000000040c .L0 
     /tmp/ccEh7fUZ.s:578    .text:0000000000000410 .L0 
     /tmp/ccEh7fUZ.s:588    .text:0000000000000410 _ZL11workerBodyAPv
     /tmp/ccEh7fUZ.s:591    .text:0000000000000410 .L0 
     /tmp/ccEh7fUZ.s:593    .text:0000000000000410 .L0 
     /tmp/ccEh7fUZ.s:594    .text:0000000000000414 .L0 
     /tmp/ccEh7fUZ.s:599    .text:0000000000000424 .L0 
     /tmp/ccEh7fUZ.s:600    .text:0000000000000424 .L0 
     /tmp/ccEh7fUZ.s:601    .text:0000000000000424 .L0 
     /tmp/ccEh7fUZ.s:602    .text:0000000000000424 .L0 
     /tmp/ccEh7fUZ.s:604    .text:0000000000000428 .L0 
     /tmp/ccEh7fUZ.s:608    .text:0000000000000428 .L0 
     /tmp/ccEh7fUZ.s:609    .text:0000000000000428 .L0 
     /tmp/ccEh7fUZ.s:617    .text:0000000000000430 .L0 
     /tmp/ccEh7fUZ.s:618    .text:0000000000000430 .L0 
     /tmp/ccEh7fUZ.s:622    .text:0000000000000438 .L0 
     /tmp/ccEh7fUZ.s:626    .text:000000000000043c .L0 
     /tmp/ccEh7fUZ.s:632    .text:0000000000000448 .L0 
     /tmp/ccEh7fUZ.s:636    .text:000000000000044c .L0 
     /tmp/ccEh7fUZ.s:640    .text:0000000000000458 .L0 
     /tmp/ccEh7fUZ.s:650    .text:0000000000000460 .L0 
     /tmp/ccEh7fUZ.s:654    .text:0000000000000464 .L0 
     /tmp/ccEh7fUZ.s:658    .text:000000000000046c .L0 
     /tmp/ccEh7fUZ.s:659    .text:000000000000046c .L0 
     /tmp/ccEh7fUZ.s:663    .text:000000000000047c .L0 
     /tmp/ccEh7fUZ.s:664    .text:000000000000047c .L0 
     /tmp/ccEh7fUZ.s:670    .text:0000000000000490 .L0 
     /tmp/ccEh7fUZ.s:671    .text:0000000000000490 .L0 
     /tmp/ccEh7fUZ.s:676    .text:00000000000004a0 .L0 
     /tmp/ccEh7fUZ.s:677    .text:00000000000004a0 .L0 
     /tmp/ccEh7fUZ.s:685    .text:00000000000004a8 .L0 
     /tmp/ccEh7fUZ.s:686    .text:00000000000004a8 .L0 
     /tmp/ccEh7fUZ.s:690    .text:00000000000004b8 .L0 
     /tmp/ccEh7fUZ.s:691    .text:00000000000004b8 .L0 
GAS LISTING /tmp/ccEh7fUZ.s 			page 28


     /tmp/ccEh7fUZ.s:694    .text:00000000000004c4 .L0 
     /tmp/ccEh7fUZ.s:695    .text:00000000000004c8 .L0 
     /tmp/ccEh7fUZ.s:697    .text:00000000000004cc .L0 
     /tmp/ccEh7fUZ.s:698    .text:00000000000004cc .L0 
     /tmp/ccEh7fUZ.s:700    .text:00000000000004d0 .L0 
     /tmp/ccEh7fUZ.s:702    .text:00000000000004d4 .L0 
     /tmp/ccEh7fUZ.s:705    .text:00000000000004d8 .L0 
     /tmp/ccEh7fUZ.s:707    .text:00000000000004dc .L0 
     /tmp/ccEh7fUZ.s:727    .text:00000000000004dc _Z18Threads_C_API_testv
     /tmp/ccEh7fUZ.s:730    .text:00000000000004dc .L0 
     /tmp/ccEh7fUZ.s:731    .text:00000000000004dc .L0 
     /tmp/ccEh7fUZ.s:732    .text:00000000000004e0 .L0 
     /tmp/ccEh7fUZ.s:737    .text:00000000000004f0 .L0 
     /tmp/ccEh7fUZ.s:738    .text:00000000000004f0 .L0 
     /tmp/ccEh7fUZ.s:739    .text:00000000000004f0 .L0 
     /tmp/ccEh7fUZ.s:740    .text:00000000000004f0 .L0 
     /tmp/ccEh7fUZ.s:742    .text:00000000000004f4 .L0 
     /tmp/ccEh7fUZ.s:744    .text:00000000000004f4 .L0 
     /tmp/ccEh7fUZ.s:745    .text:00000000000004f4 .L0 
     /tmp/ccEh7fUZ.s:746    .text:00000000000004f4 .L0 
     /tmp/ccEh7fUZ.s:752    .text:000000000000050c .L0 
     /tmp/ccEh7fUZ.s:753    .text:000000000000050c .L0 
     /tmp/ccEh7fUZ.s:757    .text:000000000000051c .L0 
     /tmp/ccEh7fUZ.s:758    .text:000000000000051c .L0 
     /tmp/ccEh7fUZ.s:764    .text:0000000000000534 .L0 
     /tmp/ccEh7fUZ.s:765    .text:0000000000000534 .L0 
     /tmp/ccEh7fUZ.s:769    .text:0000000000000544 .L0 
     /tmp/ccEh7fUZ.s:770    .text:0000000000000544 .L0 
     /tmp/ccEh7fUZ.s:776    .text:000000000000055c .L0 
     /tmp/ccEh7fUZ.s:777    .text:000000000000055c .L0 
     /tmp/ccEh7fUZ.s:781    .text:000000000000056c .L0 
     /tmp/ccEh7fUZ.s:782    .text:000000000000056c .L0 
     /tmp/ccEh7fUZ.s:788    .text:0000000000000584 .L0 
     /tmp/ccEh7fUZ.s:789    .text:0000000000000584 .L0 
     /tmp/ccEh7fUZ.s:795    .text:0000000000000598 .L0 
     /tmp/ccEh7fUZ.s:796    .text:0000000000000598 .L0 
     /tmp/ccEh7fUZ.s:800    .text:00000000000005a0 .L0 
     /tmp/ccEh7fUZ.s:801    .text:00000000000005a0 .L0 
     /tmp/ccEh7fUZ.s:802    .text:00000000000005a0 .L0 
     /tmp/ccEh7fUZ.s:804    .text:00000000000005a8 .L0 
     /tmp/ccEh7fUZ.s:806    .text:00000000000005ac .L0 
     /tmp/ccEh7fUZ.s:808    .text:00000000000005b4 .L0 
     /tmp/ccEh7fUZ.s:810    .text:00000000000005b8 .L0 
     /tmp/ccEh7fUZ.s:812    .text:00000000000005c0 .L0 
     /tmp/ccEh7fUZ.s:814    .text:00000000000005c4 .L0 
     /tmp/ccEh7fUZ.s:816    .text:00000000000005cc .L0 
     /tmp/ccEh7fUZ.s:823    .text:00000000000005d8 .L0 
     /tmp/ccEh7fUZ.s:828    .text:00000000000005e4 .L0 
     /tmp/ccEh7fUZ.s:832    .text:00000000000005e8 .L0 
     /tmp/ccEh7fUZ.s:835    .text:00000000000005f0 .L0 
     /tmp/ccEh7fUZ.s:836    .text:00000000000005f0 .L0 
     /tmp/ccEh7fUZ.s:841    .text:0000000000000600 .L0 
     /tmp/ccEh7fUZ.s:847    .text:0000000000000604 .L0 
     /tmp/ccEh7fUZ.s:848    .text:0000000000000604 .L0 
     /tmp/ccEh7fUZ.s:850    .text:0000000000000608 .L0 
     /tmp/ccEh7fUZ.s:852    .text:000000000000060c .L0 
     /tmp/ccEh7fUZ.s:861    .text:0000000000000618 .L0 
GAS LISTING /tmp/ccEh7fUZ.s 			page 29


     /tmp/ccEh7fUZ.s:862    .text:000000000000061c .L0 
     /tmp/ccEh7fUZ.s:864    .text:0000000000000620 .L0 
     /tmp/ccEh7fUZ.s:865    .text:0000000000000620 .L0 
     /tmp/ccEh7fUZ.s:867    .text:0000000000000624 .L0 
     /tmp/ccEh7fUZ.s:870    .text:0000000000000628 .L0 
     /tmp/ccEh7fUZ.s:872    .text:000000000000062c .L0 
     /tmp/ccEh7fUZ.s:874    .text:0000000000000630 .L0 
     /tmp/ccEh7fUZ.s:878    .bss:0000000000000000 .LANCHOR0
     /tmp/ccEh7fUZ.s:881    .bss:0000000000000000 _ZL9finishedD
     /tmp/ccEh7fUZ.s:885    .bss:0000000000000001 _ZL9finishedC
     /tmp/ccEh7fUZ.s:889    .bss:0000000000000002 _ZL9finishedB
     /tmp/ccEh7fUZ.s:893    .bss:0000000000000003 _ZL9finishedA
     /tmp/ccEh7fUZ.s:900    .text:0000000000000630 .L0 
     /tmp/ccEh7fUZ.s:79     .rodata.str1.8:0000000000000000 .LC0
     /tmp/ccEh7fUZ.s:122    .text:0000000000000094 .L0 
     /tmp/ccEh7fUZ.s:82     .rodata.str1.8:0000000000000008 .LC1
     /tmp/ccEh7fUZ.s:134    .text:00000000000000b8 .L0 
     /tmp/ccEh7fUZ.s:85     .rodata.str1.8:0000000000000010 .LC2
     /tmp/ccEh7fUZ.s:149    .text:00000000000000d8 .L0 
     /tmp/ccEh7fUZ.s:88     .rodata.str1.8:0000000000000020 .LC3
     /tmp/ccEh7fUZ.s:172    .text:0000000000000104 .L0 
     /tmp/ccEh7fUZ.s:185    .text:0000000000000128 .L0 
     /tmp/ccEh7fUZ.s:192    .text:000000000000013c .L0 
     /tmp/ccEh7fUZ.s:204    .text:0000000000000160 .L0 
     /tmp/ccEh7fUZ.s:91     .rodata.str1.8:0000000000000030 .LC4
     /tmp/ccEh7fUZ.s:219    .text:0000000000000180 .L0 
     /tmp/ccEh7fUZ.s:225    .text:0000000000000194 .L0 
     /tmp/ccEh7fUZ.s:250    .rodata.str1.8:0000000000000040 .LC5
     /tmp/ccEh7fUZ.s:293    .text:00000000000001dc .L0 
     /tmp/ccEh7fUZ.s:305    .text:0000000000000200 .L0 
     /tmp/ccEh7fUZ.s:253    .rodata.str1.8:0000000000000048 .LC6
     /tmp/ccEh7fUZ.s:320    .text:0000000000000220 .L0 
     /tmp/ccEh7fUZ.s:256    .rodata.str1.8:0000000000000058 .LC7
     /tmp/ccEh7fUZ.s:345    .text:0000000000000240 .L0 
     /tmp/ccEh7fUZ.s:357    .text:0000000000000264 .L0 
     /tmp/ccEh7fUZ.s:259    .rodata.str1.8:0000000000000060 .LC8
     /tmp/ccEh7fUZ.s:369    .text:0000000000000284 .L0 
     /tmp/ccEh7fUZ.s:382    .text:00000000000002a8 .L0 
     /tmp/ccEh7fUZ.s:389    .text:00000000000002bc .L0 
     /tmp/ccEh7fUZ.s:401    .text:00000000000002e0 .L0 
     /tmp/ccEh7fUZ.s:262    .rodata.str1.8:0000000000000070 .LC9
     /tmp/ccEh7fUZ.s:416    .text:0000000000000300 .L0 
     /tmp/ccEh7fUZ.s:422    .text:0000000000000314 .L0 
     /tmp/ccEh7fUZ.s:447    .rodata.str1.8:0000000000000080 .LC10
     /tmp/ccEh7fUZ.s:526    .text:0000000000000398 .L0 
     /tmp/ccEh7fUZ.s:538    .text:00000000000003bc .L0 
     /tmp/ccEh7fUZ.s:450    .rodata.str1.8:0000000000000088 .LC11
     /tmp/ccEh7fUZ.s:553    .text:00000000000003d4 .L0 
     /tmp/ccEh7fUZ.s:559    .text:00000000000003e8 .L0 
     /tmp/ccEh7fUZ.s:583    .rodata.str1.8:0000000000000098 .LC12
     /tmp/ccEh7fUZ.s:659    .text:000000000000046c .L0 
     /tmp/ccEh7fUZ.s:671    .text:0000000000000490 .L0 
     /tmp/ccEh7fUZ.s:686    .text:00000000000004a8 .L0 
     /tmp/ccEh7fUZ.s:692    .text:00000000000004bc .L0 
     /tmp/ccEh7fUZ.s:747    .text:00000000000004f8 .L0 
     /tmp/ccEh7fUZ.s:712    .rodata.str1.8:00000000000000a0 .LC13
     /tmp/ccEh7fUZ.s:753    .text:000000000000050c .L0 
GAS LISTING /tmp/ccEh7fUZ.s 			page 30


     /tmp/ccEh7fUZ.s:759    .text:0000000000000520 .L0 
     /tmp/ccEh7fUZ.s:715    .rodata.str1.8:00000000000000b8 .LC14
     /tmp/ccEh7fUZ.s:765    .text:0000000000000534 .L0 
     /tmp/ccEh7fUZ.s:771    .text:0000000000000548 .L0 
     /tmp/ccEh7fUZ.s:718    .rodata.str1.8:00000000000000d0 .LC15
     /tmp/ccEh7fUZ.s:777    .text:000000000000055c .L0 
     /tmp/ccEh7fUZ.s:783    .text:0000000000000570 .L0 
     /tmp/ccEh7fUZ.s:721    .rodata.str1.8:00000000000000e8 .LC16
     /tmp/ccEh7fUZ.s:789    .text:0000000000000584 .L0 
     /tmp/ccEh7fUZ.s:802    .text:00000000000005a0 .L0 
     /tmp/ccEh7fUZ.s:806    .text:00000000000005ac .L0 
     /tmp/ccEh7fUZ.s:810    .text:00000000000005b8 .L0 
     /tmp/ccEh7fUZ.s:814    .text:00000000000005c4 .L0 
     /tmp/ccEh7fUZ.s:50     .text:0000000000000050 .L1
     /tmp/ccEh7fUZ.s:67     .text:0000000000000068 .L6
     /tmp/ccEh7fUZ.s:37     .text:0000000000000030 .L3
     /tmp/ccEh7fUZ.s:142    .text:00000000000000d0 .L9
     /tmp/ccEh7fUZ.s:119    .text:0000000000000094 .L13
     /tmp/ccEh7fUZ.s:212    .text:0000000000000178 .L11
     /tmp/ccEh7fUZ.s:189    .text:000000000000013c .L14
     /tmp/ccEh7fUZ.s:313    .text:0000000000000218 .L17
     /tmp/ccEh7fUZ.s:290    .text:00000000000001dc .L21
     /tmp/ccEh7fUZ.s:409    .text:00000000000002f8 .L19
     /tmp/ccEh7fUZ.s:386    .text:00000000000002bc .L22
     /tmp/ccEh7fUZ.s:519    .text:0000000000000390 .L29
     /tmp/ccEh7fUZ.s:511    .text:000000000000038c .L25
     /tmp/ccEh7fUZ.s:479    .text:000000000000035c .L26
     /tmp/ccEh7fUZ.s:500    .text:0000000000000378 .L27
     /tmp/ccEh7fUZ.s:547    .text:00000000000003d4 .L24
     /tmp/ccEh7fUZ.s:491    .text:0000000000000368 .L28
     /tmp/ccEh7fUZ.s:652    .text:0000000000000464 .L37
     /tmp/ccEh7fUZ.s:644    .text:0000000000000460 .L33
     /tmp/ccEh7fUZ.s:612    .text:0000000000000430 .L34
     /tmp/ccEh7fUZ.s:633    .text:000000000000044c .L35
     /tmp/ccEh7fUZ.s:680    .text:00000000000004a8 .L32
     /tmp/ccEh7fUZ.s:624    .text:000000000000043c .L36
     /tmp/ccEh7fUZ.s:798    .text:00000000000005a0 .L42
     /tmp/ccEh7fUZ.s:793    .text:0000000000000598 .L40
     /tmp/ccEh7fUZ.s:830    .text:00000000000005e8 .L41
     /tmp/ccEh7fUZ.s:856    .text:0000000000000618 .L39
     /tmp/ccEh7fUZ.s:826    .text:00000000000005e4 .L44
     /tmp/ccEh7fUZ.s:820    .text:00000000000005d8 .L45
     /tmp/ccEh7fUZ.s:2310   .debug_abbrev:0000000000000000 .Ldebug_abbrev0
     /tmp/ccEh7fUZ.s:3539   .debug_str:000000000000043e .LASF67
     /tmp/ccEh7fUZ.s:3455   .debug_str:00000000000001d9 .LASF68
     /tmp/ccEh7fUZ.s:3411   .debug_str:000000000000006f .LASF69
     /tmp/ccEh7fUZ.s:5      .text:0000000000000000 .Ltext0
     /tmp/ccEh7fUZ.s:896    .text:0000000000000630 .Letext0
     /tmp/ccEh7fUZ.s:3391   .debug_line:0000000000000000 .Ldebug_line0
     /tmp/ccEh7fUZ.s:3491   .debug_str:00000000000002db .LASF0
     /tmp/ccEh7fUZ.s:3497   .debug_str:0000000000000311 .LASF1
     /tmp/ccEh7fUZ.s:3481   .debug_str:0000000000000292 .LASF2
     /tmp/ccEh7fUZ.s:3431   .debug_str:0000000000000122 .LASF3
     /tmp/ccEh7fUZ.s:3463   .debug_str:000000000000023e .LASF4
     /tmp/ccEh7fUZ.s:3529   .debug_str:00000000000003ec .LASF5
     /tmp/ccEh7fUZ.s:3413   .debug_str:0000000000000092 .LASF6
     /tmp/ccEh7fUZ.s:3503   .debug_str:0000000000000354 .LASF7
GAS LISTING /tmp/ccEh7fUZ.s 			page 31


     /tmp/ccEh7fUZ.s:3489   .debug_str:00000000000002c8 .LASF8
     /tmp/ccEh7fUZ.s:3545   .debug_str:0000000000000524 .LASF9
     /tmp/ccEh7fUZ.s:3449   .debug_str:000000000000019e .LASF10
     /tmp/ccEh7fUZ.s:3509   .debug_str:0000000000000385 .LASF11
     /tmp/ccEh7fUZ.s:3541   .debug_str:0000000000000502 .LASF12
     /tmp/ccEh7fUZ.s:3415   .debug_str:0000000000000099 .LASF13
     /tmp/ccEh7fUZ.s:3401   .debug_str:0000000000000028 .LASF14
     /tmp/ccEh7fUZ.s:3419   .debug_str:00000000000000b2 .LASF15
     /tmp/ccEh7fUZ.s:3523   .debug_str:00000000000003c9 .LASF16
     /tmp/ccEh7fUZ.s:3423   .debug_str:00000000000000da .LASF17
     /tmp/ccEh7fUZ.s:3405   .debug_str:0000000000000042 .LASF70
     /tmp/ccEh7fUZ.s:3477   .debug_str:000000000000027f .LASF18
     /tmp/ccEh7fUZ.s:3519   .debug_str:00000000000003b8 .LASF20
     /tmp/ccEh7fUZ.s:3505   .debug_str:0000000000000367 .LASF22
     /tmp/ccEh7fUZ.s:3447   .debug_str:0000000000000187 .LASF24
     /tmp/ccEh7fUZ.s:3483   .debug_str:00000000000002a0 .LASF19
     /tmp/ccEh7fUZ.s:3457   .debug_str:00000000000001f5 .LASF21
     /tmp/ccEh7fUZ.s:3475   .debug_str:0000000000000272 .LASF23
     /tmp/ccEh7fUZ.s:3409   .debug_str:0000000000000056 .LASF25
     /tmp/ccEh7fUZ.s:3473   .debug_str:0000000000000265 .LASF26
     /tmp/ccEh7fUZ.s:3495   .debug_str:00000000000002f1 .LASF27
     /tmp/ccEh7fUZ.s:3521   .debug_str:00000000000003c4 .LASF71
     /tmp/ccEh7fUZ.s:3421   .debug_str:00000000000000be .LASF28
     /tmp/ccEh7fUZ.s:3551   .debug_str:000000000000054c .LASF29
     /tmp/ccEh7fUZ.s:3533   .debug_str:000000000000040f .LASF72
     /tmp/ccEh7fUZ.s:3435   .debug_str:0000000000000130 .LASF73
     /tmp/ccEh7fUZ.s:3525   .debug_str:00000000000003df .LASF74
     /tmp/ccEh7fUZ.s:3485   .debug_str:00000000000002ac .LASF75
     /tmp/ccEh7fUZ.s:3433   .debug_str:0000000000000128 .LASF76
     /tmp/ccEh7fUZ.s:3451   .debug_str:00000000000001ac .LASF77
     /tmp/ccEh7fUZ.s:3469   .debug_str:0000000000000258 .LASF30
     /tmp/ccEh7fUZ.s:3555   .debug_str:000000000000058e .LASF31
     /tmp/ccEh7fUZ.s:3471   .debug_str:000000000000025d .LASF32
     /tmp/ccEh7fUZ.s:3517   .debug_str:00000000000003ad .LASF33
     /tmp/ccEh7fUZ.s:3467   .debug_str:000000000000024f .LASF34
     /tmp/ccEh7fUZ.s:3479   .debug_str:0000000000000284 .LASF35
     /tmp/ccEh7fUZ.s:3453   .debug_str:00000000000001c0 .LASF37
     /tmp/ccEh7fUZ.s:3549   .debug_str:000000000000053e .LASF78
     /tmp/ccEh7fUZ.s:3459   .debug_str:000000000000020c .LASF79
     /tmp/ccEh7fUZ.s:3493   .debug_str:00000000000002e8 .LASF36
     /tmp/ccEh7fUZ.s:3507   .debug_str:0000000000000372 .LASF38
     /tmp/ccEh7fUZ.s:3531   .debug_str:00000000000003fe .LASF80
     /tmp/ccEh7fUZ.s:3437   .debug_str:0000000000000149 .LASF39
     /tmp/ccEh7fUZ.s:3393   .debug_str:0000000000000000 .LASF40
     /tmp/ccEh7fUZ.s:3513   .debug_str:000000000000039e .LASF41
     /tmp/ccEh7fUZ.s:3461   .debug_str:0000000000000234 .LASF42
     /tmp/ccEh7fUZ.s:3403   .debug_str:0000000000000038 .LASF43
     /tmp/ccEh7fUZ.s:3465   .debug_str:0000000000000245 .LASF44
     /tmp/ccEh7fUZ.s:3543   .debug_str:0000000000000511 .LASF45
     /tmp/ccEh7fUZ.s:3427   .debug_str:00000000000000fc .LASF46
     /tmp/ccEh7fUZ.s:728    .text:00000000000004dc .LFB29
     /tmp/ccEh7fUZ.s:875    .text:0000000000000630 .LFE29
     /tmp/ccEh7fUZ.s:3443   .debug_str:0000000000000173 .LASF47
     /tmp/ccEh7fUZ.s:821    .text:00000000000005d8 .LBB22
     /tmp/ccEh7fUZ.s:859    .text:0000000000000618 .LBE22
     /tmp/ccEh7fUZ.s:3132   .debug_loc:0000000000000000 .LLST16
     /tmp/ccEh7fUZ.s:843    .text:0000000000000604 .LBB23
GAS LISTING /tmp/ccEh7fUZ.s 			page 32


     /tmp/ccEh7fUZ.s:858    .text:0000000000000618 .LBE23
     /tmp/ccEh7fUZ.s:3139   .debug_loc:0000000000000023 .LLST17
     /tmp/ccEh7fUZ.s:853    .text:0000000000000614 .LVL105
     /tmp/ccEh7fUZ.s:825    .text:00000000000005e4 .LVL102
     /tmp/ccEh7fUZ.s:750    .text:000000000000050c .LVL92
     /tmp/ccEh7fUZ.s:755    .text:000000000000051c .LVL93
     /tmp/ccEh7fUZ.s:762    .text:0000000000000534 .LVL94
     /tmp/ccEh7fUZ.s:767    .text:0000000000000544 .LVL95
     /tmp/ccEh7fUZ.s:774    .text:000000000000055c .LVL96
     /tmp/ccEh7fUZ.s:779    .text:000000000000056c .LVL97
     /tmp/ccEh7fUZ.s:786    .text:0000000000000584 .LVL98
     /tmp/ccEh7fUZ.s:791    .text:0000000000000594 .LVL99
     /tmp/ccEh7fUZ.s:797    .text:00000000000005a0 .LVL100
     /tmp/ccEh7fUZ.s:3407   .debug_str:000000000000004a .LASF49
     /tmp/ccEh7fUZ.s:97     .text:0000000000000074 .LFB28
     /tmp/ccEh7fUZ.s:246    .text:00000000000001bc .LFE28
     /tmp/ccEh7fUZ.s:3146   .debug_loc:0000000000000046 .LLST1
     /tmp/ccEh7fUZ.s:3160   .debug_loc:000000000000007f .LLST2
     /tmp/ccEh7fUZ.s:3395   .debug_str:0000000000000009 .LASF48
     /tmp/ccEh7fUZ.s:3180   .debug_loc:00000000000000dc .LLST3
     /tmp/ccEh7fUZ.s:124    .text:00000000000000a4 .LVL10
     /tmp/ccEh7fUZ.s:131    .text:00000000000000b8 .LVL11
     /tmp/ccEh7fUZ.s:136    .text:00000000000000c8 .LVL12
     /tmp/ccEh7fUZ.s:151    .text:00000000000000e8 .LVL15
     /tmp/ccEh7fUZ.s:162    .text:00000000000000f4 .LVL16
     /tmp/ccEh7fUZ.s:167    .text:0000000000000100 .LVL17
     /tmp/ccEh7fUZ.s:175    .text:0000000000000114 .LVL20
     /tmp/ccEh7fUZ.s:182    .text:0000000000000128 .LVL21
     /tmp/ccEh7fUZ.s:187    .text:0000000000000138 .LVL22
     /tmp/ccEh7fUZ.s:194    .text:000000000000014c .LVL23
     /tmp/ccEh7fUZ.s:201    .text:0000000000000160 .LVL24
     /tmp/ccEh7fUZ.s:206    .text:0000000000000170 .LVL25
     /tmp/ccEh7fUZ.s:221    .text:0000000000000190 .LVL28
     /tmp/ccEh7fUZ.s:229    .text:00000000000001a4 .LVL29
     /tmp/ccEh7fUZ.s:3399   .debug_str:000000000000001c .LASF50
     /tmp/ccEh7fUZ.s:268    .text:00000000000001bc .LFB27
     /tmp/ccEh7fUZ.s:443    .text:000000000000033c .LFE27
     /tmp/ccEh7fUZ.s:3191   .debug_loc:0000000000000112 .LLST4
     /tmp/ccEh7fUZ.s:3205   .debug_loc:000000000000014b .LLST5
     /tmp/ccEh7fUZ.s:3225   .debug_loc:00000000000001a8 .LLST6
     /tmp/ccEh7fUZ.s:3233   .debug_loc:00000000000001cc .LLST7
     /tmp/ccEh7fUZ.s:295    .text:00000000000001ec .LVL35
     /tmp/ccEh7fUZ.s:302    .text:0000000000000200 .LVL36
     /tmp/ccEh7fUZ.s:307    .text:0000000000000210 .LVL37
     /tmp/ccEh7fUZ.s:322    .text:0000000000000230 .LVL40
     /tmp/ccEh7fUZ.s:333    .text:000000000000023c .LVL41
     /tmp/ccEh7fUZ.s:347    .text:0000000000000250 .LVL43
     /tmp/ccEh7fUZ.s:354    .text:0000000000000264 .LVL44
     /tmp/ccEh7fUZ.s:359    .text:0000000000000274 .LVL45
     /tmp/ccEh7fUZ.s:364    .text:0000000000000280 .LVL46
     /tmp/ccEh7fUZ.s:372    .text:0000000000000294 .LVL49
     /tmp/ccEh7fUZ.s:379    .text:00000000000002a8 .LVL50
     /tmp/ccEh7fUZ.s:384    .text:00000000000002b8 .LVL51
     /tmp/ccEh7fUZ.s:391    .text:00000000000002cc .LVL52
     /tmp/ccEh7fUZ.s:398    .text:00000000000002e0 .LVL53
     /tmp/ccEh7fUZ.s:403    .text:00000000000002f0 .LVL54
     /tmp/ccEh7fUZ.s:418    .text:0000000000000310 .LVL57
GAS LISTING /tmp/ccEh7fUZ.s 			page 33


     /tmp/ccEh7fUZ.s:426    .text:0000000000000324 .LVL58
     /tmp/ccEh7fUZ.s:3397   .debug_str:0000000000000010 .LASF51
     /tmp/ccEh7fUZ.s:456    .text:000000000000033c .LFB26
     /tmp/ccEh7fUZ.s:579    .text:0000000000000410 .LFE26
     /tmp/ccEh7fUZ.s:3244   .debug_loc:0000000000000202 .LLST8
     /tmp/ccEh7fUZ.s:474    .text:0000000000000354 .LBB6
     /tmp/ccEh7fUZ.s:550    .text:00000000000003d4 .LBE6
     /tmp/ccEh7fUZ.s:3258   .debug_loc:000000000000023b .LLST9
     /tmp/ccEh7fUZ.s:3377   .debug_ranges:0000000000000000 .Ldebug_ranges0
     /tmp/ccEh7fUZ.s:3270   .debug_loc:0000000000000272 .LLST10
     /tmp/ccEh7fUZ.s:497    .text:0000000000000374 .LBB10
     /tmp/ccEh7fUZ.s:512    .text:000000000000038c .LBE10
     /tmp/ccEh7fUZ.s:3282   .debug_loc:00000000000002a9 .LLST11
     /tmp/ccEh7fUZ.s:486    .text:0000000000000364 .LVL64
     /tmp/ccEh7fUZ.s:528    .text:00000000000003a8 .LVL70
     /tmp/ccEh7fUZ.s:535    .text:00000000000003bc .LVL71
     /tmp/ccEh7fUZ.s:540    .text:00000000000003cc .LVL72
     /tmp/ccEh7fUZ.s:555    .text:00000000000003e4 .LVL74
     /tmp/ccEh7fUZ.s:563    .text:00000000000003f8 .LVL75
     /tmp/ccEh7fUZ.s:3487   .debug_str:00000000000002bc .LASF52
     /tmp/ccEh7fUZ.s:589    .text:0000000000000410 .LFB25
     /tmp/ccEh7fUZ.s:708    .text:00000000000004dc .LFE25
     /tmp/ccEh7fUZ.s:3293   .debug_loc:00000000000002df .LLST12
     /tmp/ccEh7fUZ.s:607    .text:0000000000000428 .LBB14
     /tmp/ccEh7fUZ.s:683    .text:00000000000004a8 .LBE14
     /tmp/ccEh7fUZ.s:3307   .debug_loc:0000000000000318 .LLST13
     /tmp/ccEh7fUZ.s:3319   .debug_loc:000000000000034f .LLST14
     /tmp/ccEh7fUZ.s:630    .text:0000000000000448 .LBB18
     /tmp/ccEh7fUZ.s:645    .text:0000000000000460 .LBE18
     /tmp/ccEh7fUZ.s:3331   .debug_loc:0000000000000386 .LLST15
     /tmp/ccEh7fUZ.s:619    .text:0000000000000438 .LVL80
     /tmp/ccEh7fUZ.s:661    .text:000000000000047c .LVL86
     /tmp/ccEh7fUZ.s:668    .text:0000000000000490 .LVL87
     /tmp/ccEh7fUZ.s:673    .text:00000000000004a0 .LVL88
     /tmp/ccEh7fUZ.s:688    .text:00000000000004b8 .LVL90
     /tmp/ccEh7fUZ.s:3547   .debug_str:0000000000000534 .LASF81
     /tmp/ccEh7fUZ.s:9      .text:0000000000000000 .LFB24
     /tmp/ccEh7fUZ.s:75     .text:0000000000000074 .LFE24
     /tmp/ccEh7fUZ.s:3342   .debug_loc:00000000000003bc .LLST0
     /tmp/ccEh7fUZ.s:42     .text:000000000000003c .LVL2
     /tmp/ccEh7fUZ.s:47     .text:000000000000004c .LVL3
     /tmp/ccEh7fUZ.s:72     .text:0000000000000070 .LVL6
     /tmp/ccEh7fUZ.s:3515   .debug_str:00000000000003a8 .LASF53
     /tmp/ccEh7fUZ.s:3511   .debug_str:0000000000000394 .LASF54
     /tmp/ccEh7fUZ.s:3425   .debug_str:00000000000000f0 .LASF82
     /tmp/ccEh7fUZ.s:3527   .debug_str:00000000000003e5 .LASF55
     /tmp/ccEh7fUZ.s:3537   .debug_str:000000000000042b .LASF57
     /tmp/ccEh7fUZ.s:3557   .debug_str:0000000000000594 .LASF56
     /tmp/ccEh7fUZ.s:3535   .debug_str:000000000000041b .LASF58
     /tmp/ccEh7fUZ.s:3501   .debug_str:0000000000000333 .LASF59
     /tmp/ccEh7fUZ.s:3429   .debug_str:0000000000000114 .LASF61
     /tmp/ccEh7fUZ.s:3553   .debug_str:000000000000057b .LASF60
     /tmp/ccEh7fUZ.s:3445   .debug_str:000000000000017b .LASF62
     /tmp/ccEh7fUZ.s:3439   .debug_str:000000000000014e .LASF63
     /tmp/ccEh7fUZ.s:3441   .debug_str:0000000000000163 .LASF64
     /tmp/ccEh7fUZ.s:3499   .debug_str:0000000000000324 .LASF65
     /tmp/ccEh7fUZ.s:3417   .debug_str:00000000000000a9 .LASF66
GAS LISTING /tmp/ccEh7fUZ.s 			page 34


     /tmp/ccEh7fUZ.s:819    .text:00000000000005d8 .LVL101
     /tmp/ccEh7fUZ.s:868    .text:0000000000000624 .LVL107
     /tmp/ccEh7fUZ.s:842    .text:0000000000000604 .LVL104
     /tmp/ccEh7fUZ.s:855    .text:0000000000000618 .LVL106
     /tmp/ccEh7fUZ.s:100    .text:0000000000000074 .LVL7
     /tmp/ccEh7fUZ.s:118    .text:0000000000000094 .LVL9
     /tmp/ccEh7fUZ.s:114    .text:000000000000008c .LVL8
     /tmp/ccEh7fUZ.s:139    .text:00000000000000cc .LVL13
     /tmp/ccEh7fUZ.s:141    .text:00000000000000d0 .LVL14
     /tmp/ccEh7fUZ.s:209    .text:0000000000000174 .LVL26
     /tmp/ccEh7fUZ.s:211    .text:0000000000000178 .LVL27
     /tmp/ccEh7fUZ.s:238    .text:00000000000001b0 .LVL30
     /tmp/ccEh7fUZ.s:169    .text:0000000000000104 .LVL18
     /tmp/ccEh7fUZ.s:173    .text:000000000000010c .LVL19
     /tmp/ccEh7fUZ.s:241    .text:00000000000001b4 .LVL31
     /tmp/ccEh7fUZ.s:271    .text:00000000000001bc .LVL32
     /tmp/ccEh7fUZ.s:289    .text:00000000000001dc .LVL34
     /tmp/ccEh7fUZ.s:285    .text:00000000000001d4 .LVL33
     /tmp/ccEh7fUZ.s:310    .text:0000000000000214 .LVL38
     /tmp/ccEh7fUZ.s:312    .text:0000000000000218 .LVL39
     /tmp/ccEh7fUZ.s:406    .text:00000000000002f4 .LVL55
     /tmp/ccEh7fUZ.s:408    .text:00000000000002f8 .LVL56
     /tmp/ccEh7fUZ.s:435    .text:0000000000000330 .LVL59
     /tmp/ccEh7fUZ.s:341    .text:0000000000000240 .LVL42
     /tmp/ccEh7fUZ.s:366    .text:0000000000000284 .LVL47
     /tmp/ccEh7fUZ.s:370    .text:000000000000028c .LVL48
     /tmp/ccEh7fUZ.s:438    .text:0000000000000334 .LVL60
     /tmp/ccEh7fUZ.s:459    .text:000000000000033c .LVL61
     /tmp/ccEh7fUZ.s:478    .text:000000000000035c .LVL63
     /tmp/ccEh7fUZ.s:473    .text:0000000000000354 .LVL62
     /tmp/ccEh7fUZ.s:574    .text:0000000000000408 .LVL76
     /tmp/ccEh7fUZ.s:518    .text:0000000000000390 .LVL69
     /tmp/ccEh7fUZ.s:546    .text:00000000000003d4 .LVL73
     /tmp/ccEh7fUZ.s:501    .text:0000000000000378 .LVL66
     /tmp/ccEh7fUZ.s:510    .text:000000000000038c .LVL68
     /tmp/ccEh7fUZ.s:592    .text:0000000000000410 .LVL77
     /tmp/ccEh7fUZ.s:611    .text:0000000000000430 .LVL79
     /tmp/ccEh7fUZ.s:606    .text:0000000000000428 .LVL78
     /tmp/ccEh7fUZ.s:703    .text:00000000000004d4 .LVL91
     /tmp/ccEh7fUZ.s:651    .text:0000000000000464 .LVL85
     /tmp/ccEh7fUZ.s:679    .text:00000000000004a8 .LVL89
     /tmp/ccEh7fUZ.s:634    .text:000000000000044c .LVL82
     /tmp/ccEh7fUZ.s:643    .text:0000000000000460 .LVL84
     /tmp/ccEh7fUZ.s:13     .text:0000000000000000 .LVL0
     /tmp/ccEh7fUZ.s:36     .text:0000000000000030 .LVL1
     /tmp/ccEh7fUZ.s:60     .text:000000000000005c .LVL4
     /tmp/ccEh7fUZ.s:66     .text:0000000000000068 .LVL5
     /tmp/ccEh7fUZ.s:901    .debug_info:0000000000000000 .Ldebug_info0
     /tmp/ccEh7fUZ.s:481    .text:000000000000035c .LBB8
     /tmp/ccEh7fUZ.s:514    .text:000000000000038c .LBE8
     /tmp/ccEh7fUZ.s:542    .text:00000000000003cc .LBB12
     /tmp/ccEh7fUZ.s:548    .text:00000000000003d4 .LBE12
     /tmp/ccEh7fUZ.s:614    .text:0000000000000430 .LBB16
     /tmp/ccEh7fUZ.s:647    .text:0000000000000460 .LBE16
     /tmp/ccEh7fUZ.s:675    .text:00000000000004a0 .LBB20
     /tmp/ccEh7fUZ.s:681    .text:00000000000004a8 .LBE20

GAS LISTING /tmp/ccEh7fUZ.s 			page 35


UNDEFINED SYMBOLS
_Z15thread_dispatchv
_Z11printStringPKc
_Z8printIntiii
_Z13thread_createPP3TCBPFvPvES2_
_ZdlPv
_ZdaPv
